_ZN2nn4init11s_AllocatorE = __main_start + 0x035acda8;

/* no one uses glslc its fine */
_ZN2nn3gfx6detail8GlslcDll11GetInstanceEv = 0;
_ZSt20__throw_length_errorPKc = 0;

_ZTSSt12length_error = __main_start + 0x000000000296e09d;
_ZTIN2nn5async6detail12IWaitHandlerE = __main_start + 0x000000000320d160;
_ZTINSt3__112bad_weak_ptrE = __main_start + 0x000000000320eca8;
_ZTISt15underflow_error = __main_start + 0x0000000003219958;
_ZnwmRKSt9nothrow_t = __main_start + 0x0000000001ca9020;
_ZnwmSt11align_val_t = __main_start + 0x0000000001ca9040;
_ZdlPvRKSt9nothrow_t = __main_start + 0x0000000001ca90f0;
_ZN2nn8settingseqERKNS0_12LanguageCodeES3_ = __main_start + 0x0000000000571660;
_ZTSSt9exception = __main_start + 0x000000000296e0be;
_ZTSSt9bad_alloc = __main_start + 0x0000000002976bfe;
_ZTISt14overflow_error = __main_start + 0x0000000003219940;
_ZTSSt16invalid_argument = __main_start + 0x0000000002986920;
malloc = __main_start + 0x000000000106f330;
_ZTIN2nn5async16ResumeBlockerOneE = __main_start + 0x000000000320d078;
_ZTSNSt3__112bad_weak_ptrE = __main_start + 0x0000000002973f57;
_ZdlPv = __main_start + 0x0000000000058fa0;
_ZTSN2nn5async13ResumeBlockerE = __main_start + 0x000000000296f966;
_ZTISt11range_error = __main_start + 0x0000000003219928;
_ZN2nn5async16ResumeBlockerOne18GetGroupWaitHolderEv = __main_start + 0x00000000009dd240;
_ZTSN2nn5async6detail15FutureStateBaseE = __main_start + 0x00000000029703b7;
_ZTISt20bad_array_new_length = __main_start + 0x00000000032135b0;
_ZnamRKSt9nothrow_t = __main_start + 0x0000000001ca9030;
_ZnamSt11align_val_t = __main_start + 0x0000000001ca9050;
__nnDetailNintendoSdkRuntimeObjectFile = __main_start + 0x00000000009cea70;
_ZTIN2nn5async13ResumeBlockerE = __main_start + 0x000000000320d068;
_ZTSSt14overflow_error = __main_start + 0x0000000002986968;
calloc = __main_start + 0x000000000106f380;
_ZTISt11logic_error = __main_start + 0x0000000003209430;
_ZdlPvSt11align_val_t = __main_start + 0x0000000001ca9110;
_ZTVN2nn5async16ResumeBlockerOneE = __main_start + 0x0000000003209888;
_ZN2nn5async16ResumeBlockerOneD2Ev = __main_start + 0x00000000009dd21c;
_ZN2nn5async16ResumeBlockerOneD0Ev = __main_start + 0x00000000009dd224;
_ZTSN2nn5async6detail10IAwaitableE = __main_start + 0x00000000029703fc;
_ZTIN2nn5async6detail10IAwaitableE = __main_start + 0x000000000320d150;
_ZTIN2nn4util21IntrusiveListBaseNodeINS_5async6detail15GroupWaitHolderES4_EE = __main_start + 0x000000000320d3f8;
_ZTISt12domain_error = __main_start + 0x00000000032198f8;
_ZTINSt3__117bad_function_callE = __main_start + 0x0000000003219970;
free = __main_start + 0x00000000000271b0;
_ZTSN2nn5async6detail12IWaitHandlerE = __main_start + 0x00000000029703db;
_ZTISt13runtime_error = __main_start + 0x0000000003219910;
_ZNSt3__1mlIdEENS_7complexIT_EERKS3_S5_ = __main_start + 0x0000000001d99020;
nndetailRoGe = __main_start + 0x00000000000003d0;
nninitStartup = __main_start + 0x0000000000613120;
_ZTSN2nn5async6detail11FutureStateIvEE = __main_start + 0x0000000002970394;
_ZTIN2nn5async6detail15GroupWaitHolderE = __main_start + 0x000000000320d410;
_ZTIN2nn14MemoryResourceE = __main_start + 0x000000000320d500;
_ZNSt3__1dvIdEENS_7complexIT_EERKS3_S5_ = __main_start + 0x0000000001d99200;
nndetailRoGe = __main_start + 0x00000000000003e0;
_ZTISt12out_of_range = __main_start + 0x000000000320ee40;
_Znwm = __main_start + 0x0000000000325e80;
_Znam = __main_start + 0x0000000001ca8fa0;
_ZTISt9exception = __main_start + 0x0000000003209420;
_ZTIN2nn5async6detail11FutureStateIvEE = __main_start + 0x000000000320d190;
_ZTSN2nn14MemoryResourceE = __main_start + 0x0000000002970be4;
_ZTISt9bad_alloc = __main_start + 0x0000000003213598;
aligned_alloc = __main_start + 0x000000000000e260;
_ZTSSt12out_of_range = __main_start + 0x0000000002973f6e;
_ZNSt3__117bad_function_callD0Ev = __main_start + 0x0000000000b89e90;
_ZTSSt15underflow_error = __main_start + 0x000000000298697b;
nnMain = __main_start + 0x00000000005a48d0;
_ZTSSt12domain_error = __main_start + 0x0000000002986935;
_ZdaPvRKSt9nothrow_t = __main_start + 0x0000000001ca9100;
_ZdaPvSt11align_val_t = __main_start + 0x0000000001ca9120;
_ZdaPv = __main_start + 0x0000000000144cf0;
_ZTSSt20bad_array_new_length = __main_start + 0x0000000002976be5;
_ZTSN2nn5async6detail15GroupWaitHolderE = __main_start + 0x0000000002970b54;
_ZN2nn14MemoryResourceD2Ev = __main_start + 0x0000000001c7ce64;
_ZTSN2nn4util17IntrusiveListNodeE = __main_start + 0x000000000289d434;
__nnDetailNintendoSdkRuntimeObjectFileRefer = __main_start + 0x0000000000000300;
_ZNSt3__127__tree_balance_after_insertIPNS_16__tree_node_baseIPvEEEEvT_S5_ = __main_start + 0x0000000001bad470;
_ZTSN2nn4util21IntrusiveListBaseNodeINS_5async6detail15GroupWaitHolderES4_EE = __main_start + 0x0000000002970b78;
_ZTSSt11range_error = __main_start + 0x0000000002986958;
_ZTSNSt3__117bad_function_callE = __main_start + 0x000000000298698f;
_ZTVNSt3__117bad_function_callE = __main_start + 0x00000000032198b8;
_ZTSSt13runtime_error = __main_start + 0x0000000002986946;
_ZNSt3__113__tree_removeIPNS_16__tree_node_baseIPvEEEEvT_S5_ = __main_start + 0x0000000001bb5490;
_ZTISt12length_error = __main_start + 0x0000000003209448;
_ZTISt16invalid_argument = __main_start + 0x00000000032198e0;
realloc = __main_start + 0x0000000000028690;
_ZTIN2nn4util17IntrusiveListNodeE = __main_start + 0x00000000032090d0;
_ZTSSt11logic_error = __main_start + 0x000000000296e0ae;
_ZTSN2nn5async16ResumeBlockerOneE = __main_start + 0x000000000296f948;
_ZTIN2nn5async6detail15FutureStateBaseE = __main_start + 0x000000000320d178;
_ZN2nn2os5MutexD2Ev = __main_start + 0x0000000000a33c4c;
Libz_SigloMiddlewareInfo = __main_start + 0x00000000013e9660;