_ZN2nn5image6detail17PngStreamAccessorD2Ev = __sdk_start + 0x000000000006ffc4;
_ZN2nn5audio34SetAudioRendererVoiceDropParameterENS0_19AudioRendererHandleEf = __sdk_start + 0x00000000001e1400;
_ZN2nn3mii27CharInfoVisualParamAccessorC2EPNS0_8CharInfoE = __sdk_start + 0x00000000003623f8;
_ZN2nn3nfp6client18GetSystemInterfaceEv = __sdk_start + 0x0000000000381d20;
nndetailImagePng_png_handle_iCCP = __sdk_start + 0x00000000000608b0;
_ZN2nn2ec28AsyncConsumeRightDataRequest9BeginImplEPKNS0_30ConsumableServiceItemRightDataEi = __sdk_start + 0x00000000002ed1ec;
_ZN2nn2sf4cmif6client6detail13CmifProxyImplINS_4pctl6detail3ipc23IParentalControlServiceENS2_19CmifDomainProxyKindINS0_4hipc6client38Hipc2ClientSessionManagedProxyKindBaseINSB_18Hipc2ProxyKindBaseILNSA_6detail11MessageTypeE6EEEEEEENS0_30MemoryResourceAllocationPolicyES8_NS3_19ProcessModifierImplINS2_21DefaultProxyFilterTagEEEE34_nn_sf_sync_GetSafetyLevelSettingsENS0_3OutINS5_19RestrictionSettingsEvEEi = __sdk_start + 0x000000000039f42c;
_ZN2nn5audio6server23CircularBufferSinkState7CleanUpEv = __sdk_start + 0x000000000021ce44;
_ZN2nn3hid28InitializeSevenSixAxisSensorEPvm = __sdk_start + 0x000000000049bd70;
_ZN2nn5audio16SharedRingBuffer28GetReleasedBufferForPlaybackEv = __sdk_start + 0x00000000001ebea0;
fsg_CopyElementBackwards = __sdk_start + 0x000000000032c980;
_ZN2nn5async6detail9GroupWait19LinkMultiWaitHolderEPNS1_15GroupWaitHolder11InnerHolderE = __sdk_start + 0x0000000000089ccc;
_ZN2nn2sf4cmif6client34CmifDomainProxyClientCoreProcessorINS0_4hipc6client38Hipc2ClientSessionManagedProxyKindBaseINS5_18Hipc2ProxyKindBaseILNS4_6detail11MessageTypeE6EEEEENS1_6detail14CoreMethodInfoINSt3__15tupleIJNSC_17InRawArgumentInfoILm64ELm8ELl8EEENSC_18BufferArgumentInfoILi0ELi5ELm0EEENSG_ILm1ELm1ELl0EEENSI_ILi1ELi5ELm0EEEEEELm72ELm0ELb0EEESM_E7ProcessEPNS2_23CmifDomainClientMessageISB_E15ProxyBaseObjectENS2_23InRawClientArgumentTypeILm64ELm8EvEENS2_24BufferClientArgumentTypeENST_ILm1ELm1EvEESV_j = __sdk_start + 0x00000000001bab00;
_ZN2nn3mii6detail11UtilityImpl15GetRandomUint32Ev = __sdk_start + 0x000000000036ca74;
_ZN2nn3nsd29SetWithoutDomainExchangeFqdnsEPNS0_4FqdnEi = __sdk_start + 0x0000000000394760;
NvRmStreamPush = __sdk_start + 0x0000000000402eb0;
NvRmGpuProfilerV2RegOpsExec = __sdk_start + 0x0000000000435e00;
_ZN2nn6crypto6detail6BigNum6SubModEPjPKjS5_S5_i = __sdk_start + 0x0000000000007d00;
_ZN2nn2sf4hipc6detail25HipcMessageBufferAccessor6GetTagEPvm = __sdk_start + 0x000000000013fdf4;
_ZNK7android7String810getPathDirEv = __sdk_start + 0x0000000000194a38;
_ZN2nn2sf4hipc6client24Hipc2ClientCoreProcessorILNS1_6detail11MessageTypeE6ENS0_4cmif6detail14CoreMethodInfoINSt3__15tupleIJNS7_18OutRawArgumentInfoILm4ELm4ELl0EEENS7_21OutHandleArgumentInfoILi0ELi1EEENS7_17InRawArgumentInfoILm4ELm4ELl0EEENSF_ILm4ELm4ELl4EEENSF_ILm8ELm8ELl16EEENS7_20InHandleArgumentInfoILi0ELi1EEENSF_ILm4ELm4ELl8EEEEEELm24ELm4ELb0EEESM_E7ProcessEPNS2_26Hipc2ClientProxyBaseObjectENS6_6client24OutRawClientArgumentTypeILm4ELm4EEENSR_27OutHandleClientArgumentTypeENSR_23InRawClientArgumentTypeILm4ELm4EvEESW_NSV_ILm8ELm8EvEENSR_26InHandleClientArgumentTypeESW_j = __sdk_start + 0x0000000000353fc4;
_ZNK2nn3mii6detail16Ver3StoreDataRaw15GetMustacheTypeEv = __sdk_start + 0x000000000036ebac;
_ZN2nn2sf4cmif6client6detail13CmifProxyImplINS_7timesrv6detail7service14IStaticServiceENS2_19CmifDomainProxyKindINS0_4hipc6client38Hipc2ClientSessionManagedProxyKindBaseINSB_18Hipc2ProxyKindBaseILNSA_6detail11MessageTypeE6EEEEEEENS0_30MemoryResourceAllocationPolicyES8_NS3_19ProcessModifierImplINS2_21DefaultProxyFilterTagEEEE41_nn_sf_sync_GetStandardNetworkSystemClockENS0_3OutINS0_13SharedPointerINS7_12ISystemClockEEEvEE = __sdk_start + 0x00000000003d1780;
_ZN2nn2fs9MountHostEPKcS2_ = __sdk_start + 0x00000000000d1c90;
_ZN2nn7account37AsyncNetworkServiceLicenseInfoContext28GetNetworkServiceLicenseKindEv = __sdk_start + 0x000000000019fb04;
_ZN2nn9bluetooth3hal12GetLatestPlrEPNS1_14PacketLostRateEi = __sdk_start + 0x000000000023a6c0;
_ZN2nn2sf4cmif6client6detail13CmifProxyImplINS_6capsrv2sf29IScreenShotApplicationServiceENS0_4hipc6client18Hipc2ProxyKindBaseILNS8_6detail11MessageTypeE6EEENS0_30MemoryResourceAllocationPolicyES7_NS3_19ProcessModifierImplINS2_21DefaultProxyFilterTagEEEE12GetProxyInfoEv = __sdk_start + 0x000000000024a6e0;
nncodecLibopus_silk_VQ_WMat_EC_c = __sdk_start + 0x000000000026f650;
_ZN2nn3mii27CharInfoVisualParamAccessor8SetMoleXEi = __sdk_start + 0x0000000000363ff8;
_ZN2nn2sf4cmif6client34CmifDomainProxyClientCoreProcessorINS0_4hipc6client38Hipc2ClientSessionManagedProxyKindBaseINS5_18Hipc2ProxyKindBaseILNS4_6detail11MessageTypeE6EEEEENS1_6detail14CoreMethodInfoINSt3__15tupleIJNSC_17InRawArgumentInfoILm52ELm2ELl0EEEEEELm52ELm0ELb0EEESI_E7ProcessEPNS2_23CmifDomainClientMessageISB_E15ProxyBaseObjectENS2_23InRawClientArgumentTypeILm52ELm2EvEEj = __sdk_start + 0x00000000003a0480;
_ZN2nn3web22ShowOfflineHtmlPageArgC1EPKc = __sdk_start + 0x00000000004e0870;
_ZN2nn3web6detail14WebSessionImpl48TotalSendBrowserEngineMessageGroupStorageSizeMaxE = __sdk_start + 0x0000000000b5a4c4;
nnosWaitInterruptEvent = __sdk_start + 0x0000000000130180;
nncodecLibopus_silk_NLSF_stabilize = __sdk_start + 0x000000000026a5f0;
_ZZN2nn2sf40SimpleAllInOneHipcSubDomainClientManagerILm2EE27InitializeShimLibraryHolderINS_2lm11ILogServiceENS0_4cmif6client6detail19ProcessModifierImplINS7_21DefaultProxyFilterTagEEEEENS_6ResultEPNS0_23ShimLibraryObjectHolderIT_EEPKcPNS_14MemoryResourceEENKUlPvE_clESL_ = __sdk_start + 0x0000000000362244;
_ZN2nn3ssl7Context9SetOptionENS1_13ContextOptionEi = __sdk_start + 0x00000000003c3b60;
_ZN2nn2sf6detail38ObjectImplFactoryWithStatefulAllocatorINS0_4cmif6client6detail9CmifProxyINS_5visrv2sf23IApplicationRootServiceENS0_4hipc6client18Hipc2ProxyKindBaseILNSA_6detail11MessageTypeE6EEENS0_30MemoryResourceAllocationPolicyENS5_19ProcessModifierImplINS4_21DefaultProxyFilterTagEEEvEESG_E6Object7ReleaseEv = __sdk_start + 0x00000000003dc248;
_ZN2nn2sf13InterfaceInfoINS_5audio6detail12IAudioDeviceEE4_tABINS5_5_tO2NINS2_6server24AudioRendererManagerImpl15AudioDeviceImplEE4typeES4_E4type38_nn_sf_sync_SetAudioDeviceOutputVolumeERKNS0_8InBufferEf = __sdk_start + 0x000000000020d808;
_ZNSt3__112strstreambufC2El = __sdk_start + 0x000000000054ed60;
__truncsfhf2 = __sdk_start + 0x0000000000576330;
_ZN2nn6crypto6detail8Sha1Impl16ProcessLastBlockEv = __sdk_start + 0x000000000000f784;
_ZN2nn5async5AwaitEPNS_2os10ThreadTypeE = __sdk_start + 0x000000000008ae70;
silk_LSFCosTab_FIX_Q12 = __sdk_start + 0x0000000000afd9c8;
_ZN2nn5codec32FDK_sbrDecoder_sbr_start_freq_64E = __sdk_start + 0x0000000000b0da1c;
_ZTSN2nn3spl6detail16IRandomInterfaceE = __sdk_start + 0x0000000000ac59f7;
_ZTSN2nn2fs4save16IExclusiveObjectE = __sdk_start + 0x0000000000ac5c53;
_ZN7android8Composer7setCropERKNS_2spINS_21SurfaceComposerClientEEERKNS1_INS_7IBinderEEERKNS_4RectE = __sdk_start + 0x0000000000189708;
_ZN2nn2sf13InterfaceInfoINS_5audio6detail14IAudioRendererEE4_tABINS5_5_tO2NINS2_6server24AudioRendererManagerImpl17AudioRendererImplEE4typeES4_E4type17_nn_sf_sync_StartEv = __sdk_start + 0x000000000020d540;
_ZN2nn4edid6detail25ModeExtensionBlockVisitorEPKhmPv = __sdk_start + 0x0000000000013530;
_ZN2nn2sf4cmif6client6detail13CmifProxyImplINS_2am7service22IAppletCommonFunctionsENS2_19CmifDomainProxyKindINS0_4hipc6client38Hipc2ClientSessionManagedProxyKindBaseINSA_18Hipc2ProxyKindBaseILNS9_6detail11MessageTypeE6EEEEEEENS0_30MemoryResourceAllocationPolicyES7_NS3_19ProcessModifierImplINS2_21DefaultProxyFilterTagEEEE38_nn_sf_sync_SetCpuBoostRequestPriorityEi = __sdk_start + 0x00000000001bde4c;
_ZN2nn2os19AllocateMemoryPagesEmm = __sdk_start + 0x0000000000133070;
_ZN22nerd_gillette_internal14math_constantsIfE2PIE = __sdk_start + 0x0000000000b53c18;
_ZTSN2nn7account19IAccountServiceBaseE = __sdk_start + 0x0000000000ad5851;
_ZN2nn5audio6server23SplitterDestinationData6UpdateEPKNS0_23SplitterDestinationData11InParameterE = __sdk_start + 0x000000000021d128;
_ZN2nn2sf4cmif6client6detail13CmifProxyImplINS_7friends6detail3ipc14IFriendServiceENS2_19CmifDomainProxyKindINS0_4hipc6client38Hipc2ClientSessionManagedProxyKindBaseINSB_18Hipc2ProxyKindBaseILNSA_6detail11MessageTypeE6EEEEEEENS0_30MemoryResourceAllocationPolicyES8_NS3_19ProcessModifierImplINS2_21DefaultProxyFilterTagEEEE45_nn_sf_sync_GetFacedFriendRequestProfileImageENS0_3OutIivEERKNS_7account3UidENSQ_23NetworkServiceAccountIdERKNS0_9OutBufferE = __sdk_start + 0x0000000000347210;
_ZN2nn2sf4hipc6client24Hipc2ClientCoreProcessorILNS1_6detail11MessageTypeE6ENS0_4cmif6detail14CoreMethodInfoINSt3__15tupleIJNS7_17InRawArgumentInfoILm8ELm8ELl8EEENSB_ILm1ELm1ELl0EEEEEELm16ELm0ELb0EEESE_E7ProcessEPNS2_26Hipc2ClientProxyBaseObjectENS6_6client23InRawClientArgumentTypeILm8ELm8EvEENSK_ILm1ELm1EvEEj = __sdk_start + 0x00000000003a2d00;
_ZN2nn4lmem6detail16DestroyFrameHeapEPNS1_8HeapHeadE = __sdk_start + 0x0000000000102800;
nnosSendMessageQueue = __sdk_start + 0x00000000001301f0;
decimating2Ch32TapFilter = __sdk_start + 0x000000000020a540;
_ZN2nn3mii6detail25CalculateSizeAndAlignmentD1Ev = __sdk_start + 0x0000000000364e20;
NvOsThreadSetName = __sdk_start + 0x00000000003f0630;
_ZN2nn6socket6detail6SocketEiii = __sdk_start + 0x0000000000150bd0;
_ZTSN2nn2sf4cmif6client6detail9CmifProxyINS_2am7service22ILibraryAppletAccessorENS2_19CmifDomainProxyKindINS0_4hipc6client38Hipc2ClientSessionManagedProxyKindBaseINSA_18Hipc2ProxyKindBaseILNS9_6detail11MessageTypeE6EEEEEEENS0_30MemoryResourceAllocationPolicyENS3_19ProcessModifierImplINS2_21DefaultProxyFilterTagEEEvEE = __sdk_start + 0x0000000000ae2218;
_ZTVN2nn5audio6server10EffectInfoILNS0_10EffectTypeE9ENS0_19CompressorParameterEEE = __sdk_start + 0x0000000000d055d0;
_ZN2nn3err9ShowErrorENS_6ResultE = __sdk_start + 0x00000000002fba30;
_ZN2nn3err15ShowErrorRecordENS0_9ErrorCodeENS_4time9PosixTimeE = __sdk_start + 0x00000000002fc120;
_ZN2nn4nifm23TemporaryNetworkProfile6UpdateERKNS0_18NetworkProfileDataE = __sdk_start + 0x000000000038eed0;
_ZN2nn2vi12CloseDisplayEPNS0_7DisplayE = __sdk_start + 0x00000000003dd090;
_ZN2nn2sf4cmif6client6detail13CmifProxyImplINS_3hid10IHidServerENS0_4hipc6client18Hipc2ProxyKindBaseILNS7_6detail11MessageTypeE6EEENS0_30MemoryResourceAllocationPolicyES6_NS3_19ProcessModifierImplINS2_21DefaultProxyFilterTagEEEE42_nn_sf_sync_SetNpadCaptureButtonAssignmentENS_6applet20AppletResourceUserIdENS_4util10BitFlagSetILi32ENS5_12NpadStyleTagEEENSL_ILi64ENS5_10NpadButtonEEE = __sdk_start + 0x00000000004aec90;
_ZN2nn2sf4cmif6client6detail13CmifProxyImplINS_3hid15IHidDebugServerENS0_4hipc6client18Hipc2ProxyKindBaseILNS7_6detail11MessageTypeE6EEENS0_30MemoryResourceAllocationPolicyES6_NS3_19ProcessModifierImplINS2_21DefaultProxyFilterTagEEEE30_nn_sf_sync_GetOperationResultENS5_6system11UniquePadIdE = __sdk_start + 0x00000000004b2fa4;
_ZNKSt3__112basic_stringIcNS_11char_traitsIcEENS_9allocatorIcEEE4copyEPcmm = __sdk_start + 0x00000000004fff9c;
_ZTINSt3__17codecvtIDsc11__mbstate_tEE = __sdk_start + 0x0000000000d23518;
__runlock = __sdk_start + 0x00000000005812d0;
_ZN2nn2fs16IsSdCardInsertedEv = __sdk_start + 0x00000000000e3e60;
_ZN2nn5swkbd6detail18InlineKeyboardImpl23SetDecidedEnterCallbackEPFvPKNS0_15DecidedEnterArgEE = __sdk_start + 0x00000000003cc598;
_ZN2nn2sf4hipc6server2v16detail29HipcAllInOneServerManagerBaseC2EPNSt3__115aligned_storageILm48ELm8EE4typeEi = __sdk_start + 0x00000000001404cc;
_ZN2nn4util15FileInputStream4ReadEPmPvm = __sdk_start + 0x0000000000160c38;
_ZN2nn2sf4hipc6client24Hipc2ClientCoreProcessorILNS1_6detail11MessageTypeE6ENS0_4cmif6detail14CoreMethodInfoINSt3__15tupleIJNS7_18BufferArgumentInfoILi0ELi26ELm258EEENS7_17InRawArgumentInfoILm4ELm4ELl0EEEEEELm4ELm0ELb0EEESF_E7ProcessEPNS2_26Hipc2ClientProxyBaseObjectENS6_6client24BufferClientArgumentTypeENSK_23InRawClientArgumentTypeILm4ELm4EvEEj = __sdk_start + 0x0000000000240a94;
_ZN2nn8settings6detail22GetHomeMenuSchemeModelEPj = __sdk_start + 0x00000000003b7010;
_ZTVN2nn4util6detail19FileInputStreamImplE = __sdk_start + 0x0000000000cec300;
_ZN7android6Parcel8growDataEm = __sdk_start + 0x00000000001684cc;
_ZN2nn5audio6server16LightLimiterInfo6UpdateEPNS0_6common17BehaviorParameter9ErrorInfoEPKNS0_18EffectInfoVersion111InParameterERNS1_10PoolMapperE = __sdk_start + 0x000000000021a738;
_ZN2nn2sf4cmif6client6detail36GetClientProcessorImplWithObjectBaseINS2_19CmifDomainProxyKindINS0_4hipc6client38Hipc2ClientSessionManagedProxyKindBaseINS7_18Hipc2ProxyKindBaseILNS6_6detail11MessageTypeE6EEEEEEENS3_19ProcessModifierImplINS2_21DefaultProxyFilterTagEEEE14ObjectAssignerINS0_30MemoryResourceAllocationPolicyENS_14MemoryResourceEE14AllocateObjectINS_2lm7ILoggerEEEvi = __sdk_start + 0x00000000003620f4;
_ZN2nn4diag6detail17MemoryBlockParserC2Ev = __sdk_start + 0x0000000000097994;
_ZN2nn3hid41IsFirmwareUpdateAvailableForSixAxisSensorERKNS0_19SixAxisSensorHandleE = __sdk_start + 0x000000000049e190;
_ZN2nn2fs30SaveDataTransferSizeCalculator23QuerySaveDataExportSizeEPlRKNS0_12SaveDataInfoE = __sdk_start + 0x00000000000f3eec;
_ZNSt3__114collate_bynameIwEC2ERKNS_12basic_stringIcNS_11char_traitsIcEENS_9allocatorIcEEEEm = __sdk_start + 0x000000000053c710;
_ZN2nn5async6detail25CancellationTokenAccessor18UnregisterObserverERKNS0_17CancellationTokenEPNS0_20CancellationObserverE = __sdk_start + 0x0000000000087840;
_ZTIN2nn2fs4save23IExclusiveDirectoryBaseE = __sdk_start + 0x0000000000ce6e70;
_ZN2nn2sf4hipc6server18Hipc2ServerMessage22BeginPreparingForReplyEPNS0_6detail14PointerAndSizeE = __sdk_start + 0x0000000000142370;
_ZN2nn2sf4cmif6client6detail13CmifProxyImplINS_4pctl6detail3ipc23IParentalControlServiceENS2_19CmifDomainProxyKindINS0_4hipc6client38Hipc2ClientSessionManagedProxyKindBaseINSB_18Hipc2ProxyKindBaseILNSA_6detail11MessageTypeE6EEEEEEENS0_30MemoryResourceAllocationPolicyES8_NS3_19ProcessModifierImplINS2_21DefaultProxyFilterTagEEEE46_nn_sf_sync_ConfirmLaunchApplicationPermissionENS_3ncm13ApplicationIdERKNS0_7InArrayIaEEb = __sdk_start + 0x000000000039f300;
_ZN2nn8settings6detail25GetAmiiboEcdsaCertificateEPNS0_7factory22AmiiboEcdsaCertificateE = __sdk_start + 0x00000000003b0b20;
_ZN2nn8settings6detail18GetAllowedSslHostsEPiPNS0_6system14AllowedSslHostEm = __sdk_start + 0x00000000003bf3e0;
_ZTVN2nn2sf6detail38ObjectImplFactoryWithStatefulAllocatorINS0_4cmif6client6detail9CmifProxyINS_7dp2hdmi6detail18IDp2hdmiControllerENS0_4hipc6client18Hipc2ProxyKindBaseILNSA_6detail11MessageTypeE6EEENS0_30MemoryResourceAllocationPolicyENS5_19ProcessModifierImplINS4_21DefaultProxyFilterTagEEEvEESG_E6ObjectE = __sdk_start + 0x0000000000d151f8;
NvOsLibraryUnloadEx = __sdk_start + 0x00000000003f2aa0;
_ZN2nn2fs24HierarchicalRomFileTable8FindOpenEPNS1_12FindPositionEj = __sdk_start + 0x00000000000ec5ac;
_ZN2nn2sf6detail38ObjectImplFactoryWithStatefulAllocatorINS0_4cmif6client6detail9CmifProxyINS_3ssl2sf11ISslContextENS4_19CmifDomainProxyKindINS0_4hipc6client38Hipc2ClientSessionManagedProxyKindBaseINSC_18Hipc2ProxyKindBaseILNSB_6detail11MessageTypeE6EEEEEEENS0_24StatefulAllocationPolicyINS0_16ExpHeapAllocatorEEENS5_19ProcessModifierImplINS4_21DefaultProxyFilterTagEEEvEESM_E6Object7ReleaseEv = __sdk_start + 0x00000000003c599c;
fabs = __sdk_start + 0x00000000005bba60;
_ZN2nn4diag21UnregisterLogObserverEPNS0_17LogObserverHolderE = __sdk_start + 0x0000000000096550;
_ZN2nn2sf4cmif6client6detail36GetClientProcessorImplWithObjectBaseINS2_19CmifDomainProxyKindINS0_4hipc6client38Hipc2ClientSessionManagedProxyKindBaseINS7_18Hipc2ProxyKindBaseILNS6_6detail11MessageTypeE6EEEEEEENS3_19ProcessModifierImplINS2_21DefaultProxyFilterTagEEEE14ObjectAssignerINS0_30MemoryResourceAllocationPolicyENS_14MemoryResourceEE14AllocateObjectIN3nns9hosbinder16IHOSBinderDriverEEEvi = __sdk_start + 0x00000000001c39dc;
_ZN2nn5srepo6Struct5ClearEv = __sdk_start + 0x00000000003ab2f8;
_ZN2nn5audio6server16BiquadFilterInfo6UpdateEPNS0_6common17BehaviorParameter9ErrorInfoEPKNS0_18EffectInfoVersion211InParameterERNS1_10PoolMapperE = __sdk_start + 0x000000000021a6d8;
_ZN2nn4nifm23TemporaryNetworkProfile9GetHandleEv = __sdk_start + 0x000000000038eed4;
NvDdkVicGetSurfaceInfo = __sdk_start + 0x000000000041e740;
_ZN11PulseSignal32DetectPeaksAndUpdatePulseMeasureEv = __sdk_start + 0x00000000004d8450;
_ZTVNSt3__15ctypeIwEE = __sdk_start + 0x0000000000d23340;
__freadptr = __sdk_start + 0x00000000005a7c40;
_ZN2nn5audio6server11InfoUpdater11UpdateMixesERNS1_10MixContextEiRKNS1_13EffectContextERKNS1_15SplitterContextE = __sdk_start + 0x0000000000217740;
_ZN2nn2sf13InterfaceInfoINS_5audio6detail21IAudioRendererManagerEE4_tABINS5_5_tO2NINS2_6server24AudioRendererManagerImplEE4typeES4_E4type33_nn_sf_sync_GetAudioDeviceServiceENS0_3OutINS0_13SharedPointerINS3_12IAudioDeviceEEEvEENS_6applet20AppletResourceUserIdE = __sdk_start + 0x0000000000220b44;
_ZN2nn2ec24GetShopResultFromStorageERKNS_6applet13StorageHandleE = __sdk_start + 0x00000000002f3f30;
_ZN2nn3mii6detail12StoreDataRaw11SetNoseTypeEi = __sdk_start + 0x000000000036c820;
NvRmSurfaceWrite = __sdk_start + 0x00000000003faf50;
_ZN2nn3web19ShowYouTubeVideoArgC2EPKc = __sdk_start + 0x00000000004e3fe0;
_ZN2nn2fs3dbm21FileSystemControlArea18ReadAllocationInfoEPjj = __sdk_start + 0x000000000009dc38;
_ZN2nn2sf4cmif6client6detail13CmifProxyImplINS_4bcat3ipc28IDeliveryCacheStorageServiceENS2_19CmifDomainProxyKindINS0_4hipc6client38Hipc2ClientSessionManagedProxyKindBaseINSA_18Hipc2ProxyKindBaseILNS9_6detail11MessageTypeE6EEEEEEENS0_30MemoryResourceAllocationPolicyES7_NS3_19ProcessModifierImplINS2_21DefaultProxyFilterTagEEEE43_nn_sf_sync_EnumerateDeliveryCacheDirectoryENS0_3OutIivEERKNS0_8OutArrayINS5_13DirectoryNameEEE = __sdk_start + 0x0000000000238d28;
_ZN2nn8settings6system27GetBluetoothDevicesSettingsEPNS1_24BluetoothDevicesSettingsEi = __sdk_start + 0x00000000003ad320;
_ZThn16_N2nn2sf4cmif6client6detail13CmifProxyImplINS_5visrv2sf26IApplicationDisplayServiceENS0_4hipc6client18Hipc2ProxyKindBaseILNS8_6detail11MessageTypeE6EEENS0_30MemoryResourceAllocationPolicyES7_NS3_19ProcessModifierImplINS2_21DefaultProxyFilterTagEEEE17GetCmifBaseObjectEv = __sdk_start + 0x00000000003d7358;
_ZTVN10__cxxabiv121__vmi_class_type_infoE = __sdk_start + 0x0000000000d297b8;
_ZN2nn5swkbd6detail18InlineKeyboardImpl15SetCustomizeDicEPKvmRKNS0_16CustomizeDicInfoE = __sdk_start + 0x00000000003cb078;
_ZN2nn6capsrv37DeleteAlbumContentsFileForApplicationERKNS0_21ApplicationAlbumEntryEh = __sdk_start + 0x000000000024b680;
_ZN2nn2sf4cmif6client6detail13CmifProxyImplINS_8settings21ISystemSettingsServerENS0_4hipc6client18Hipc2ProxyKindBaseILNS7_6detail11MessageTypeE6EEENS0_30MemoryResourceAllocationPolicyES6_NS3_19ProcessModifierImplINS2_21DefaultProxyFilterTagEEEE17GetCmifBaseObjectEv = __sdk_start + 0x00000000003bbfdc;
_ZN11PulseSignalC2ERK17PulseSignalConfigRN22nerd_gillette_internal30ContiguousStorageContainerBaseIfLb1EEERNS4_IjLb1EEES8_S6_S6_S6_ = __sdk_start + 0x00000000004d7030;
_ZTINSt3__17codecvtIDic11__mbstate_tEE = __sdk_start + 0x0000000000d23648;
_ZTIN2nn5fssrv2sf14IEventNotifierE = __sdk_start + 0x0000000000ce9170;
_ZN2nn2sf4cmif6client6detail13CmifProxyImplINS_5codec6detail27IHardwareOpusDecoderManagerENS2_19CmifDomainProxyKindINS0_4hipc6client38Hipc2ClientSessionManagedProxyKindBaseINSA_18Hipc2ProxyKindBaseILNS9_6detail11MessageTypeE6EEEEEEENS0_30MemoryResourceAllocationPolicyES7_NS3_19ProcessModifierImplINS2_21DefaultProxyFilterTagEEEE31_nn_sf_sync_GetWorkBufferSizeExENS0_3OutIivEERKNS6_38HardwareOpusDecoderParameterInternalExE = __sdk_start + 0x0000000000297924;
get_bitmap = __sdk_start + 0x00000000003122e0;
_ZN2nn2sf4cmif6client6detail13CmifProxyImplINS_7friends6detail3ipc14IFriendServiceENS2_19CmifDomainProxyKindINS0_4hipc6client38Hipc2ClientSessionManagedProxyKindBaseINSB_18Hipc2ProxyKindBaseILNSA_6detail11MessageTypeE6EEEEEEENS0_30MemoryResourceAllocationPolicyES8_NS3_19ProcessModifierImplINS2_21DefaultProxyFilterTagEEEE36_nn_sf_sync_GetNintendoNetworkIdInfoENS0_3OutINS5_25NintendoNetworkIdUserInfoEvEENSO_IivEERKNS0_8OutArrayINS6_27NintendoNetworkIdFriendImplEEERKNS_7account3UidEi = __sdk_start + 0x0000000000346f60;
_ZN2nn4htcs6detail25virtual_socket_collection5FcntlEiiiRi = __sdk_start + 0x000000000035cb30;
_ZNK2nn4olsc6detail12ObjectHolder17GetForApplicationEv = __sdk_start + 0x000000000039a374;
_ZN2nn8settings6detail23GetOverlayDispProgramIdEPNS_3ncm9ProgramIdE = __sdk_start + 0x00000000003b2180;
hdcp_event_state_transit = __sdk_start + 0x00000000003e8270;
_ZN7android12ConsumerBase13abandonLockedEv = __sdk_start + 0x000000000017be90;
_ZNK2nn3mii13AppletManager22GetValidUuidArrayCountEv = __sdk_start + 0x000000000037c8ec;
_ZN2nn2sf4cmif6client6detail13CmifProxyImplINS_8settings22IFactorySettingsServerENS0_4hipc6client18Hipc2ProxyKindBaseILNS7_6detail11MessageTypeE6EEENS0_30MemoryResourceAllocationPolicyES6_NS3_19ProcessModifierImplINS2_21DefaultProxyFilterTagEEEE24_nn_sf_sync_GetAmiiboKeyENS0_3OutINS5_7factory9AmiiboKeyEvEE = __sdk_start + 0x00000000003b3ee8;
nndetailImageJpeg_jinit_c_main_controller = __sdk_start + 0x000000000001c630;
_ZN2nn2fs3dbm8PathTool30ConvertDirectoryNameToFileNameEPNS1_8FileNameEPKNS1_13DirectoryNameE = __sdk_start + 0x000000000009d078;
_ZTIN2nn7account6detail9INotifierE = __sdk_start + 0x0000000000cf9be0;
_ZN2nn5audio14AddI3dl2ReverbEPNS0_19AudioRendererConfigEPNS0_15I3dl2ReverbTypeEPvmPNS0_10SubMixTypeEi = __sdk_start + 0x00000000001d40b0;
nnaudiodetail_ne10_fft_c2c_1d_int16_neon = __sdk_start + 0x0000000000204a40;
_ZN2nn8settings6detail10SetThemeIdERKNS0_6system7ThemeIdEi = __sdk_start + 0x00000000003baca0;
__ashlti3 = __sdk_start + 0x00000000005727a0;
pthread_attr_setinheritsched = __sdk_start + 0x000000000013af70;
silk_pitch_contour_10_ms_iCDF = __sdk_start + 0x0000000000afeb86;
_ZN2nn2ec6detail23ShopServiceAccessServer5Proxy21CreateServerInterfaceERKNS_2sf13SharedPointerINS_3nim6detail33IShopServiceAccessServerInterfaceEEEPvm = __sdk_start + 0x00000000002f7c84;
_ZN2nn7friends6detail13AsyncFunctionIJPNS1_3ipc14IFriendServiceEPNS1_11ProfileImplENS_7account3UidENS1_4util10FixedArrayINS8_23NetworkServiceAccountIdELm100EEEEE8CallImplEv = __sdk_start + 0x000000000034449c;
_ZNK2nn3mii21ParamCharInfoAccessor11GetNoseTypeEv = __sdk_start + 0x0000000000364644;
_ZN2nn3mii6detail15DefaultMiiTableE = __sdk_start + 0x0000000000b214c8;
_ZN2nn8settings6system13GetLdnChannelEv = __sdk_start + 0x00000000003aed40;
_ZNKSt3__17codecvtIDiDu11__mbstate_tE11do_encodingEv = __sdk_start + 0x000000000054055c;
nnmem_nlib_strchr_simd = __sdk_start + 0x0000000000119f80;
_ZN2nn2sf4hipc6client24Hipc2ClientCoreProcessorILNS1_6detail11MessageTypeE6ENS0_4cmif6detail14CoreMethodInfoINSt3__15tupleIJNS7_18OutRawArgumentInfoILm4ELm4ELl0EEENS7_18BufferArgumentInfoILi0ELi6ELm0EEENSD_ILi1ELi5ELm0EEENS7_17InRawArgumentInfoILm4ELm4ELl0EEENSG_ILm20ELm4ELl4EEEEEELm24ELm4ELb0EEESJ_E7ProcessEPNS2_26Hipc2ClientProxyBaseObjectENS6_6client24OutRawClientArgumentTypeILm4ELm4EEENSO_24BufferClientArgumentTypeESR_NSO_23InRawClientArgumentTypeILm4ELm4EvEENSS_ILm20ELm4EvEEj = __sdk_start + 0x0000000000386e7c;
_ZN2nn3hid13GetMouseStateEPNS0_10MouseStateE = __sdk_start + 0x000000000049c210;
nncodecLibopus_celt_encoder_init = __sdk_start + 0x0000000000257110;
unload_cff = __sdk_start + 0x00000000003159b0;
_ZN2nn2sf13InterfaceInfoINS_5audio6detail12IAudioDeviceEE4_tABINS5_5_tO2NINS2_6server24AudioRendererManagerImpl15AudioDeviceImplEE4typeES4_E4type39_nn_sf_sync_QueryAudioDeviceSystemEventENS0_3OutINS0_12NativeHandleEvEE = __sdk_start + 0x000000000020d820;
nvdcQueryDisplays = __sdk_start + 0x00000000003e5140;
_ZNK2nn3hid6server8RingLifoINS0_16TouchScreenStateILm16EEELi16ENS1_29TouchScreenStateAtomicStorageEE8ReadImplINS3_ILm8EEEEEiPT_i = __sdk_start + 0x0000000000499b10;
_ZN2nn5async6detail21IsDebugLoggingEnabledENS1_14DebugComponentE = __sdk_start + 0x0000000000087a40;
_ZTVN2nn2sf6detail38ObjectImplFactoryWithStatefulAllocatorINS0_4cmif6client6detail9CmifProxyINS_2am7service21ILibraryAppletCreatorENS4_19CmifDomainProxyKindINS0_4hipc6client38Hipc2ClientSessionManagedProxyKindBaseINSC_18Hipc2ProxyKindBaseILNSB_6detail11MessageTypeE6EEEEEEENS0_30MemoryResourceAllocationPolicyENS5_19ProcessModifierImplINS4_21DefaultProxyFilterTagEEEvEESK_E6ObjectE = __sdk_start + 0x0000000000d004f0;
_ZN2nn3nfc12IsNfcEnabledEv = __sdk_start + 0x000000000037f160;
_ZN2nn2vi13ObjectManager25CreateValidateLayerHolderEmPNS0_13DisplayHolderE = __sdk_start + 0x00000000003e1300;
_ZNK2nn3hid23VibrationNodeConnection14GetDestinationEv = __sdk_start + 0x00000000004a003c;
_ZNKSt19bad_optional_access4whatEv = __sdk_start + 0x00000000004fa92c;
_ZTSNSt3__115time_get_bynameIcNS_19istreambuf_iteratorIcNS_11char_traitsIcEEEEEE = __sdk_start + 0x0000000000b791c3;
_ZN7android8String166insertEmPKDs = __sdk_start + 0x00000000001929b4;
_ZN2nn6applet26IsDisablingSleepSuppressedEv = __sdk_start + 0x00000000001cbc90;
_ZNK2nn3mii6detail12StoreDataRaw15GetMustacheTypeEv = __sdk_start + 0x000000000036c238;
_ZN2nn2sf4cmif6client6detail13CmifProxyImplINS_3apm8IManagerENS0_4hipc6client18Hipc2ProxyKindBaseILNS7_6detail11MessageTypeE6EEENS0_30MemoryResourceAllocationPolicyES6_NS3_19ProcessModifierImplINS2_21DefaultProxyFilterTagEEEE17GetCmifBaseObjectEv = __sdk_start + 0x00000000001c99b8;
_ZN2nn9bluetooth19GetBleScanParameterEPNS0_17GattAttributeUuidEi = __sdk_start + 0x0000000000244f00;
_ZN2nn6crypto6detail9GhashImpl17InitializeHashKeyEPNS2_5BlockE = __sdk_start + 0x0000000000011714;
nnmem_nlib_memchr_simd = __sdk_start + 0x000000000011a480;
_ZN2nn5audio6server12VoiceContext10InitializeEPPNS1_9VoiceInfoES4_PNS1_20VoiceChannelResourceEPNS0_10VoiceStateES9_i = __sdk_start + 0x000000000021f474;
_ZN2nn2sf4cmif6client6detail13CmifProxyImplINS_4pctl6detail3ipc23IParentalControlServiceENS2_19CmifDomainProxyKindINS0_4hipc6client38Hipc2ClientSessionManagedProxyKindBaseINSB_18Hipc2ProxyKindBaseILNSA_6detail11MessageTypeE6EEEEEEENS0_30MemoryResourceAllocationPolicyES8_NS3_19ProcessModifierImplINS2_21DefaultProxyFilterTagEEEE48_nn_sf_sync_ResetConfirmedStereoVisionPermissionEv = __sdk_start + 0x000000000039f528;
_ZN2nn2sf4cmif6client34CmifDomainProxyClientCoreProcessorINS0_4hipc6client38Hipc2ClientSessionManagedProxyKindBaseINS5_18Hipc2ProxyKindBaseILNS4_6detail11MessageTypeE6EEEEENS1_6detail14CoreMethodInfoINSt3__15tupleIJNSC_18OutRawArgumentInfoILm16ELm8ELl0EEENSC_17InRawArgumentInfoILm8ELm8ELl8EEENSI_ILm1ELm1ELl0EEEEEELm16ELm16ELb0EEESL_E7ProcessEPNS2_23CmifDomainClientMessageISB_E15ProxyBaseObjectENS2_24OutRawClientArgumentTypeILm16ELm8EEENS2_23InRawClientArgumentTypeILm8ELm8EvEENSU_ILm1ELm1EvEEj = __sdk_start + 0x00000000000cb724;
_ZN2nn2sf4cmif6client6detail13CmifProxyImplINS_2am7service16IGpuErrorHandlerENS2_19CmifDomainProxyKindINS0_4hipc6client38Hipc2ClientSessionManagedProxyKindBaseINSA_18Hipc2ProxyKindBaseILNS9_6detail11MessageTypeE6EEEEEEENS0_30MemoryResourceAllocationPolicyES7_NS3_19ProcessModifierImplINS2_21DefaultProxyFilterTagEEEE33_nn_sf_sync_GetManualGpuErrorInfoENS0_3OutImvEERKNS0_9OutBufferE = __sdk_start + 0x00000000001b7a68;
_ZN2nn5audio6server12BehaviorInfoC2Ev = __sdk_start + 0x0000000000218fcc;
_ZNSt3__110moneypunctIcLb1EE4intlE = __sdk_start + 0x0000000000b788a7;
_ZTSN2nn5fssrv2sf36ISaveDataTransferManagerWithDivisionE = __sdk_start + 0x0000000000ac91e3;
_ZN2nn2fs6detail22SetErrorContextHandlerEPNS1_20IErrorContextHandlerE = __sdk_start + 0x00000000000e9970;
_ZN2nn2sf6detail38ObjectImplFactoryWithStatefulAllocatorINS0_4cmif6client6detail9CmifProxyINS_12notification6server35INotificationServicesForApplicationENS4_19CmifDomainProxyKindINS0_4hipc6client38Hipc2ClientSessionManagedProxyKindBaseINSC_18Hipc2ProxyKindBaseILNSB_6detail11MessageTypeE6EEEEEEENS0_30MemoryResourceAllocationPolicyENS5_19ProcessModifierImplINS4_21DefaultProxyFilterTagEEEvEESK_E6Object12AddReferenceEv = __sdk_start + 0x000000000038f9b4;
NvOsInterruptPriorityThreadCreate = __sdk_start + 0x00000000003e9d40;
_ZNKSt3__18time_getIwNS_19istreambuf_iteratorIwNS_11char_traitsIwEEEEE13__get_12_hourERiRS4_S4_RjRKNS_5ctypeIwEE = __sdk_start + 0x0000000000529670;
_ZTVN10__cxxabiv116__enum_type_infoE = __sdk_start + 0x0000000000d296b0;
nndetailImageJpeg_jinit_c_master_control = __sdk_start + 0x00000000000200b0;
_ZN7android13GraphicBufferC1EP19ANativeWindowBufferb = __sdk_start + 0x000000000018d798;
any_used_lfnt_table_ptrs = __sdk_start + 0x000000000033e430;
_ZN2nn7friends28DeclareOpenOnlinePlaySessionERKNS_7account3UidE = __sdk_start + 0x0000000000343330;
__floattisf = __sdk_start + 0x00000000005746a0;
_ZN2nn2fs44OpenSaveDataTransferProhibiterForCloudBackUpEPNSt3__110unique_ptrINS0_40SaveDataTransferProhibiterForCloudBackUpENS1_14default_deleteIS3_EEEENS_3ncm13ApplicationIdE = __sdk_start + 0x00000000000f7b30;
_ZN2nn3mii6detail16Ver3StoreDataRaw11SetPadding8Ei = __sdk_start + 0x000000000037643c;
_ZNSt3__113basic_istreamIcNS_11char_traitsIcEEE3getERNS_15basic_streambufIcS2_EE = __sdk_start + 0x000000000050d080;
_ZN2nn2fs21UnregisterExternalKeyERKNS0_8RightsIdE = __sdk_start + 0x00000000000d8420;
_ZTVN2nn5audio6server10NullAspectE = __sdk_start + 0x0000000000d04d00;
_ZN2nn2sf4hipc6client24Hipc2ClientCoreProcessorILNS1_6detail11MessageTypeE6ENS0_4cmif6detail14CoreMethodInfoINSt3__15tupleIJNS7_18OutRawArgumentInfoILm8ELm8ELl0EEENS7_18BufferArgumentInfoILi2ELi6ELm0EEENSD_ILi0ELi25ELm72EEENSD_ILi1ELi25ELm72EEEEEELm0ELm8ELb0EEESH_E7ProcessEPNS2_26Hipc2ClientProxyBaseObjectENS6_6client24OutRawClientArgumentTypeILm8ELm8EEENSM_24BufferClientArgumentTypeESP_SP_j = __sdk_start + 0x00000000003bcd7c;
_ZN2nn2fs6detail30FileSystemServiceObjectAdapter15DoOpenDirectoryEPNSt3__110unique_ptrINS0_3fsa10IDirectoryENS3_14default_deleteIS6_EEEERKNS0_4PathENS0_17OpenDirectoryModeE = __sdk_start + 0x00000000000cf5b0;
_ZN2nn3hid38StoreSixAxisSensorCalibrationParameterERKNS0_19SixAxisSensorHandleERKNS0_33SixAxisSensorCalibrationParameterE = __sdk_start + 0x000000000049e1d0;
_ZN2nn3ldn38SetBluetoothAudioDeviceConnectableModeENS0_35BluetoothAudioDeviceConnectableModeE = __sdk_start + 0x00000000004daca0;
_ZN2nn6socket9HStrErrorEi = __sdk_start + 0x0000000000147be0;
_ZNK2nn3err6detail18ContextSeriesEntry4NextEv = __sdk_start + 0x00000000002fe3e0;
_ZN2nn2sf4cmif6client6detail13CmifProxyImplINS_4nifm6detail15IGeneralServiceENS2_19CmifDomainProxyKindINS0_4hipc6client38Hipc2ClientSessionManagedProxyKindBaseINSA_18Hipc2ProxyKindBaseILNS9_6detail11MessageTypeE6EEEEEEENS0_30MemoryResourceAllocationPolicyES7_NS3_19ProcessModifierImplINS2_21DefaultProxyFilterTagEEEE29_nn_sf_sync_SetNetworkProfileENS0_3OutINS_4util4UuidEvEERKNS6_2sf18NetworkProfileDataE = __sdk_start + 0x0000000000389018;
_ZN2nn3ssl6detail15BuiltinDataInfoD2Ev = __sdk_start + 0x00000000003c4f94;
_ZN2nn3hid18SetPalmaFrModeTypeERKNS0_21PalmaConnectionHandleERKNS0_15PalmaFrModeTypeE = __sdk_start + 0x000000000049d970;
ffs = __sdk_start + 0x00000000005a3c10;
_ZN2nn6crypto6detail8Sha3ImplILm32EED2Ev = __sdk_start + 0x000000000000a930;
nnmem_nlib_threadpool_notify = __sdk_start + 0x000000000011c870;
_ZTIN2nn2sf6detail38ObjectImplFactoryWithStatefulAllocatorINS0_4cmif6client6detail9CmifProxyINS_2am7service21IApplicationFunctionsENS4_19CmifDomainProxyKindINS0_4hipc6client38Hipc2ClientSessionManagedProxyKindBaseINSC_18Hipc2ProxyKindBaseILNSB_6detail11MessageTypeE6EEEEEEENS0_30MemoryResourceAllocationPolicyENS5_19ProcessModifierImplINS4_21DefaultProxyFilterTagEEEvEESK_E6ObjectE = __sdk_start + 0x0000000000d01be8;
_ZN2nn2sf4cmif6client6detail13CmifProxyImplINS_5visrv2sf19IManagerRootServiceENS0_4hipc6client18Hipc2ProxyKindBaseILNS8_6detail11MessageTypeE6EEENS0_30MemoryResourceAllocationPolicyES7_NS3_19ProcessModifierImplINS2_21DefaultProxyFilterTagEEEE21_nn_sf_sync_ShowFatalEv = __sdk_start + 0x00000000003dc884;
iswalnum = __sdk_start + 0x000000000059f560;
_ZN2nn2fs4save26SaveDataFileSystemCoreImpl13AcceptVisitorEPNS1_33IInternalStorageFileSystemVisitorE = __sdk_start + 0x00000000000adeec;
_ZNK2nn5album12LibraryState16IsShareAvailableEv = __sdk_start + 0x00000000001af0fc;
_ZN2nn2sf4cmif6client6detail13CmifProxyImplINS_6capsrv2sf29IScreenShotApplicationServiceENS0_4hipc6client18Hipc2ProxyKindBaseILNS8_6detail11MessageTypeE6EEENS0_30MemoryResourceAllocationPolicyES7_NS3_19ProcessModifierImplINS2_21DefaultProxyFilterTagEEEE17GetCmifBaseObjectEv = __sdk_start + 0x000000000024a7d0;
_ZN2nn2sf4cmif6client34CmifDomainProxyClientCoreProcessorINS0_4hipc6client38Hipc2ClientSessionManagedProxyKindBaseINS5_18Hipc2ProxyKindBaseILNS4_6detail11MessageTypeE6EEEEENS1_6detail14CoreMethodInfoINSt3__15tupleIJNSC_18OutRawArgumentInfoILm4ELm4ELl0EEENSC_17InRawArgumentInfoILm16ELm4ELl0EEEEEELm16ELm4ELb0EEESK_E7ProcessEPNS2_23CmifDomainClientMessageISB_E15ProxyBaseObjectENS2_24OutRawClientArgumentTypeILm4ELm4EEENS2_23InRawClientArgumentTypeILm16ELm4EvEEj = __sdk_start + 0x0000000000298d54;
_ZNSt3__113basic_istreamIwNS_11char_traitsIwEEErsERPv = __sdk_start + 0x0000000000511bd8;
_ZN2nn5async15QueuingExecutorD0Ev = __sdk_start + 0x000000000008b700;
_ZN2nn2sf4cmif6client6detail13CmifProxyImplINS_2ec23IContentsServiceManagerENS0_4hipc6client18Hipc2ProxyKindBaseILNS7_6detail11MessageTypeE6EEENS0_30MemoryResourceAllocationPolicyES6_NS3_19ProcessModifierImplINS2_21DefaultProxyFilterTagEEEE12GetProxyInfoEv = __sdk_start + 0x00000000001c82e0;
_ZN2nn3mii27CharInfoVisualParamAccessor8SetNoseYEi = __sdk_start + 0x0000000000363ae8;
_ZNK2nn3mii6detail15BufferAllocator11GetRestSizeEv = __sdk_start + 0x0000000000364e00;
_ZTIN2nn2fs3fsa25ICommonMountNameGeneratorE = __sdk_start + 0x0000000000ce6ee8;
_ZN2nn7nlibsdk4heap10CachedHeap5AllocEmm = __sdk_start + 0x0000000000126040;
_ZN2nn6socket6detail17ResolverGetOptionEPNS0_14ResolverOptionEj = __sdk_start + 0x0000000000151e60;
_ZN2nn2sf4cmif6client34CmifDomainProxyClientCoreProcessorINS0_4hipc6client38Hipc2ClientSessionManagedProxyKindBaseINS5_18Hipc2ProxyKindBaseILNS4_6detail11MessageTypeE6EEEEENS1_6detail14CoreMethodInfoINSt3__15tupleIJNSC_18OutRawArgumentInfoILm8ELm8ELl0EEENSG_ILm8ELm8ELl8EEENSC_18BufferArgumentInfoILi0ELi6ELm0EEEEEELm0ELm16ELb0EEESL_E7ProcessEPNS2_23CmifDomainClientMessageISB_E15ProxyBaseObjectENS2_24OutRawClientArgumentTypeILm8ELm8EEEST_NS2_24BufferClientArgumentTypeEj = __sdk_start + 0x00000000001ac3c0;
_ZNK2nn5audio6server14CompressorInfo13GetWorkBufferENS1_14EffectInfoBase5IndexE = __sdk_start + 0x000000000021ab2c;
NvDdkVicExecute = __sdk_start + 0x0000000000420e60;
_ZNSt3__115basic_streambufIwNS_11char_traitsIwEEED0Ev = __sdk_start + 0x0000000000510000;
_ZTVNSt3__114collate_bynameIcEE = __sdk_start + 0x0000000000d22f88;
nndetailImagePng_png_write_iTXt = __sdk_start + 0x000000000006d570;
_ZN2nn2fs4Path9NormalizeERKNS0_9PathFlagsE = __sdk_start + 0x00000000000ef55c;
_ZN2nn2os13SetThreadNameEPNS0_10ThreadTypeEPKc = __sdk_start + 0x000000000012f730;
_ZNK7android6Parcel9readFloatEv = __sdk_start + 0x000000000016aeb0;
_ZN2nn5codec21sbrdecDownSampleLoResEPhhS1_h = __sdk_start + 0x00000000002e7480;
_ZN2nn4pctl19GenerateInquiryCodeEPNS0_11InquiryCodeE = __sdk_start + 0x000000000039c280;
NvOsTimerEventCreate = __sdk_start + 0x00000000003f0990;
_ZN2nn3web22ShowOfflineHtmlPageArg21SetJsExtensionEnabledEb = __sdk_start + 0x00000000004e0cc0;
_ZN2nn3web17OfflineWebSession24TryReceiveContentMessageEPmPcm = __sdk_start + 0x00000000004e2c60;
_ZTVN2nn2os6detail34MultiWaitHolderOfInterProcessEventE = __sdk_start + 0x0000000000ceacf0;
_ZN2nn5audio6server13CommandBuffer8GenerateINS1_7command8UpsampleEJRiRPNS0_13UpsamplerInfoERKiRA6_KaSB_SB_SB_EEEPNT_3DefEjDpOT0_ = __sdk_start + 0x0000000000211c70;
nncodecLibopus_isqrt32 = __sdk_start + 0x00000000002616e0;
_ZN2nn2sf4cmif6client6detail13CmifProxyImplINS_4nifm6detail15IGeneralServiceENS2_19CmifDomainProxyKindINS0_4hipc6client38Hipc2ClientSessionManagedProxyKindBaseINSA_18Hipc2ProxyKindBaseILNS9_6detail11MessageTypeE6EEEEEEENS0_30MemoryResourceAllocationPolicyES7_NS3_19ProcessModifierImplINS2_21DefaultProxyFilterTagEEEE49_nn_sf_sync_GetTelemetrySystemEventReadableHandleENS0_3OutINS0_12NativeHandleEvEE = __sdk_start + 0x0000000000389240;
_ZN2nn8settings6detail13GetTvSettingsEPNS0_6system10TvSettingsE = __sdk_start + 0x00000000003bec60;
_ZNSt3__115basic_streambufIwNS_11char_traitsIwEEE10pubseekoffExNS_8ios_base7seekdirEj = __sdk_start + 0x0000000000510088;
vfscanf = __sdk_start + 0x00000000005804f0;
_ZN2nn2sf4cmif6client6detail13CmifProxyImplINS_2am7service15IDebugFunctionsENS2_19CmifDomainProxyKindINS0_4hipc6client38Hipc2ClientSessionManagedProxyKindBaseINSA_18Hipc2ProxyKindBaseILNS9_6detail11MessageTypeE6EEEEEEENS0_30MemoryResourceAllocationPolicyES7_NS3_19ProcessModifierImplINS2_21DefaultProxyFilterTagEEEE38_nn_sf_sync_CancelCpuBoostModeForDebugEv = __sdk_start + 0x00000000001ba5bc;
_ZN2nn5audio22SetLightLimiterEnabledEPNS0_16LightLimiterTypeEb = __sdk_start + 0x00000000001d5e30;
_ZN7android10BufferItemD1Ev = __sdk_start + 0x00000000001734e0;
_ZN2nn8settings6system23GetDataDeletionSettingsEPNS1_20DataDeletionSettingsE = __sdk_start + 0x00000000003add10;
_ZNSt3__113basic_ostreamIwNS_11char_traitsIwEEE6sentryD2Ev = __sdk_start + 0x000000000051326c;
nnmem_nlib_strrchr_simd = __sdk_start + 0x000000000011a2e0;
_ZN2nn6socket8resolver10serializer13DNSSerializer8ToBufferINS0_6InAddrEEElPhmRKT_ = __sdk_start + 0x000000000014a4c0;
_ZN2nn2sf4cmif6client34CmifDomainProxyClientCoreProcessorINS0_4hipc6client38Hipc2ClientSessionManagedProxyKindBaseINS5_18Hipc2ProxyKindBaseILNS4_6detail11MessageTypeE6EEEEENS1_6detail14CoreMethodInfoINSt3__15tupleIJNSC_18OutRawArgumentInfoILm8ELm8ELl0EEENSC_18BufferArgumentInfoILi0ELi26ELm592EEENSI_ILi1ELi6ELm0EEEEEELm0ELm8ELb0EEESL_E7ProcessEPNS2_23CmifDomainClientMessageISB_E15ProxyBaseObjectENS2_24OutRawClientArgumentTypeILm8ELm8EEENS2_24BufferClientArgumentTypeESU_j = __sdk_start + 0x00000000001a66c0;
_ZN2nn2sf4cmif6client6detail13CmifProxyImplINS_2am7service22IAppletCommonFunctionsENS2_19CmifDomainProxyKindINS0_4hipc6client38Hipc2ClientSessionManagedProxyKindBaseINSA_18Hipc2ProxyKindBaseILNS9_6detail11MessageTypeE6EEEEEEENS0_30MemoryResourceAllocationPolicyES7_NS3_19ProcessModifierImplINS2_21DefaultProxyFilterTagEEEE44_nn_sf_sync_IsSleepRequiredByHighTemperatureENS0_3OutIbvEE = __sdk_start + 0x00000000001bde34;
_ZN2nn2sf4hipc6client24Hipc2ClientCoreProcessorILNS1_6detail11MessageTypeE6ENS0_4cmif6detail14CoreMethodInfoINSt3__15tupleIJNS7_18OutRawArgumentInfoILm4ELm4ELl0EEENS7_18BufferArgumentInfoILi0ELi9ELm0EEENS7_17InRawArgumentInfoILm8ELm8ELl0EEEEEELm8ELm4ELb1EEESH_E7ProcessEPNS2_26Hipc2ClientProxyBaseObjectENS6_6client24OutRawClientArgumentTypeILm4ELm4EEENSM_24BufferClientArgumentTypeENSM_23InRawClientArgumentTypeILm8ELm8EvEEj = __sdk_start + 0x00000000004b0fe8;
nndetailImagePng_png_set_shift = __sdk_start + 0x0000000000067210;
_ZThn8_N2nn2fs6detail30FileSystemServiceObjectAdapter20GetMultiCommitTargetEv = __sdk_start + 0x00000000000cf900;
_ZN7android18GraphicBufferAllocC2Ev = __sdk_start + 0x000000000017c650;
_ZTSN2nn2sf4cmif6client6detail9CmifProxyINS_2am7service20IApplicationAccessorENS2_19CmifDomainProxyKindINS0_4hipc6client38Hipc2ClientSessionManagedProxyKindBaseINSA_18Hipc2ProxyKindBaseILNS9_6detail11MessageTypeE6EEEEEEENS0_30MemoryResourceAllocationPolicyENS3_19ProcessModifierImplINS2_21DefaultProxyFilterTagEEEvEE = __sdk_start + 0x0000000000ae3c33;
_ZNK2nn3mii6detail16Ver3StoreDataRaw16GetBirthPlatformEv = __sdk_start + 0x000000000036db0c;
_ZN2nn2sf4cmif6client6detail13CmifProxyImplINS_4pctl6detail3ipc23IParentalControlServiceENS2_19CmifDomainProxyKindINS0_4hipc6client38Hipc2ClientSessionManagedProxyKindBaseINSB_18Hipc2ProxyKindBaseILNSA_6detail11MessageTypeE6EEEEEEENS0_30MemoryResourceAllocationPolicyES8_NS3_19ProcessModifierImplINS2_21DefaultProxyFilterTagEEEE35_nn_sf_sync_DisableFeaturesForResetEv = __sdk_start + 0x000000000039f4d0;
_ZN2nn6hidbus6detail19PollingDataAccessorINS1_36JoyConDisableSixAxisSensorLifoFormatELi10EE14GetPollingDataEPiPS3_i = __sdk_start + 0x00000000004bb270;
_ZNSt3__127__insertion_sort_incompleteIRNS_6__lessIccEEPcEEbT0_S5_T_ = __sdk_start + 0x00000000004ec060;
_ZN2nn2fs6detail20CreateSystemSaveDataENS0_15SaveDataSpaceIdEmNS0_6UserIdEmlljNS0_18SaveDataFormatTypeE = __sdk_start + 0x00000000000ddea0;
_ZN2nn2os6detail30InterProcessEventImplByHorizon6CreateEPjS3_ = __sdk_start + 0x00000000001370c8;
_ZThn8_N2nn2sf4cmif6server23CmifServerDomainManager6Domain9GetObjectENS1_18CmifDomainObjectIdE = __sdk_start + 0x000000000013eea0;
_ZN2nn3btm4user25StopBleScanForSmartDeviceEv = __sdk_start + 0x0000000000247610;
_ZN2nn2sf4cmif6client6detail13CmifProxyImplINS_8settings21ISystemSettingsServerENS0_4hipc6client18Hipc2ProxyKindBaseILNS7_6detail11MessageTypeE6EEENS0_30MemoryResourceAllocationPolicyES6_NS3_19ProcessModifierImplINS2_21DefaultProxyFilterTagEEEE31_nn_sf_sync_GetFirmwareVersion2ENS0_3OutINS5_6system15FirmwareVersionEvEE = __sdk_start + 0x00000000003bb3a8;
nndetailImageJpeg_jpeg_idct_3x3 = __sdk_start + 0x000000000003c630;
strtoul = __sdk_start + 0x00000000005aca70;
_ZN2nn2fs6detail22PathBasedFileDataCache20SetCalculateHashFuncEPFNS_6ResultEPNS1_12FilePathHashEPKcE = __sdk_start + 0x00000000000fc9cc;
nnmem_nlib_mkdir = __sdk_start + 0x00000000001196e0;
_celt_lpc = __sdk_start + 0x000000000025e140;
_ZN2nn3hid23VibrationNodeConnection13SetModulationERKNS0_19VibrationModulationE = __sdk_start + 0x000000000049fb34;
nnosWaitTimerEvent = __sdk_start + 0x000000000012ff10;
_ZN2nn2sf4hipc6server6detail29HipcAllInOneServerManagerBase16ReceiveAsSessionEPNS_2os19MultiWaitHolderTypeE = __sdk_start + 0x0000000000144324;
_ZN2nn2sf4cmif6client6detail13CmifProxyImplINS_2am7service15ISelfControllerENS2_19CmifDomainProxyKindINS0_4hipc6client38Hipc2ClientSessionManagedProxyKindBaseINSA_18Hipc2ProxyKindBaseILNS9_6detail11MessageTypeE6EEEEEEENS0_30MemoryResourceAllocationPolicyES7_NS3_19ProcessModifierImplINS2_21DefaultProxyFilterTagEEEE32_nn_sf_sync_SetRecordVolumeMutedEb = __sdk_start + 0x00000000001b7e60;
_ZN2nn8settings7factory23GetEciDeviceCertificateEPNS1_24Rsa2048DeviceCertificateE = __sdk_start + 0x00000000003adee0;
NvRmSurfaceFree = __sdk_start + 0x00000000003fcea0;
ccosf = __sdk_start + 0x0000000000595e90;
_ZTv0_n24_N7android22ISurfaceComposerClientD0Ev = __sdk_start + 0x0000000000183678;
_ZN2nn2sf4cmif6client6detail13CmifProxyImplINS_2am7service26ILibraryAppletSelfAccessorENS2_19CmifDomainProxyKindINS0_4hipc6client38Hipc2ClientSessionManagedProxyKindBaseINSA_18Hipc2ProxyKindBaseILNS9_6detail11MessageTypeE6EEEEEEENS0_30MemoryResourceAllocationPolicyES7_NS3_19ProcessModifierImplINS2_21DefaultProxyFilterTagEEEE30_nn_sf_sync_ReportVisibleErrorENS_3err9ErrorCodeE = __sdk_start + 0x00000000001bf068;
_ZN2nn5audio33SetI3dl2ReverbReflectionDelayTimeEPNS0_15I3dl2ReverbTypeENS_8TimeSpanE = __sdk_start + 0x00000000001d4650;
_ZN2nn5codec18CConcealment_ApplyEPNS0_16CConcealmentInfoEPNS0_22CAacDecoderChannelInfoEPNS0_28CAacDecoderStaticChannelInfoEPKNS0_16SamplingRateInfoEihij = __sdk_start + 0x00000000002aa610;
load_fnt = __sdk_start + 0x000000000030c0b0;
_ZTVNSt12experimental15fundamentals_v112bad_any_castE = __sdk_start + 0x0000000000d214d0;
nndetailImageJpeg_jpeg_idct_3x6 = __sdk_start + 0x0000000000041dd0;
sem_trywait = __sdk_start + 0x000000000013a710;
ccosh = __sdk_start + 0x0000000000595eb0;
nndetailImagePng_png_image_write_to_memory = __sdk_start + 0x0000000000069290;
_ZZN2nn5prepo6detail17ShimLibraryGlobal11GetInstanceEvE10s_Instance = __sdk_start + 0x0000000000dc70d0;
NvOsShowError = __sdk_start + 0x00000000003ebe40;
_ZNSt3__123__cxx_atomic_notify_oneEPVKNS_17__cxx_atomic_implIlNS_22__cxx_atomic_base_implIlEEEE = __sdk_start + 0x00000000004f5be0;
_ZN2nn7account25UserRegistrationProcedureC2EPNS0_3nas34IOAuthProcedureForUserRegistrationE = __sdk_start + 0x00000000001a0b68;
_ZN2nn2sf4cmif6client34CmifDomainProxyClientCoreProcessorINS0_4hipc6client38Hipc2ClientSessionManagedProxyKindBaseINS5_18Hipc2ProxyKindBaseILNS4_6detail11MessageTypeE6EEEEENS1_6detail14CoreMethodInfoINSt3__15tupleIJNSC_18OutRawArgumentInfoILm8ELm4ELl0EEENSC_21OutHandleArgumentInfoILi0ELi1EEENSG_ILm4ELm4ELl8EEENSC_18BufferArgumentInfoILi0ELi6ELm0EEENSC_17InRawArgumentInfoILm16ELm8ELl0EEEEEELm16ELm12ELb0EEESP_E7ProcessEPNS2_23CmifDomainClientMessageISB_E15ProxyBaseObjectENS2_24OutRawClientArgumentTypeILm8ELm4EEENS2_27OutHandleClientArgumentTypeENSW_ILm4ELm4EEENS2_24BufferClientArgumentTypeENS2_23InRawClientArgumentTypeILm16ELm8EvEEj = __sdk_start + 0x00000000003a0eb4;
_ZN2nn2fs4save19ExclusiveFileSystemD2Ev = __sdk_start + 0x00000000000a7a40;
_ZN2nn2ec6detail13NsUidToStringEPcmNS0_5NsUidE = __sdk_start + 0x00000000002fa160;
_ZThn32_N2nn2sf4cmif6client6detail13CmifProxyImplINS_2am7service22IAppletCommonFunctionsENS2_19CmifDomainProxyKindINS0_4hipc6client38Hipc2ClientSessionManagedProxyKindBaseINSA_18Hipc2ProxyKindBaseILNS9_6detail11MessageTypeE6EEEEEEENS0_30MemoryResourceAllocationPolicyES7_NS3_19ProcessModifierImplINS2_21DefaultProxyFilterTagEEEE17GetCmifBaseObjectEv = __sdk_start + 0x00000000001bdfdc;
_ZNK2nn3mii21ParamCharInfoAccessor9GetGenderEv = __sdk_start + 0x0000000000364560;
_ZN2nn2sf4cmif6client6detail13CmifProxyImplINS_4nifm6detail15IGeneralServiceENS2_19CmifDomainProxyKindINS0_4hipc6client38Hipc2ClientSessionManagedProxyKindBaseINSA_18Hipc2ProxyKindBaseILNS9_6detail11MessageTypeE6EEEEEEENS0_30MemoryResourceAllocationPolicyES7_NS3_19ProcessModifierImplINS2_21DefaultProxyFilterTagEEEE22_nn_sf_sync_PutToSleepEv = __sdk_start + 0x00000000003891ac;
_ZN2nn4npns11CreateTokenEPNS0_17NotificationTokenERKNS_7account3UidE = __sdk_start + 0x0000000000390fb0;
_ZN2nn2vi6detail18SystemServiceProxy29FinalizeSystemServiceRootImplEv = __sdk_start + 0x00000000003e2a48;
_ZN2nn3hid13VibrationNodeD0Ev = __sdk_start + 0x000000000049f7f0;
ccosl = __sdk_start + 0x00000000005963f0;
nndetailImagePng_png_set_swap_alpha = __sdk_start + 0x0000000000067400;
_ZTSN2nn2fs3fsa25ICommonMountNameGeneratorE = __sdk_start + 0x0000000000ac5f13;
_ZN2nn2sf4cmif6client34CmifDomainProxyClientCoreProcessorINS0_4hipc6client38Hipc2ClientSessionManagedProxyKindBaseINS5_18Hipc2ProxyKindBaseILNS4_6detail11MessageTypeE6EEEEENS1_6detail14CoreMethodInfoINSt3__15tupleIJNSC_18OutRawArgumentInfoILm64ELm1ELl0EEENSC_17InRawArgumentInfoILm16ELm8ELl0EEEEEELm16ELm64ELb0EEESK_E7ProcessEPNS2_23CmifDomainClientMessageISB_E15ProxyBaseObjectENS2_24OutRawClientArgumentTypeILm64ELm1EEENS2_23InRawClientArgumentTypeILm16ELm8EvEEj = __sdk_start + 0x000000000034afa4;
_ZNK2nn3web17OfflineWebSession16NeedsWaitForExitEv = __sdk_start + 0x00000000004e2c00;
_ZNK2nn4util16BinaryFileHeader14FindFirstBlockEi = __sdk_start + 0x000000000007ce30;
_ZN2nn2fs4Path35InitializeWithReplaceForwardSlashesEPKc = __sdk_start + 0x00000000000efa14;
_ZTIN2nn2sf6detail38ObjectImplFactoryWithStatefulAllocatorINS0_4cmif6client6detail9CmifProxyINS_2am7service19IApplicationCreatorENS4_19CmifDomainProxyKindINS0_4hipc6client38Hipc2ClientSessionManagedProxyKindBaseINSC_18Hipc2ProxyKindBaseILNSB_6detail11MessageTypeE6EEEEEEENS0_30MemoryResourceAllocationPolicyENS5_19ProcessModifierImplINS4_21DefaultProxyFilterTagEEEvEESK_E6ObjectE = __sdk_start + 0x0000000000d00b18;
_ZN2nn2sf4cmif6client6detail13CmifProxyImplINS_8settings21ISystemSettingsServerENS0_4hipc6client18Hipc2ProxyKindBaseILNS7_6detail11MessageTypeE6EEENS0_30MemoryResourceAllocationPolicyES6_NS3_19ProcessModifierImplINS2_21DefaultProxyFilterTagEEEE36_nn_sf_sync_SetVibrationMasterVolumeEf = __sdk_start + 0x00000000003bb57c;
_ZNK2nn8irsensor6detail19StatusManagerHolder16GetStatusManagerEv = __sdk_start + 0x00000000004c0698;
_ZN2nn7account28NetworkServiceAccountManager49CalculateNintendoAccountAuthenticationFingerprintEPNS0_40NintendoAccountAuthenticationFingerprintE = __sdk_start + 0x000000000019e888;
_ZN2nn5audio3dsp17ApplyUniformGain4ILi15EEEvPiPKiii = __sdk_start + 0x0000000000230920;
_ZN2nn2sf4cmif6client6detail13CmifProxyImplINS_5visrv2sf22IManagerDisplayServiceENS0_4hipc6client18Hipc2ProxyKindBaseILNS8_6detail11MessageTypeE6EEENS0_30MemoryResourceAllocationPolicyES7_NS3_19ProcessModifierImplINS2_21DefaultProxyFilterTagEEEE37_nn_sf_sync_CreateWatermarkCompositorEj = __sdk_start + 0x00000000003d9668;
_ZTSN2nn2sf4cmif6client6detail9CmifProxyINS_3hid10IHidServerENS0_4hipc6client18Hipc2ProxyKindBaseILNS7_6detail11MessageTypeE6EEENS0_30MemoryResourceAllocationPolicyENS3_19ProcessModifierImplINS2_21DefaultProxyFilterTagEEEvEE = __sdk_start + 0x0000000000b522f7;
_ZN2nn6crypto12Md5Generator20Asn1ObjectIdentifierE = __sdk_start + 0x0000000000aa5f69;
_ZN2nn6socket6ListenEii = __sdk_start + 0x0000000000147530;
_ZN2nn2sf4hipc6detail25HipcMessageBufferAccessor15SetHeadPointersERKNS2_21HipcMessageHeaderInfoE = __sdk_start + 0x000000000013fe14;
_ZN2nn2sf4hipc6client24Hipc2ClientCoreProcessorILNS1_6detail11MessageTypeE6ENS0_4cmif6detail14CoreMethodInfoINSt3__15tupleIJNS7_17InRawArgumentInfoILm8ELm8ELl16EEENSB_ILm4ELm4ELl0EEENSB_ILm4ELm4ELl4EEENSB_ILm4ELm4ELl8EEENSB_ILm4ELm4ELl12EEEEEELm24ELm0ELb0EEESH_E7ProcessEPNS2_26Hipc2ClientProxyBaseObjectENS6_6client23InRawClientArgumentTypeILm8ELm8EvEENSN_ILm4ELm4EvEESP_SP_SP_j = __sdk_start + 0x00000000003d8118;
_ZTSN2nn2sf4cmif6client6detail13CmifProxyImplINS_8irsensor21IIrSensorSystemServerENS0_4hipc6client18Hipc2ProxyKindBaseILNS7_6detail11MessageTypeE6EEENS0_25StatelessAllocationPolicyINS0_22ExpHeapStaticAllocatorILm16384ENS5_6detail20IrSensorSystemServerEEEEES6_NS3_19ProcessModifierImplINS2_21DefaultProxyFilterTagEEEEE = __sdk_start + 0x0000000000b542e7;
_ZTIN2nn5audio6detail30IAudioSystemManagerForDebuggerE = __sdk_start + 0x0000000000d044e8;
_ZNSt3__115numpunct_bynameIwED2Ev = __sdk_start + 0x0000000000542794;
_ZNK2nn2os12SdkMutexType23IsLockedByCurrentThreadEv = __sdk_start + 0x000000000012e81c;
_ZN2nn2sf4hipc6client24Hipc2ClientCoreProcessorILNS1_6detail11MessageTypeE6ENS0_4cmif6detail14CoreMethodInfoINSt3__15tupleIJNS7_18OutRawArgumentInfoILm128ELm8ELl0EEENS7_17InRawArgumentInfoILm16ELm8ELl0EEEEEELm16ELm128ELb0EEESF_E7ProcessEPNS2_26Hipc2ClientProxyBaseObjectENS6_6client24OutRawClientArgumentTypeILm128ELm8EEENSK_23InRawClientArgumentTypeILm16ELm8EvEEj = __sdk_start + 0x00000000001c7ec4;
_ZN2nn8settings6system30GetExternalSteadyClockSourceIdEPNS_4util4UuidE = __sdk_start + 0x00000000003ada10;
_ZN2nn5swkbd6detail18InlineKeyboardImpl18CalcFromReplyType_ENS0_9ReplyTypeENS_6applet13StorageHandleEm = __sdk_start + 0x00000000003cb7c0;
_ZN7android7String8C2ENS0_13StaticLinkageE = __sdk_start + 0x0000000000193080;
_ZN2nn2ec11AsyncResult8FinalizeEv = __sdk_start + 0x00000000002ebff0;
_ZN2nn3err9ShowErrorENS_6ResultERKNS0_15ResultBacktraceE = __sdk_start + 0x00000000002fbdf0;
__floattitf = __sdk_start + 0x0000000000570b00;
_ZThn32_N2nn2sf4cmif6client6detail13CmifProxyImplINS_2am7service15IStorageChannelENS2_19CmifDomainProxyKindINS0_4hipc6client38Hipc2ClientSessionManagedProxyKindBaseINSA_18Hipc2ProxyKindBaseILNS9_6detail11MessageTypeE6EEEEEEENS0_30MemoryResourceAllocationPolicyES7_NS3_19ProcessModifierImplINS2_21DefaultProxyFilterTagEEEE17GetCmifBaseObjectEv = __sdk_start + 0x00000000001b88ec;
_ZN2nn9bluetooth3hal41AcquireAudioSinkVolumeLocallyChangedEventEPNS_2os15SystemEventTypeENS2_14EventClearModeERKj = __sdk_start + 0x000000000023b070;
get_dropout_control = __sdk_start + 0x000000000032d2a0;
nvgr_get_memfd = __sdk_start + 0x0000000000422b20;
_ZN2nn5image6detail21CombinePngPixelFormatEii = __sdk_start + 0x000000000006f130;
nnosTryWaitTimerEvent = __sdk_start + 0x000000000012ff20;
pthread_attr_setstacksize = __sdk_start + 0x000000000013ae00;
_ZN2nn2sf4hipc6server34HipcServerSessionManagerWithDomain20ProcessManagerInvokeEPNS2_17HipcServerSessionEPKNS1_6detail25HipcMessageBufferAccessorEPKNS6_21HipcMessageHeaderInfoEPvm = __sdk_start + 0x0000000000145534;
_ZN2nn4htcs8ShutdownEii = __sdk_start + 0x0000000000358f10;
_ZN2nn3hid6server26CreateHidSystemServerProxyEPNS_2sf13SharedPointerINS0_16IHidSystemServerEEE = __sdk_start + 0x00000000004b5580;
_ZN2nn6socket8resolver10serializer13DNSSerializer10FromBufferI7in_addrEElRT_PKhm = __sdk_start + 0x000000000014a5d0;
_ZN2nn6socket8resolver24RefCountHelperInitializeEv = __sdk_start + 0x000000000015e900;
_ZTSN2nn2sf4cmif6client6detail9CmifProxyINS_2am7service8IStorageENS2_19CmifDomainProxyKindINS0_4hipc6client38Hipc2ClientSessionManagedProxyKindBaseINSA_18Hipc2ProxyKindBaseILNS9_6detail11MessageTypeE6EEEEEEENS0_30MemoryResourceAllocationPolicyENS3_19ProcessModifierImplINS2_21DefaultProxyFilterTagEEEvEE = __sdk_start + 0x0000000000adf905;
_ZTIN2nn2sf4cmif6client6detail13CmifProxyImplINS_2am7service7IWindowENS2_19CmifDomainProxyKindINS0_4hipc6client38Hipc2ClientSessionManagedProxyKindBaseINSA_18Hipc2ProxyKindBaseILNS9_6detail11MessageTypeE6EEEEEEENS0_30MemoryResourceAllocationPolicyES7_NS3_19ProcessModifierImplINS2_21DefaultProxyFilterTagEEEEE = __sdk_start + 0x0000000000cffb90;
_ZTIN2nn2sf4cmif6client6detail13CmifProxyImplINS_2am7service21IStackableAppletProxyENS2_19CmifDomainProxyKindINS0_4hipc6client38Hipc2ClientSessionManagedProxyKindBaseINSA_18Hipc2ProxyKindBaseILNS9_6detail11MessageTypeE6EEEEEEENS0_30MemoryResourceAllocationPolicyENS6_19ILibraryAppletProxyENS3_19ProcessModifierImplINS2_21DefaultProxyFilterTagEEEEE = __sdk_start + 0x0000000000d01108;
nncodecLibopus_silk_LTP_analysis_filter_FIX = __sdk_start + 0x0000000000279b80;
_ZN2nn2oe35BeginBlockingHomeButtonShortPressedENS_8TimeSpanE = __sdk_start + 0x0000000000397300;
nnmem_nlib_readlink = __sdk_start + 0x0000000000119ba0;
_ZN2nn5audio6server38CommandProcessingTimeEstimatorVersion48EstimateERKNS0_20CopyMixBufferCommandE = __sdk_start + 0x00000000002154d8;
_ZN2nn2sf4cmif6client6detail13CmifProxyImplINS_8settings21ISystemSettingsServerENS0_4hipc6client18Hipc2ProxyKindBaseILNS7_6detail11MessageTypeE6EEENS0_30MemoryResourceAllocationPolicyES6_NS3_19ProcessModifierImplINS2_21DefaultProxyFilterTagEEEE39_nn_sf_sync_GetBluetoothDevicesSettingsENS0_3OutIivEERKNS0_8OutArrayINS5_6system24BluetoothDevicesSettingsEEE = __sdk_start + 0x00000000003bb410;
_ZNK7android5Fence7flattenERPvRmRPiS3_ = __sdk_start + 0x000000000018ce14;
_ZN2nn2sf4hipc6client24Hipc2ClientCoreProcessorILNS1_6detail11MessageTypeE6ENS0_4cmif6detail14CoreMethodInfoINSt3__15tupleIJNS7_21OutHandleArgumentInfoILi0ELi1EEENS7_17InRawArgumentInfoILm2ELm2ELl0EEEEEELm2ELm0ELb0EEESF_E7ProcessEPNS2_26Hipc2ClientProxyBaseObjectENS6_6client27OutHandleClientArgumentTypeENSK_23InRawClientArgumentTypeILm2ELm2EvEEj = __sdk_start + 0x0000000000241538;
_ZNK2nn3mii6detail12StoreDataRaw13GetFontRegionEv = __sdk_start + 0x000000000036c1a0;
_ZN2nn2fs4save22SaveDataFileSystemCore24DoGetFileSystemAttributeEPNS0_3fsa19FileSystemAttributeE = __sdk_start + 0x00000000000a9a84;
_ZN2nn7account41CachedNintendoAccountInfoForSystemServiceC1Ev = __sdk_start + 0x000000000019d128;
_ZN2nn5audio6server9VoiceInfo16UpdateWaveBufferEPNS0_6common17BehaviorParameter9ErrorInfoEPNS1_10WaveBufferEPKNS0_9VoiceInfo18WaveBufferInternalEhbRNS1_10PoolMapperERKNS1_12BehaviorInfoE = __sdk_start + 0x000000000021e5d0;
_ZN2nn8settings6detail15GetSerialNumberEPNS0_7factory12SerialNumberE = __sdk_start + 0x00000000003b8f50;
NvTegraSysDeInit = __sdk_start + 0x0000000000405820;
_ZN2nn2os17TryWaitTimerEventEPNS0_14TimerEventTypeE = __sdk_start + 0x000000000012b860;
_ZN2nn7account38ExternalNetworkServiceAccountRegistrar44EnsureNetworkServiceAccountIdTokenCacheAsyncEPNS0_12AsyncContextE = __sdk_start + 0x000000000019d7f0;
_ZN2nn5audio18RemoveBiquadFilterEPNS0_19AudioRendererConfigEPNS0_16BiquadFilterTypeEPNS0_10SubMixTypeE = __sdk_start + 0x00000000001d1e40;
_ZTSN2nn2sf4cmif6client6detail13CmifProxyImplINS_5visrv2sf21ISystemDisplayServiceENS0_4hipc6client18Hipc2ProxyKindBaseILNS8_6detail11MessageTypeE6EEENS0_30MemoryResourceAllocationPolicyES7_NS3_19ProcessModifierImplINS2_21DefaultProxyFilterTagEEEEE = __sdk_start + 0x0000000000b39892;
_ZN2nn3hid6detail18FinalizeDebugMouseEv = __sdk_start + 0x000000000048df70;
_ZN2nn2os15GetCurrentFiberEv = __sdk_start + 0x00000000001323b0;
_ZN2nn2sf4hipc6client24Hipc2ClientCoreProcessorILNS1_6detail11MessageTypeE6ENS0_4cmif6detail14CoreMethodInfoINSt3__15tupleIJNS7_18OutRawArgumentInfoILm4ELm4ELl0EEENS7_18BufferArgumentInfoILi0ELi6ELm0EEENSD_ILi1ELi5ELm0EEEEEELm0ELm4ELb0EEESG_E7ProcessEPNS2_26Hipc2ClientProxyBaseObjectENS6_6client24OutRawClientArgumentTypeILm4ELm4EEENSL_24BufferClientArgumentTypeESO_j = __sdk_start + 0x00000000000ff984;
_ZN7android13GraphicBuffer11unlockAsyncEPi = __sdk_start + 0x000000000018de4c;
_ZN2nn5audio20GetCaptureSampleRateEPKNS0_11CaptureTypeE = __sdk_start + 0x00000000001d5390;
_ZNK2nn3err6detail23SerializedContextSeries13ConstIteratorneERKS3_ = __sdk_start + 0x00000000002fec8c;
NvRmGpuLibListDevices = __sdk_start + 0x0000000000436640;
_ZN2nn3hid24IsVibrationDeviceMountedERKNS0_21VibrationDeviceHandleE = __sdk_start + 0x000000000049f030;
_ZN2nn4util16FileOutputStream5WriteEPKvm = __sdk_start + 0x0000000000160c78;
_ZN2nn2oe26GetHdcpAuthenticationStateEv = __sdk_start + 0x0000000000397770;
_ZN2nn5srepo6detail15ReportGenerator14AddPlaceholderEPmPKcaPhmmm = __sdk_start + 0x00000000003a5070;
_ZN2nn8settings6detail31GetAmiiboEcqvBlsRootCertificateEPNS0_7factory28AmiiboEcqvBlsRootCertificateE = __sdk_start + 0x00000000003b0ca0;
_ZNK2nn2fs6detail22LruFileDataCacheSystem38GetMaxAllocatableConsecutivePageRegionEPiS3_ = __sdk_start + 0x00000000000fb6e0;
_ZN2nn6socket8SendMMsgEiP7mmsghdrmi = __sdk_start + 0x00000000001479c0;
_ZN2nn6socket8resolver10serializer13DNSSerializer6SizeOfINS0_6InAddrEEEmRKT_ = __sdk_start + 0x000000000014a428;
_ZNK2nn3err6detail23SerializedContextSeries13ConstIteratordeEv = __sdk_start + 0x00000000002fecac;
_ZN2nn8settings6detail25GetAvailableLanguageCodesEPiPNS0_12LanguageCodeEi = __sdk_start + 0x00000000003b7510;
_ZNK2nn6crypto6detail8Sha3ImplILm32EE10GetContextEPNS0_11Sha3ContextE = __sdk_start + 0x000000000000af4c;
_ZN2nn5audio6server12SinkInfoBase26UpdateForCommandGenerationEv = __sdk_start + 0x000000000021ccb4;
_ZNKSt3__117moneypunct_bynameIcLb1EE13do_neg_formatEv = __sdk_start + 0x000000000052b1b4;
iswprint = __sdk_start + 0x000000000059faf0;
_ZTv0_n24_N7android6ThreadD1Ev = __sdk_start + 0x0000000000194f38;
_ZN7android13GraphicBuffer4lockEjRKNS_4RectEPPv = __sdk_start + 0x000000000018dc1c;
nnsslConnectionSetHostName = __sdk_start + 0x00000000003c0740;
_ZN2nn5async10ExecutableD0Ev = __sdk_start + 0x000000000008b214;
_ZN2nn2os6detail32UnsafeMemoryManagerImplByHorizon24AllocateUnsafeMemoryImplEPmm = __sdk_start + 0x0000000000133130;
_ZN7android9BpRefBaseD1Ev = __sdk_start + 0x0000000000161628;
_ZN2nn2sf4cmif6client6detail13CmifProxyImplINS_4nifm6detail8IRequestENS2_19CmifDomainProxyKindINS0_4hipc6client38Hipc2ClientSessionManagedProxyKindBaseINSA_18Hipc2ProxyKindBaseILNS9_6detail11MessageTypeE6EEEEEEENS0_30MemoryResourceAllocationPolicyES7_NS3_19ProcessModifierImplINS2_21DefaultProxyFilterTagEEEE21_nn_sf_sync_SetGreedyEb = __sdk_start + 0x0000000000389850;
_ZN2nn2sf13SharedPointerINS_2am7service11IMovieMakerEED2Ev = __sdk_start + 0x00000000001af2e8;
_ZN2nn5audio6detail33FftInPlaceButterflyComplexDouble4EPdPKdmmNS1_12FftDirectionE = __sdk_start + 0x00000000001e9b20;
_ZN2nn3err6detail23SerializedContextSeries13ConstIteratorppEv = __sdk_start + 0x00000000002febe4;
_ZN2nn4nifm6detail39ConvertNetworkInterfaceInfoToNifmFromSfEPNS0_20NetworkInterfaceInfoERKNS1_2sf20NetworkInterfaceInfoE = __sdk_start + 0x000000000038c5e0;
fgetws_unlocked = __sdk_start + 0x00000000005a8590;
_ZN2nn2sf4hipc27SetHipcErrorHandlerOnClientEPFvNS_6ResultEE = __sdk_start + 0x000000000013f070;
_ZN2nn5audio6server24AudioRenderSystemManager18ThreadFunctionImplEv = __sdk_start + 0x000000000020dd90;
_ZN2nn2sf6detail38ObjectImplFactoryWithStatefulAllocatorINS0_4cmif6client6detail9CmifProxyINS_2am7service8IStorageENS4_19CmifDomainProxyKindINS0_4hipc6client38Hipc2ClientSessionManagedProxyKindBaseINSC_18Hipc2ProxyKindBaseILNSB_6detail11MessageTypeE6EEEEEEENS0_30MemoryResourceAllocationPolicyENS5_19ProcessModifierImplINS4_21DefaultProxyFilterTagEEEvEESK_E6Object7ReleaseEv = __sdk_start + 0x00000000001b89a8;
_ZN2nn2sf4cmif6client6detail13CmifProxyImplINS_7friends6detail3ipc14IFriendServiceENS2_19CmifDomainProxyKindINS0_4hipc6client38Hipc2ClientSessionManagedProxyKindBaseINSB_18Hipc2ProxyKindBaseILNSA_6detail11MessageTypeE6EEEEEEENS0_30MemoryResourceAllocationPolicyES8_NS3_19ProcessModifierImplINS2_21DefaultProxyFilterTagEEEE35_nn_sf_sync_ChangePlayLogPermissionERKNS_7account3UidEi = __sdk_start + 0x0000000000347350;
_ZN2nn3hid6system27SetTouchScreenMagnificationEffff = __sdk_start + 0x00000000004aba80;
_ZN2nn2sf4cmif6client34CmifDomainProxyClientCoreProcessorINS0_4hipc6client38Hipc2ClientSessionManagedProxyKindBaseINS5_18Hipc2ProxyKindBaseILNS4_6detail11MessageTypeE6EEEEENS1_6detail14CoreMethodInfoINSt3__15tupleIJNSC_17InRawArgumentInfoILm8ELm8ELl0EEENSC_18BufferArgumentInfoILi0ELi69ELm0EEENSG_ILm8ELm8ELl8EEEEEELm16ELm0ELb0EEESL_E7ProcessEPNS2_23CmifDomainClientMessageISB_E15ProxyBaseObjectENS2_23InRawClientArgumentTypeILm8ELm8EvEENS2_24BufferClientArgumentTypeEST_j = __sdk_start + 0x00000000000c0b3c;
_ZN2nn7account37AsyncNetworkServiceLicenseInfoContextD0Ev = __sdk_start + 0x000000000019fbf8;
_ZN2nn5audio21SetReverbPredelayTimeEPNS0_10ReverbTypeENS_8TimeSpanE = __sdk_start + 0x00000000001d6c90;
_ZN2nn8settings6system44SetHeadphoneVolumeWarningDisplayedEventCountEi = __sdk_start + 0x00000000003acfc0;
_ZTIN2nn2sf6detail38ObjectImplFactoryWithStatefulAllocatorINS0_4cmif6client6detail9CmifProxyINS_8settings15ISettingsServerENS0_4hipc6client18Hipc2ProxyKindBaseILNS9_6detail11MessageTypeE6EEENS0_30MemoryResourceAllocationPolicyENS5_19ProcessModifierImplINS4_21DefaultProxyFilterTagEEEvEESF_E6ObjectE = __sdk_start + 0x0000000000d12c88;
nvdcQueryHeadStatus = __sdk_start + 0x00000000003e6ac0;
_ZN2nn3kpr6detail22SetKeyCodeComposerModeEPNS1_22KeyCodeComposerStorageENS0_19KeyCodeComposerModeE = __sdk_start + 0x00000000004d8eb0;
nndetailImageJpeg_jpeg_fdct_7x14 = __sdk_start + 0x0000000000039680;
_ZN2nn2sf4cmif6client6detail13CmifProxyImplINS_2am7service21IStackableAppletProxyENS2_19CmifDomainProxyKindINS0_4hipc6client38Hipc2ClientSessionManagedProxyKindBaseINSA_18Hipc2ProxyKindBaseILNS9_6detail11MessageTypeE6EEEEEEENS0_30MemoryResourceAllocationPolicyENS6_19ILibraryAppletProxyENS3_19ProcessModifierImplINS2_21DefaultProxyFilterTagEEEE35_nn_sf_sync_GetLibraryAppletCreatorENS0_3OutINS0_13SharedPointerINS6_21ILibraryAppletCreatorEEEvEE = __sdk_start + 0x00000000001be8bc;
_ZN2nn4bcat4shim17ShimLibraryGlobal36DecrementDeliveryCacheDirectoryCountEv = __sdk_start + 0x000000000023984c;
nncodecLibopus_silk_log2lin = __sdk_start + 0x0000000000276140;
_ZN2nn2sf4cmif6client34CmifDomainProxyClientCoreProcessorINS0_4hipc6client38Hipc2ClientSessionManagedProxyKindBaseINS5_18Hipc2ProxyKindBaseILNS4_6detail11MessageTypeE6EEEEENS1_6detail14CoreMethodInfoINSt3__15tupleIJNSC_18BufferArgumentInfoILi0ELi21ELm64EEENSG_ILi1ELi5ELm0EEEEEELm0ELm0ELb0EEESJ_E7ProcessEPNS2_23CmifDomainClientMessageISB_E15ProxyBaseObjectENS2_24BufferClientArgumentTypeESQ_j = __sdk_start + 0x000000000038fcb0;
_ZN2nn2vi6buffer11BufferQueue13ComputeOffsetERKNS1_10BufferInfoEii = __sdk_start + 0x00000000003e34e8;
_ZN2nn5async6detail18GroupWaitHolderOne8GetIndexEPNS1_15GroupWaitHolder11InnerHolderE = __sdk_start + 0x0000000000089acc;
_ZN2nn2fs3dbm22AllocationTableStorage4ReadElPvm = __sdk_start + 0x000000000009b150;
_ZN2nn2sf4hipc6server6detail29HipcAllInOneServerManagerBase16ReceiveAsSessionEPNS_2os19MultiWaitHolderTypeEPvm = __sdk_start + 0x00000000001443a4;
_ZN2nn5audio7capture6detail32SystemAudioCaptureServerImplBase16ServerThreadFuncEPv = __sdk_start + 0x00000000001e6120;
_ZN2nn3mii15PrivateDatabase6ImportEPKvm = __sdk_start + 0x0000000000378a50;
_ZN2nn5prepo12AsyncContextaSEOS1_ = __sdk_start + 0x00000000003a7268;
_ZN2nn2fs9MountCodeEPNS0_20CodeVerificationDataEPKcS4_NS0_17ContentAttributesENS_3ncm9ProgramIdE = __sdk_start + 0x00000000000b1fa0;
_ZN2nn3mii6detail20CalculateAndSetCrc16EPvi = __sdk_start + 0x000000000036a7a0;
_ZN2nn5swkbd6detail18InlineKeyboardImpl12SetInputTextERKNS0_9InputTextE = __sdk_start + 0x00000000003cad18;
_ZN2nn3hid6server26FinalizeSharedMemoryFormatEPNS1_18SharedMemoryFormatE = __sdk_start + 0x00000000004a4f50;
_ZNSt3__17codecvtIwc11__mbstate_tED1Ev = __sdk_start + 0x000000000054b798;
_ZTSSt12domain_error = __sdk_start + 0x0000000000b7ab17;
cargf = __sdk_start + 0x00000000005957f0;
twalk = __sdk_start + 0x00000000005a74e0;
recvmmsg = __sdk_start + 0x000000000008d980;
_ZN2nn4bcat22DeliveryCacheDirectoryD1Ev = __sdk_start + 0x00000000002353c8;
_ZNSt3__118__time_get_storageIcE4initERKNS_5ctypeIcEE = __sdk_start + 0x0000000000547020;
_ZN2nn2sf4cmif6client34CmifDomainProxyClientCoreProcessorINS0_4hipc6client38Hipc2ClientSessionManagedProxyKindBaseINS5_18Hipc2ProxyKindBaseILNS4_6detail11MessageTypeE6EEEEENS1_6detail14CoreMethodInfoINSt3__15tupleIJNSC_17InRawArgumentInfoILm16ELm8ELl0EEENSG_ILm8ELm8ELl16EEEEEELm24ELm0ELb0EEESJ_E7ProcessEPNS2_23CmifDomainClientMessageISB_E15ProxyBaseObjectENS2_23InRawClientArgumentTypeILm16ELm8EvEENSQ_ILm8ELm8EvEEj = __sdk_start + 0x00000000001a7654;
_ZN2nn3hid6system6detail23GetNpadFullKeyGripColorEPNS_4util8Unorm8x4ES5_RKj = __sdk_start + 0x00000000004a7c10;
_ZNSt3__18ios_baseD1Ev = __sdk_start + 0x000000000050a870;
_ZN2nn4util13StringBuilder3FixEv = __sdk_start + 0x000000000007f958;
nnmem_nlib_utf16cplen_ex_generic = __sdk_start + 0x00000000001085c0;
_ZN2nn7account33ExternalNetworkServiceAccountInfoD1Ev = __sdk_start + 0x000000000019d3ac;
_ZTIN2nn2sf4cmif6client6detail9CmifProxyINS_4bcat3ipc29IDeliveryCacheProgressServiceENS2_19CmifDomainProxyKindINS0_4hipc6client38Hipc2ClientSessionManagedProxyKindBaseINSA_18Hipc2ProxyKindBaseILNS9_6detail11MessageTypeE6EEEEEEENS0_30MemoryResourceAllocationPolicyENS3_19ProcessModifierImplINS2_21DefaultProxyFilterTagEEEvEE = __sdk_start + 0x0000000000d060c8;
_ZN2nn2ec24ShowShopAddOnContentListENS_13ApplicationIdERKNS_7account10UserHandleE = __sdk_start + 0x00000000002f30a0;
_ZN2nn3hid6system6detail31GetConnectableRegisteredDevicesEPiPNS1_16RegisteredDeviceEi = __sdk_start + 0x00000000004a8470;
_ZN2nn2sf4cmif6client6detail13CmifProxyImplINS_3hid16IHidSystemServerENS0_4hipc6client18Hipc2ProxyKindBaseILNS7_6detail11MessageTypeE6EEENS0_30MemoryResourceAllocationPolicyES6_NS3_19ProcessModifierImplINS2_21DefaultProxyFilterTagEEEE34_nn_sf_sync_EnableAppletToGetInputENS_6applet20AppletResourceUserIdEb = __sdk_start + 0x00000000004b5bb0;
_ZN2nn2sf4cmif6client6detail13CmifProxyImplINS_3hid16IHidSystemServerENS0_4hipc6client18Hipc2ProxyKindBaseILNS7_6detail11MessageTypeE6EEENS0_30MemoryResourceAllocationPolicyES6_NS3_19ProcessModifierImplINS2_21DefaultProxyFilterTagEEEE38_nn_sf_sync_EnableUsbFullKeyControllerEb = __sdk_start + 0x00000000004b5ef4;
_ZN7android14SurfaceControl13setLayerStackEi = __sdk_start + 0x000000000018857c;
_ZN2nn5srepo6detail15ReportGenerator6AddKeyEPmPKcPhmm = __sdk_start + 0x00000000003a41f4;
_ZN2nn2sf4cmif6client6detail13CmifProxyImplINS_3ssl2sf14ISslConnectionENS2_19CmifDomainProxyKindINS0_4hipc6client38Hipc2ClientSessionManagedProxyKindBaseINSA_18Hipc2ProxyKindBaseILNS9_6detail11MessageTypeE6EEEEEEENS0_24StatefulAllocationPolicyINS0_16ExpHeapAllocatorEEES7_NS3_19ProcessModifierImplINS2_21DefaultProxyFilterTagEEEE28_nn_sf_sync_SetNextAlpnProtoERKNS0_8InBufferE = __sdk_start + 0x00000000003c5ed0;
_ZN2nn2sf4cmif6client6detail13CmifProxyImplINS_3hid15IHidDebugServerENS0_4hipc6client18Hipc2ProxyKindBaseILNS7_6detail11MessageTypeE6EEENS0_30MemoryResourceAllocationPolicyES6_NS3_19ProcessModifierImplINS2_21DefaultProxyFilterTagEEEE32_nn_sf_sync_IsFactoryBootEnabledENS0_3OutIbvEENS5_6system11UniquePadIdE = __sdk_start + 0x00000000004b31a4;
_ZN2nn2sf6detail38ObjectImplFactoryWithStatefulAllocatorINS0_4cmif6client6detail9CmifProxyINS_7account24IBaasAccessTokenAccessorENS4_19CmifDomainProxyKindINS0_4hipc6client38Hipc2ClientSessionManagedProxyKindBaseINSB_18Hipc2ProxyKindBaseILNSA_6detail11MessageTypeE6EEEEEEENS0_30MemoryResourceAllocationPolicyENS5_19ProcessModifierImplINS4_21DefaultProxyFilterTagEEEvEESJ_E6Object12AddReferenceEv = __sdk_start + 0x000000000019c7e0;
_ZN2nn3btm29g_BtmUserAllocatorInitializerE = __sdk_start + 0x0000000000d98d30;
_ZN2nn3nfp14IsErrorVisibleEv = __sdk_start + 0x00000000003836e0;
_ZN2nn5audio34GetAuxLightLimiterLookAheadTimeMaxEPKNS0_19AuxLightLimiterTypeE = __sdk_start + 0x00000000001d1170;
_ZN2nn2sf4hipc6client24Hipc2ClientCoreProcessorILNS1_6detail11MessageTypeE6ENS0_4cmif6detail14CoreMethodInfoINSt3__15tupleIJNS7_18OutRawArgumentInfoILm8ELm8ELl0EEENS7_17InRawArgumentInfoILm52ELm4ELl0EEEEEELm52ELm8ELb0EEESF_E7ProcessEPNS2_26Hipc2ClientProxyBaseObjectENS6_6client24OutRawClientArgumentTypeILm8ELm8EEENSK_23InRawClientArgumentTypeILm52ELm4EvEEj = __sdk_start + 0x00000000001e4244;
_ZN2nn5audio3dsp14ConvertFormat4EPiPKfi = __sdk_start + 0x0000000000225f10;
_ZN2nn2sf4cmif6client6detail13CmifProxyImplINS_5visrv2sf26IApplicationDisplayServiceENS0_4hipc6client18Hipc2ProxyKindBaseILNS8_6detail11MessageTypeE6EEENS0_30MemoryResourceAllocationPolicyES7_NS3_19ProcessModifierImplINS2_21DefaultProxyFilterTagEEEE28_nn_sf_sync_CreateStrayLayerENS0_3OutImvEENSJ_IlvEERKNS0_9OutBufferEmj = __sdk_start + 0x00000000003d7240;
_ZN2nn2sf4cmif6client6detail13CmifProxyImplINS_3hid10IHidServerENS0_4hipc6client18Hipc2ProxyKindBaseILNS7_6detail11MessageTypeE6EEENS0_30MemoryResourceAllocationPolicyES6_NS3_19ProcessModifierImplINS2_21DefaultProxyFilterTagEEEE29_nn_sf_sync_ActivateDigitizerENS_6applet20AppletResourceUserIdE = __sdk_start + 0x00000000004af110;
cargl = __sdk_start + 0x0000000000595800;
_ZNK2nn7account13ProfileEditor12GetTimeStampEv = __sdk_start + 0x00000000001a13a8;
_ZN2nn5audio6server11AddressInfoC1ENS0_7CpuAddrEm = __sdk_start + 0x000000000021b308;
_ZN2nn2la31NifmToNetConnectArgumentsWriterD2Ev = __sdk_start + 0x000000000035fc50;
_ZN2nn3mii6detail12StoreDataRaw9SetGlassYEi = __sdk_start + 0x000000000036c860;
_ZNK2nn3mii6detail16Ver3StoreDataRaw14GetEyebrowTypeEv = __sdk_start + 0x000000000036e51c;
_ZN2nn3ssl10Connection10CipherInfoC1Ev = __sdk_start + 0x00000000003c2d50;
NvRmStreamPushFalconMethodRelocType = __sdk_start + 0x0000000000403210;
_ZN2nn3hid6system6detail18GetFirmwareVersionEPNS1_15FirmwareVersionENS1_11UniquePadIdE = __sdk_start + 0x00000000004a5a80;
_ZN2nn3ldn14DestroyNetworkEv = __sdk_start + 0x00000000004da700;
_ZN2nn2fs15RomFsFileSystem27DoCleanDirectoryRecursivelyERKNS0_4PathE = __sdk_start + 0x00000000000ea8e4;
_ZN2nn2os17GetThreadPriorityEPKNS0_10ThreadTypeE = __sdk_start + 0x000000000012fa30;
_ZN2nn3aoc19PrepareAddOnContentEi = __sdk_start + 0x00000000001c6400;
_ZN2nn5codec5f2PowEiiPi = __sdk_start + 0x00000000002b9390;
_ZN2nn2fs4save22SaveDataFileSystemCore10ExpandMetaENS0_10SubStorageElll = __sdk_start + 0x00000000000a95c0;
_ZN7android22ISurfaceComposerClientC2Ev = __sdk_start + 0x0000000000183628;
_ZN7android13GraphicBuffer10reallocateEjjij = __sdk_start + 0x000000000018da38;
_ZN2nn7account31NintendoAccountLinkageProcedureD0Ev = __sdk_start + 0x00000000001a0e48;
_ZN2nn2vi13ObjectManager22FindValidDisplayHolderEPNS0_7DisplayE = __sdk_start + 0x00000000003e1210;
_ZN2nn4util13StringBuilderpLEc = __sdk_start + 0x000000000007f8c0;
_ZTSN2nn2sf4cmif6client6detail9CmifProxyINS_4bcat3ipc12IBcatServiceENS2_19CmifDomainProxyKindINS0_4hipc6client38Hipc2ClientSessionManagedProxyKindBaseINSA_18Hipc2ProxyKindBaseILNS9_6detail11MessageTypeE6EEEEEEENS0_30MemoryResourceAllocationPolicyENS3_19ProcessModifierImplINS2_21DefaultProxyFilterTagEEEvEE = __sdk_start + 0x0000000000af6a9e;
_ZdaPvRKSt9nothrow_t = __sdk_start + 0x00000000005693b0;
_ZN2nn2fs16UnsetDebugOptionENS0_14DebugOptionKeyE = __sdk_start + 0x00000000000b3460;
_ZN2nn2fs18GetSdCardSpeedModeEPNS0_15SdCardSpeedModeE = __sdk_start + 0x00000000000e4130;
_ZN2nn5audio28GetLightLimiterLookAheadTimeEPKNS0_16LightLimiterTypeE = __sdk_start + 0x00000000001d5c10;
_ZN2nn2sf4hipc6client24Hipc2ClientCoreProcessorILNS1_6detail11MessageTypeE6ENS0_4cmif6detail14CoreMethodInfoINSt3__15tupleIJNS7_21OutObjectArgumentInfoILi0ELi0EEENS7_17InRawArgumentInfoILm4ELm4ELl0EEENSD_ILm4ELm4ELl4EEEEEELm8ELm0ELb0EEESG_E21ProcessWithOutObjectsEPNS2_26Hipc2ClientProxyBaseObjectENS6_6client27OutObjectClientArgumentTypeENSL_23InRawClientArgumentTypeILm4ELm4EvEESO_jPNS0_13SharedPointerINS0_14IServiceObjectEEE = __sdk_start + 0x00000000003d4c1c;
_ZN2nn2sf4cmif6client6detail13CmifProxyImplINS_5visrv2sf21ISystemDisplayServiceENS0_4hipc6client18Hipc2ProxyKindBaseILNS8_6detail11MessageTypeE6EEENS0_30MemoryResourceAllocationPolicyES7_NS3_19ProcessModifierImplINS2_21DefaultProxyFilterTagEEEE29_nn_sf_sync_SetDisplayCmuLumaEmf = __sdk_start + 0x00000000003d7e94;
_ZN2nn3hid6detail28GetControlPadRestrictionTypeENS_4util10BitFlagSetILi32ENS0_12NpadStyleTagEEEPNS0_25ControlPadRestrictionTypeE = __sdk_start + 0x0000000000494240;
_ZNKSt3__18time_putIcNS_19ostreambuf_iteratorIcNS_11char_traitsIcEEEEE3putES4_RNS_8ios_baseEcPK2tmPKcSC_ = __sdk_start + 0x000000000052a270;
_ZNKSt3__17codecvtIcc11__mbstate_tE11do_encodingEv = __sdk_start + 0x000000000053e514;
_ZN2nn7account29ResumeProcedureToRegisterUserEPNS0_25UserRegistrationProcedureERKNS0_9SessionIdEPvm = __sdk_start + 0x000000000019b790;
_ZThn32_N2nn2sf4cmif6client6detail13CmifProxyImplINS_2am7service13ILockAccessorENS2_19CmifDomainProxyKindINS0_4hipc6client38Hipc2ClientSessionManagedProxyKindBaseINSA_18Hipc2ProxyKindBaseILNS9_6detail11MessageTypeE6EEEEEEENS0_30MemoryResourceAllocationPolicyES7_NS3_19ProcessModifierImplINS2_21DefaultProxyFilterTagEEEE17GetCmifBaseObjectEv = __sdk_start + 0x00000000001b733c;
_ZN2nn2sf4cmif6client6detail13CmifProxyImplINS_2am7service15ISelfControllerENS2_19CmifDomainProxyKindINS0_4hipc6client38Hipc2ClientSessionManagedProxyKindBaseINSA_18Hipc2ProxyKindBaseILNS9_6detail11MessageTypeE6EEEEEEENS0_30MemoryResourceAllocationPolicyES7_NS3_19ProcessModifierImplINS2_21DefaultProxyFilterTagEEEE29_nn_sf_sync_LeaveFatalSectionEv = __sdk_start + 0x00000000001b7be8;
_ZNSt3__115recursive_mutexC2Ev = __sdk_start + 0x00000000004fa24c;
pthread_setname_np = __sdk_start + 0x000000000013b090;
_ZN2nn2sf4cmif6client6detail13CmifProxyImplINS_2am7service17IWindowControllerENS2_19CmifDomainProxyKindINS0_4hipc6client38Hipc2ClientSessionManagedProxyKindBaseINSA_18Hipc2ProxyKindBaseILNS9_6detail11MessageTypeE6EEEEEEENS0_30MemoryResourceAllocationPolicyES7_NS3_19ProcessModifierImplINS2_21DefaultProxyFilterTagEEEE35_nn_sf_sync_AcquireForegroundRightsEv = __sdk_start + 0x00000000001b94cc;
_ZN2nn3err6detail24ReadErrorCodeMessageFileIcEEvPiPT_mNS0_9ErrorCodeENS_8settings12LanguageCodeENS1_11MessageKindE = __sdk_start + 0x00000000002fda90;
_ZN2nn2os6detail24TryWaitInterProcessEventEPNS1_21InterProcessEventTypeE = __sdk_start + 0x00000000001305b0;
_ZN2nn5audio33SetAudioOutputProcessMasterVolumeENS_6applet20AppletResourceUserIdEfNS_8TimeSpanE = __sdk_start + 0x00000000001e0540;
_ZN2nn3mii6detail26ImageServiceProviderClient36GetImageDatabaseServiceSharedPointerEPNS_2sf13SharedPointerINS1_21IImageDatabaseServiceEEE = __sdk_start + 0x000000000037b498;
_ZN2nn5srepo6detail17VerifyStructValueEPmPKhmm = __sdk_start + 0x00000000003a59e0;
_ZN2nn2sf4cmif6client6detail13CmifProxyImplINS_5visrv2sf21ISystemDisplayServiceENS0_4hipc6client18Hipc2ProxyKindBaseILNS8_6detail11MessageTypeE6EEENS0_30MemoryResourceAllocationPolicyES7_NS3_19ProcessModifierImplINS2_21DefaultProxyFilterTagEEEE29_nn_sf_sync_SetDisplayCrcModeEmh = __sdk_start + 0x00000000003d7ea4;
_ZN2nn4htcs10FdSetIsSetEiPKNS0_5FdSetE = __sdk_start + 0x00000000003596b0;
nnutilZlib_inflateCodesUsed = __sdk_start + 0x0000000000079aa0;
_ZN2nn8settings6detail32GetRebootlessSystemUpdateVersionEPNS0_6system29RebootlessSystemUpdateVersionE = __sdk_start + 0x00000000003b67c0;
_ZNSt3__15stollERKNS_12basic_stringIwNS_11char_traitsIwEENS_9allocatorIwEEEEPmi = __sdk_start + 0x00000000005046b0;
_ZNKSt3__115__codecvt_utf16IDsLb0EE13do_max_lengthEv = __sdk_start + 0x0000000000541544;
_ZN2nn2os6detail13MultiWaitImpl22RecalcMultiWaitTimeoutEPNS_8TimeSpanES3_ = __sdk_start + 0x00000000001315a0;
_ZN2nn2sf4cmif6client6detail13CmifProxyImplINS_3hid15IHidDebugServerENS0_4hipc6client18Hipc2ProxyKindBaseILNS7_6detail11MessageTypeE6EEENS0_30MemoryResourceAllocationPolicyES6_NS3_19ProcessModifierImplINS2_21DefaultProxyFilterTagEEEE41_nn_sf_sync_UnsetDebugMouseAutoPilotStateEv = __sdk_start + 0x00000000004b2c3c;
_ZNSt3__113basic_ostreamIwNS_11char_traitsIwEEED1Ev = __sdk_start + 0x0000000000513144;
_ZN2nn2sf4hipc6client34HipcSimpleClientSessionManagerBaseINS2_29DefaultSessionResourceManagerEE4Impl18InitializeByHandleINS_2am7service30IAllSystemAppletProxiesServiceENS0_30MemoryResourceAllocationPolicyENS0_4cmif6client6detail19ProcessModifierImplINSD_21DefaultProxyFilterTagEEEEENS_6ResultEPNS0_13SharedPointerIT_EEPNT0_9AllocatorENS_3svc6HandleE = __sdk_start + 0x00000000001b59b0;
_ZN2nn2sf4hipc6client24Hipc2ClientCoreProcessorILNS1_6detail11MessageTypeE6ENS0_4cmif6detail14CoreMethodInfoINSt3__15tupleIJNS7_17InRawArgumentInfoILm6ELm1ELl0EEENSB_ILm4ELm4ELl8EEENS7_18BufferArgumentInfoILi0ELi25ELm702EEEEEELm12ELm0ELb0EEESG_E7ProcessEPNS2_26Hipc2ClientProxyBaseObjectENS6_6client23InRawClientArgumentTypeILm6ELm1EvEENSM_ILm4ELm4EvEENSL_24BufferClientArgumentTypeEj = __sdk_start + 0x0000000000241a2c;
delete_fs_cache = __sdk_start + 0x0000000000312820;
_ZN2nn4nifm18GetSsidListVersionEPNS0_15SsidListVersionE = __sdk_start + 0x000000000038e020;
_ZN2nn2oe26ActivateHdcpAuthenticationEv = __sdk_start + 0x0000000000397820;
_ZN2nn2sf4cmif6client6detail13CmifProxyImplINS_4pctl6detail3ipc23IParentalControlServiceENS2_19CmifDomainProxyKindINS0_4hipc6client38Hipc2ClientSessionManagedProxyKindBaseINSB_18Hipc2ProxyKindBaseILNSA_6detail11MessageTypeE6EEEEEEENS0_30MemoryResourceAllocationPolicyES8_NS3_19ProcessModifierImplINS2_21DefaultProxyFilterTagEEEE36_nn_sf_sync_RetrievePairingInfoAsyncENS0_3OutINS6_9AsyncDataEvEENSO_INS0_12NativeHandleEvEE = __sdk_start + 0x000000000039f7f4;
_ZNK2nn3hid6server18SharedMemoryHolder21GetSharedMemoryHandleEv = __sdk_start + 0x00000000004a50d8;
_ZTINSt3__19money_getIwNS_19istreambuf_iteratorIwNS_11char_traitsIwEEEEEE = __sdk_start + 0x0000000000d24f88;
nndetailImagePng_png_set_sBIT = __sdk_start + 0x0000000000065f50;
_ZN2nn2os15InitializeMutexEPNS0_9MutexTypeEbi = __sdk_start + 0x000000000012e2f0;
_ZNSt3__112bad_weak_ptrD2Ev = __sdk_start + 0x00000000004f9ef4;
__nnmusl_socket_GetHErrno = __sdk_start + 0x00000000000923b0;
_ZN2nn5audio34GetOscMessageNextArgumentAsTimeTagEPNS0_14OscMessageTypeE = __sdk_start + 0x00000000001d8810;
_ZN2nn2sf4cmif6client6detail13CmifProxyImplINS_7friends6detail3ipc20INotificationServiceENS2_19CmifDomainProxyKindINS0_4hipc6client38Hipc2ClientSessionManagedProxyKindBaseINSB_18Hipc2ProxyKindBaseILNSA_6detail11MessageTypeE6EEEEEEENS0_30MemoryResourceAllocationPolicyES8_NS3_19ProcessModifierImplINS2_21DefaultProxyFilterTagEEEE15_nn_sf_sync_PopENS0_3OutINS7_21SizedNotificationInfoEvEE = __sdk_start + 0x000000000034c3dc;
_ZNK2nn3hid15VibrationPlayer8IsLoadedEv = __sdk_start + 0x00000000004a01f0;
_ZN2nn3hid6detail30ShowControllerKeyRemappingCoreERKNS0_6system25ControllerKeyRemappingArgERKNS2_27ControllerSupportArgPrivateE = __sdk_start + 0x00000000004bcba0;
_ZN2nn6crypto6detail8Sha3ImplILm64EE10InitializeEv = __sdk_start + 0x000000000000b5c8;
_ZN2nn2sf4hipc6client24Hipc2ClientCoreProcessorILNS1_6detail11MessageTypeE6ENS0_4cmif6detail14CoreMethodInfoINSt3__15tupleIJNS7_18OutRawArgumentInfoILm8ELm8ELl0EEENSB_ILm8ELm8ELl8EEENS7_18BufferArgumentInfoILi0ELi6ELm0EEENS7_17InRawArgumentInfoILm8ELm8ELl8EEENSG_ILm4ELm4ELl0EEEEEELm16ELm16ELb0EEESJ_E7ProcessEPNS2_26Hipc2ClientProxyBaseObjectENS6_6client24OutRawClientArgumentTypeILm8ELm8EEESQ_NSO_24BufferClientArgumentTypeENSO_23InRawClientArgumentTypeILm8ELm8EvEENSS_ILm4ELm4EvEEj = __sdk_start + 0x00000000003d9d2c;
_ZN2nn5audio26RequestUpdateAudioRendererENS0_19AudioRendererHandleEPKNS0_19AudioRendererConfigE = __sdk_start + 0x00000000001e0f90;
_ZNSt3__112ctype_bynameIcED0Ev = __sdk_start + 0x000000000053d934;
_ZN2nn2fs6detail22CreateTemporaryStorageENS_3ncm13ApplicationIdEmlj = __sdk_start + 0x00000000000dd630;
nnsocketEventFdWrite = __sdk_start + 0x00000000001481f0;
_ZN2nn5audio6detail34FftProcessInternalImplInt16ComplexEPsiPKsiRKNS1_13FftWorkBufferENS1_12FftDirectionEj = __sdk_start + 0x00000000001e8ce0;
_ZN2nn2sf4cmif6client6detail13CmifProxyImplINS_3ssl2sf11ISslServiceENS2_19CmifDomainProxyKindINS0_4hipc6client38Hipc2ClientSessionManagedProxyKindBaseINSA_18Hipc2ProxyKindBaseILNS9_6detail11MessageTypeE6EEEEEEENS0_24StatefulAllocationPolicyINS0_16ExpHeapAllocatorEEENS6_20ISslServiceForSystemENS3_19ProcessModifierImplINS2_21DefaultProxyFilterTagEEEE33_nn_sf_sync_GetCertificateBufSizeENS0_3OutIjvEERKNS0_8InBufferE = __sdk_start + 0x00000000003c557c;
_ZNSt3__17codecvtIDsDu11__mbstate_tE2idE = __sdk_start + 0x0000000000e015b0;
_ZN2nn4edid6detail21IsContinuousFrequencyEh = __sdk_start + 0x00000000000129f0;
NvOsGetTimeUS = __sdk_start + 0x00000000003f0320;
_ZN2nn4nifm6detail13RequestClient6SubmitEv = __sdk_start + 0x0000000000387738;
_ZNK2nn5prepo16SystemPlayReport8GetCountEv = __sdk_start + 0x00000000003a956c;
_ZN2nn5audio29InitializeAudioRendererConfigEPNS0_19AudioRendererConfigERKNS0_22AudioRendererParameterEPvm = __sdk_start + 0x00000000001ceb00;
_ZN2nn5audio6server11InfoUpdater18UpdateBehaviorInfoEPNS1_12BehaviorInfoE = __sdk_start + 0x0000000000217cfc;
_ZN2nn2sf4cmif6client6detail13CmifProxyImplINS_7timesrv6detail7service14IStaticServiceENS2_19CmifDomainProxyKindINS0_4hipc6client38Hipc2ClientSessionManagedProxyKindBaseINSB_18Hipc2ProxyKindBaseILNSA_6detail11MessageTypeE6EEEEEEENS0_30MemoryResourceAllocationPolicyES8_NS3_19ProcessModifierImplINS2_21DefaultProxyFilterTagEEEE50_nn_sf_sync_GetClockSnapshotFromSystemClockContextENS0_3OutINS_4time2sf13ClockSnapshotEvEERKNSP_18SystemClockContextESV_h = __sdk_start + 0x00000000003d1ae8;
_ZN2nn3hid6detail27ReadPalmaApplicationSectionERKNS0_21PalmaConnectionHandleEim = __sdk_start + 0x0000000000494a80;
recvmsg = __sdk_start + 0x000000000008d970;
_ZTIN2nn2sf6detail38ObjectImplFactoryWithStatefulAllocatorINS0_4cmif6client6detail9CmifProxyINS_2am7service19ILibraryAppletProxyENS4_19CmifDomainProxyKindINS0_4hipc6client38Hipc2ClientSessionManagedProxyKindBaseINSC_18Hipc2ProxyKindBaseILNSB_6detail11MessageTypeE6EEEEEEENS0_30MemoryResourceAllocationPolicyENS5_19ProcessModifierImplINS4_21DefaultProxyFilterTagEEEvEESK_E6ObjectE = __sdk_start + 0x0000000000d01150;
_ZN2nn2ec6detail14AsyncValueImpl8GetEventEv = __sdk_start + 0x00000000002ebc8c;
_ZTTNSt3__118basic_stringstreamIcNS_11char_traitsIcEENS_9allocatorIcEEEE = __sdk_start + 0x0000000000d22808;
_ZN2nn4util17MessagePackWriter20WriteIntegerAutoSizeEl = __sdk_start + 0x000000000007e954;
nnmem_nlib_fd_flush = __sdk_start + 0x0000000000119650;
get_glyph_metrics = __sdk_start + 0x000000000032ae00;
nvgr_is_protected = __sdk_start + 0x0000000000422ad0;
_ZNSt3__18ios_base4moveERS0_ = __sdk_start + 0x000000000050ad3c;
_ZNSt3__113basic_ostreamIwNS_11char_traitsIwEEE6sentryC2ERS3_ = __sdk_start + 0x0000000000513214;
_ZTVN10__cxxabiv123__fundamental_type_infoE = __sdk_start + 0x0000000000d28e08;
_ZN7android13GraphicBuffer9lockYCbCrEjRKNS_4RectEP13android_ycbcr = __sdk_start + 0x000000000018dcb0;
_ZN2nn5codec20qmf_phaseshift_cos32E = __sdk_start + 0x0000000000b0b8e0;
_ZN2nn8settings6detail13GetKeyCodeMapEPNS_3kpr10KeyCodeMapE = __sdk_start + 0x00000000003b71c0;
_ZN2nn2sf4cmif6client6detail13CmifProxyImplINS_3hid10IHidServerENS0_4hipc6client18Hipc2ProxyKindBaseILNS7_6detail11MessageTypeE6EEENS0_30MemoryResourceAllocationPolicyES6_NS3_19ProcessModifierImplINS2_21DefaultProxyFilterTagEEEE35_nn_sf_sync_WritePalmaActivityEntryENS5_21PalmaConnectionHandleEmmmm = __sdk_start + 0x00000000004aefd8;
_ZN2nn2sf4hipc6client24Hipc2ClientCoreProcessorILNS1_6detail11MessageTypeE6ENS0_4cmif6detail14CoreMethodInfoINSt3__15tupleIJNS7_17InRawArgumentInfoILm64ELm4ELl0EEENSB_ILm4ELm4ELl64EEEEEELm68ELm0ELb0EEESE_E7ProcessEPNS2_26Hipc2ClientProxyBaseObjectENS6_6client23InRawClientArgumentTypeILm64ELm4EvEENSK_ILm4ELm4EvEEj = __sdk_start + 0x00000000004b2734;
_ZTIN2nn2fs4save18ExclusiveDirectoryE = __sdk_start + 0x0000000000ce6ad8;
_ZN2nn2os21ReleaseLightSemaphoreEPNS0_18LightSemaphoreTypeEi = __sdk_start + 0x000000000012f3e0;
nnosSignalSystemEvent = __sdk_start + 0x00000000001300a0;
_ZN2nn4util14AsyncExecution8FinalizeEv = __sdk_start + 0x00000000001609cc;
_ZN2nn2sf4cmif6client34CmifDomainProxyClientCoreProcessorINS0_4hipc6client38Hipc2ClientSessionManagedProxyKindBaseINS5_18Hipc2ProxyKindBaseILNS4_6detail11MessageTypeE6EEEEENS1_6detail14CoreMethodInfoINSt3__15tupleIJNSC_18OutRawArgumentInfoILm16ELm4ELl0EEEEEELm0ELm16ELb0EEESI_E7ProcessEPNS2_23CmifDomainClientMessageISB_E15ProxyBaseObjectENS2_24OutRawClientArgumentTypeILm16ELm4EEEj = __sdk_start + 0x00000000001a484c;
silk_uniform4_iCDF = __sdk_start + 0x0000000000afeaa1;
_ZN2nn5codec28aaFractDelayPhaseFactorReQmfE = __sdk_start + 0x0000000000b0ef76;
nndetailImagePng_png_write_IEND = __sdk_start + 0x000000000006c140;
_ZN2nn7account28NetworkServiceAccountManager56RefreshCachedNetworkServiceLicenseInfoAsyncIfTimeElapsedEPbPNS0_12AsyncContextENS_8TimeSpanE = __sdk_start + 0x000000000019e460;
NvUAlloc0 = __sdk_start + 0x00000000003ebe50;
_ZN2nn2sf4hipc6detail25HipcMessageBufferAccessor13SetCopyHandleEij = __sdk_start + 0x0000000000140230;
_ZN2nn2sf4hipc6server24HipcServerSessionManager29AllocatePointerTransferBufferEPmPNS2_17HipcServerSessionE = __sdk_start + 0x0000000000144ca4;
setkey = __sdk_start + 0x000000000059ea80;
_ZTSNSt3__115time_put_bynameIwNS_19ostreambuf_iteratorIwNS_11char_traitsIwEEEEEE = __sdk_start + 0x0000000000b7939e;
_ZN2nn2fs6detail12FileAccessor25ReadWithoutCacheAccessLogEPmlPvmRKNS0_10ReadOptionE = __sdk_start + 0x000000000009ec20;
_ZN2nn2fs6detail12FileAccessorD1Ev = __sdk_start + 0x000000000009ddcc;
_ZTIN2nn2sf4hipc6server2v128HipcServerSessionManagerBaseE = __sdk_start + 0x0000000000ceb320;
_ZN2nn7account42NintendoAccountAuthorizationRequestContext6InvokeEv = __sdk_start + 0x000000000019fdd4;
_ZTSN2nn4bcat3ipc29IDeliveryCacheProgressServiceE = __sdk_start + 0x0000000000af7127;
_ZN2nn2sf4hipc6client24Hipc2ClientCoreProcessorILNS1_6detail11MessageTypeE6ENS0_4cmif6detail14CoreMethodInfoINSt3__15tupleIJNS7_18OutRawArgumentInfoILm8ELm8ELl8EEENSB_ILm1ELm1ELl0EEENS7_18BufferArgumentInfoILi0ELi33ELm0EEENS7_17InRawArgumentInfoILm4ELm4ELl0EEEEEELm4ELm16ELb0EEESI_E7ProcessEPNS2_26Hipc2ClientProxyBaseObjectENS6_6client24OutRawClientArgumentTypeILm8ELm8EEENSO_ILm1ELm1EEENSN_24BufferClientArgumentTypeENSN_23InRawClientArgumentTypeILm4ELm4EvEEj = __sdk_start + 0x0000000000354824;
_ZN2nn3ngc15ProfanityFilter15SkipAtSignCheckENS1_8SkipModeE = __sdk_start + 0x0000000000386a7c;
_ZNSt11logic_errorD2Ev = __sdk_start + 0x0000000000567170;
_ZN2nn2sf4cmif6client6detail13CmifProxyImplINS_8irsensor15IIrSensorServerENS0_4hipc6client18Hipc2ProxyKindBaseILNS7_6detail11MessageTypeE6EEENS0_25StatelessAllocationPolicyINS0_22ExpHeapStaticAllocatorILm16384ENS5_6detail14IrSensorServerEEEEES6_NS3_19ProcessModifierImplINS2_21DefaultProxyFilterTagEEEE32_nn_sf_sync_CheckFirmwareVersionENS_6applet20AppletResourceUserIdENS5_14IrCameraHandleENS5_16PackedMcuVersionE = __sdk_start + 0x00000000004c3b4c;
_ZN2nn4lmem30SetExpHeapUseMarginOfAlignmentEPNS0_6detail8HeapHeadEb = __sdk_start + 0x0000000000100c80;
_ZN2nn5audio16AcquireVoiceSlotEPNS0_19AudioRendererConfigEPNS0_9VoiceTypeEiiNS0_12SampleFormatEiPKvm = __sdk_start + 0x00000000001dae00;
_ZN2nn5codec12LdDataVectorEPiS1_i = __sdk_start + 0x00000000002b8890;
NvRmSyncCreateFromSyncpoints = __sdk_start + 0x00000000003f7e70;
_ZN2nn2sf4cmif6client6detail13CmifProxyImplINS_3hid16IHidSystemServerENS0_4hipc6client18Hipc2ProxyKindBaseILNS7_6detail11MessageTypeE6EEENS0_30MemoryResourceAllocationPolicyES6_NS3_19ProcessModifierImplINS2_21DefaultProxyFilterTagEEEE48_nn_sf_sync_AcquireConnectionTriggerTimeoutEventENS0_3OutINS0_12NativeHandleEvEE = __sdk_start + 0x00000000004b5ce4;
nndetailImagePng_png_get_sBIT = __sdk_start + 0x0000000000053ca0;
_ZN2nn6socket12SocketExemptEiii = __sdk_start + 0x00000000001475d0;
_ZTv0_n32_N7android9BpRefBase10onFirstRefEv = __sdk_start + 0x0000000000161804;
_ZN2nn5album21CloseAlbumMovieStreamENS0_17MovieStreamHandleE = __sdk_start + 0x00000000001aecb0;
_ZTSN2nn2sf6detail38ObjectImplFactoryWithStatefulAllocatorINS0_4cmif6client6detail9CmifProxyINS_5codec6detail20IHardwareOpusDecoderENS4_19CmifDomainProxyKindINS0_4hipc6client38Hipc2ClientSessionManagedProxyKindBaseINSC_18Hipc2ProxyKindBaseILNSB_6detail11MessageTypeE6EEEEEEENS0_30MemoryResourceAllocationPolicyENS5_19ProcessModifierImplINS4_21DefaultProxyFilterTagEEEvEESK_E6ObjectE = __sdk_start + 0x0000000000b0116c;
_ZN2nn2sf4hipc6client24Hipc2ClientCoreProcessorILNS1_6detail11MessageTypeE6ENS0_4cmif6detail14CoreMethodInfoINSt3__15tupleIJNS7_18OutRawArgumentInfoILm8ELm8ELl0EEENSB_ILm8ELm8ELl8EEENS7_17InRawArgumentInfoILm8ELm8ELl0EEEEEELm8ELm16ELb0EEESG_E7ProcessEPNS2_26Hipc2ClientProxyBaseObjectENS6_6client24OutRawClientArgumentTypeILm8ELm8EEESN_NSL_23InRawClientArgumentTypeILm8ELm8EvEEj = __sdk_start + 0x00000000003d9b18;
NvUHashRemove = __sdk_start + 0x00000000003eb0b0;
_ZN2nn3hid6system6detail27GetAvailableFirmwareVersionEPNS1_15FirmwareVersionENS1_11UniquePadIdE = __sdk_start + 0x00000000004a5af0;
_ZN2nn8irsensor6detail20InternalErrorHandlerD2Ev = __sdk_start + 0x00000000004c0768;
_Unwind_Backtrace = __sdk_start + 0x000000000056e9f0;
_ZN2nn5codec34GetRequiredMemRam_TransportDecoderEv = __sdk_start + 0x00000000002c3ff0;
_ZN2nn7friends12AsyncContextC1Ev = __sdk_start + 0x00000000003444b8;
_ZN2nn2sf4cmif6client6detail13CmifProxyImplINS_4nifm6detail14IStaticServiceENS2_19CmifDomainProxyKindINS0_4hipc6client38Hipc2ClientSessionManagedProxyKindBaseINSA_18Hipc2ProxyKindBaseILNS9_6detail11MessageTypeE6EEEEEEENS0_30MemoryResourceAllocationPolicyES7_NS3_19ProcessModifierImplINS2_21DefaultProxyFilterTagEEEE35_nn_sf_sync_CreateGeneralServiceOldENS0_3OutINS0_13SharedPointerINS6_15IGeneralServiceEEEvEE = __sdk_start + 0x0000000000388c04;
_ZN2nn5swkbd20SetTextCheckCallbackEPNS0_15ShowKeyboardArgEPFNS0_15TextCheckResultEPvPmPNS0_6StringEE = __sdk_start + 0x00000000003c9f20;
_ZN2nn3hid6detail35SetSevenSixAxisSensorFusionStrengthEf = __sdk_start + 0x000000000048dd40;
_ZN2nn3hid7utility36GetSixAxisSensorHandleNpadStyleIndexERKNS0_19SixAxisSensorHandleE = __sdk_start + 0x00000000004a41f0;
_ZNSt3__118__time_get_storageIwE4initERKNS_5ctypeIwEE = __sdk_start + 0x0000000000547540;
__floatunsisf = __sdk_start + 0x0000000000574910;
_ZN2nn2sf4hipc6client24Hipc2ClientCoreProcessorILNS1_6detail11MessageTypeE6ENS0_4cmif6detail14CoreMethodInfoINSt3__15tupleIJNS7_18OutRawArgumentInfoILm4ELm4ELl0EEENSB_ILm4ELm4ELl4EEENS7_17InRawArgumentInfoILm4ELm4ELl0EEENS7_18BufferArgumentInfoILi0ELi6ELm0EEENSE_ILm4ELm4ELl4EEENSE_ILm4ELm4ELl8EEENSE_ILm16ELm8ELl16EEEEEELm32ELm8ELb0EEESL_E7ProcessEPNS2_26Hipc2ClientProxyBaseObjectENS6_6client24OutRawClientArgumentTypeILm4ELm4EEESS_NSQ_23InRawClientArgumentTypeILm4ELm4EvEENSQ_24BufferClientArgumentTypeESU_SU_NST_ILm16ELm8EvEEj = __sdk_start + 0x00000000001556c0;
_ZN2nn6fontll6detail22PickFeatureTableOffsetEPKvttPKc = __sdk_start + 0x0000000000305480;
_ZN2nn5prepo27GetApplicationUploadSummaryEPmS1_ = __sdk_start + 0x00000000003a7ae0;
NvOsVfprintf = __sdk_start + 0x00000000003f1f00;
nnmem_nlib_taskgroup_destroy = __sdk_start + 0x000000000011c990;
_ZNK2nn3mii6detail11CharInfoRaw6VerifyEv = __sdk_start + 0x0000000000364e9c;
_ZN2nn2sf4cmif6client6detail13CmifProxyImplINS_4pctl6detail3ipc23IParentalControlServiceENS2_19CmifDomainProxyKindINS0_4hipc6client38Hipc2ClientSessionManagedProxyKindBaseINSB_18Hipc2ProxyKindBaseILNSA_6detail11MessageTypeE6EEEEEEENS0_30MemoryResourceAllocationPolicyES8_NS3_19ProcessModifierImplINS2_21DefaultProxyFilterTagEEEE47_nn_sf_sync_GetFreeCommunicationApplicationListENS0_3OutIivEERKNS0_8OutArrayINS5_32FreeCommunicationApplicationInfoEEEi = __sdk_start + 0x000000000039f498;
_ZN2nn5audio33GetI3dl2ReverbLateReverbDecayTimeEPKNS0_15I3dl2ReverbTypeE = __sdk_start + 0x00000000001d4910;
_ZN2nn5codec9FDKstrchrEPKci = __sdk_start + 0x00000000002ea950;
_ZNK2nn3mii27CharInfoVisualParamAccessor13GetMouthColorEv = __sdk_start + 0x0000000000362d90;
_ZN2nn2vi6detail18SystemServiceProxy39InitializeApplicationDisplayServiceImplERKNS0_13ProxyNameSafeE = __sdk_start + 0x00000000003e2100;
NvOsInterruptRegister = __sdk_start + 0x00000000003f29b0;
_ZN2nn2sf4cmif6client6detail13CmifProxyImplINS_3hid15IHidDebugServerENS0_4hipc6client18Hipc2ProxyKindBaseILNS7_6detail11MessageTypeE6EEENS0_30MemoryResourceAllocationPolicyES6_NS3_19ProcessModifierImplINS2_21DefaultProxyFilterTagEEEE31_nn_sf_sync_DeactivateDigitizerEv = __sdk_start + 0x00000000004b3210;
_ZN2nn2fs6detail22PathBasedFileDataCache6RemoveEPNS1_18FileSystemAccessorERKNS1_12FilePathHashERKNS0_4PathE = __sdk_start + 0x00000000000fc5e0;
pthread_condattr_init = __sdk_start + 0x0000000000139970;
_ZN2nn5codec19aHuffTreeRvlcEscapeE = __sdk_start + 0x0000000000b054b8;
_ZN2nn3hid15VibrationPlayer12SetDelayTimeEi = __sdk_start + 0x00000000004a053c;
_ZN2nn2fs30GetFileSystemAttributeForDebugEPNS0_3fsa19FileSystemAttributeEPKc = __sdk_start + 0x00000000000a7460;
_ZTVN3nne4nlib16NullOutputStreamE = __sdk_start + 0x0000000000cec1f8;
_ZN2nn2sf4cmif6client6detail13CmifProxyImplINS_4nifm6detail15INetworkProfileENS2_19CmifDomainProxyKindINS0_4hipc6client38Hipc2ClientSessionManagedProxyKindBaseINSA_18Hipc2ProxyKindBaseILNS9_6detail11MessageTypeE6EEEEEEENS0_30MemoryResourceAllocationPolicyES7_NS3_19ProcessModifierImplINS2_21DefaultProxyFilterTagEEEE17GetCmifBaseObjectEv = __sdk_start + 0x000000000038b19c;
_ZNSt3__113basic_istreamIwNS_11char_traitsIwEEE3getEPwl = __sdk_start + 0x0000000000511e5c;
_ZN2nn4util10SdkVersionEv = __sdk_start + 0x0000000000081670;
_ZTIN2nn2sf4cmif6client6detail13CmifProxyImplINS_2am7service18IAppletProxyCommonENS2_19CmifDomainProxyKindINS0_4hipc6client38Hipc2ClientSessionManagedProxyKindBaseINSA_18Hipc2ProxyKindBaseILNS9_6detail11MessageTypeE6EEEEEEENS0_30MemoryResourceAllocationPolicyENS6_18ISystemAppletProxyENS3_19ProcessModifierImplINS2_21DefaultProxyFilterTagEEEEE = __sdk_start + 0x0000000000cfed60;
_ZN2nn5audio22GetCompressorThresholdEPKNS0_14CompressorTypeE = __sdk_start + 0x00000000001d2cb0;
_ZThn16_N2nn2sf4cmif6client6detail13CmifProxyImplINS_5visrv2sf22IManagerDisplayServiceENS0_4hipc6client18Hipc2ProxyKindBaseILNS8_6detail11MessageTypeE6EEENS0_30MemoryResourceAllocationPolicyES7_NS3_19ProcessModifierImplINS2_21DefaultProxyFilterTagEEEE17GetCmifBaseObjectEv = __sdk_start + 0x00000000003d9b10;
nnutilZlib_deflatePending = __sdk_start + 0x0000000000071bb0;
_ZTSN2nn2fs4save18IExclusiveFileBaseE = __sdk_start + 0x0000000000ac5dda;
_ZN2nn2sf4cmif6client6detail36GetClientProcessorImplWithObjectBaseINS2_19CmifDomainProxyKindINS0_4hipc6client38Hipc2ClientSessionManagedProxyKindBaseINS7_18Hipc2ProxyKindBaseILNS6_6detail11MessageTypeE6EEEEEEENS3_19ProcessModifierImplINS2_21DefaultProxyFilterTagEEEE14ObjectAssignerINS0_30MemoryResourceAllocationPolicyENS_14MemoryResourceEE14AllocateObjectINS_2am7service7IWindowEEEvi = __sdk_start + 0x00000000001b951c;
_ZN2nn3mii6detail11CoreDataRaw15SetEyebrowScaleEi = __sdk_start + 0x00000000003685e4;
nvgr_get_format = __sdk_start + 0x0000000000422af0;
_ZTINSt3__118__time_get_storageIcEE = __sdk_start + 0x0000000000d24700;
_ZN2nn4util14AsyncExecution10InitializeEPNS0_16AbstractExecutorE = __sdk_start + 0x0000000000160a50;
_ZN7android7RefBaseC1Ev = __sdk_start + 0x0000000000191b98;
__gesf2 = __sdk_start + 0x0000000000572b30;
_ZN2nn2fs3fsa11IFileSystem18DoGetFreeSpaceSizeEPlRKNS0_4PathE = __sdk_start + 0x00000000000b53e4;
_ZN2nn2sf4cmif6client34CmifDomainProxyClientCoreProcessorINS0_4hipc6client38Hipc2ClientSessionManagedProxyKindBaseINS5_18Hipc2ProxyKindBaseILNS4_6detail11MessageTypeE6EEEEENS1_6detail14CoreMethodInfoINSt3__15tupleIJNSC_17InRawArgumentInfoILm8ELm8ELl0EEENSG_ILm8ELm8ELl8EEENSC_18BufferArgumentInfoILi0ELi5ELm0EEEEEELm16ELm0ELb1EEESL_E7ProcessEPNS2_23CmifDomainClientMessageISB_E15ProxyBaseObjectENS2_23InRawClientArgumentTypeILm8ELm8EvEEST_NS2_24BufferClientArgumentTypeEj = __sdk_start + 0x000000000037d61c;
_ZN2nn5prepo6detail17ShimLibraryGlobal10InitializeEv = __sdk_start + 0x00000000003a958c;
_ZZN2nn2sf31SimpleAllInOneHipcClientManagerILm4EE27InitializeShimLibraryHolderINS_3ntc6detail7service14IStaticServiceENS0_4cmif6client6detail19ProcessModifierImplINS9_21DefaultProxyFilterTagEEEEENS_6ResultEPNS0_23ShimLibraryObjectHolderIT_EEPKcPNS_14MemoryResourceEENUlPNS0_13SharedPointerIS7_EEE_clESP_ = __sdk_start + 0x00000000003d48d8;
_ZN2nn3hid6detail10GetXpadIdsEPiPNS0_11BasicXpadIdEi = __sdk_start + 0x000000000048d030;
_ZTSNSt3__19basic_iosIcNS_11char_traitsIcEEEE = __sdk_start + 0x0000000000b782a6;
c16rtomb = __sdk_start + 0x00000000005a4890;
_ZN2nn3grc14OpenMovieLayerEPPNS0_10MovieLayerEmii = __sdk_start + 0x0000000000351a80;
_ZTIN2nn3ssl2sf14ISslConnectionE = __sdk_start + 0x0000000000d13a80;
_ZTSN3nne4nlib12OutputStreamE = __sdk_start + 0x0000000000ad2bb5;
_ZN2nn2fs20CreateSystemSaveDataENS0_15SaveDataSpaceIdEmNS0_6UserIdEmllj = __sdk_start + 0x00000000000ddb90;
_ZN2nn3jit19CloseJitEnvironmentENS0_9JitHandleE = __sdk_start + 0x000000000035de60;
_ZN2nn4npns14InitializeImplENS0_9PortIndexE = __sdk_start + 0x00000000003909b0;
_ZN2nn4bcat26DeleteDeliveryCacheStorageENS_13ApplicationIdE = __sdk_start + 0x0000000000233fd0;
_ZN2nn4util6detail15DeallocateBytesEPFvPvES2_ = __sdk_start + 0x000000000007e980;
_ZTSN2nn5audio6detail28IAudioSystemManagerForAppletE = __sdk_start + 0x0000000000aeed1e;
_ZN2nn5audio6server38CommandProcessingTimeEstimatorVersion38EstimateERKNS0_19DepopPrepareCommandE = __sdk_start + 0x0000000000213f14;
_ZN2nn2oe17FinishStartupLogoEv = __sdk_start + 0x0000000000397440;
_ZN2nn8profiler42ReplyAndReceiveWithUserBufferInterceptExitENS_6ResultEPimmPKNS_3svc6HandleEiS4_l = __sdk_start + 0x00000000003ab6b0;
_ZNK2nn5audio6server12BehaviorInfo18GetUserLibRevisionEv = __sdk_start + 0x0000000000219050;
_ZNK2nn2sf13SharedPointerINS_4npns24ICreateTokenAsyncContextEE19FunctionForBoolTypeEv = __sdk_start + 0x000000000039086c;
_ZN2nn2sf4cmif6client6detail13CmifProxyImplINS_3ntc6detail7service14IStaticServiceENS0_4hipc6client18Hipc2ProxyKindBaseILNS9_6detail11MessageTypeE6EEENS0_30MemoryResourceAllocationPolicyES8_NS3_19ProcessModifierImplINS2_21DefaultProxyFilterTagEEEE12GetProxyInfoEv = __sdk_start + 0x00000000003d4b40;
_ZNSt3__117__assoc_sub_state28set_exception_at_thread_exitESt13exception_ptr = __sdk_start + 0x00000000004f8b68;
_ZN2nn2fs18RomFsFileDataCacheD0Ev = __sdk_start + 0x00000000000fdb14;
_ZN2nn9bluetooth3hal21AddGattCharacteristicEhRKNS0_17GattAttributeUuidES4_th = __sdk_start + 0x000000000023d590;
_ZN2nn2sf4cmif6client34CmifDomainProxyClientCoreProcessorINS0_4hipc6client38Hipc2ClientSessionManagedProxyKindBaseINS5_18Hipc2ProxyKindBaseILNS4_6detail11MessageTypeE6EEEEENS1_6detail14CoreMethodInfoINSt3__15tupleIJNSC_18OutRawArgumentInfoILm8ELm1ELl0EEENSC_17InRawArgumentInfoILm16ELm8ELl0EEENSI_ILm8ELm8ELl16EEEEEELm24ELm8ELb0EEESL_E7ProcessEPNS2_23CmifDomainClientMessageISB_E15ProxyBaseObjectENS2_24OutRawClientArgumentTypeILm8ELm1EEENS2_23InRawClientArgumentTypeILm16ELm8EvEENSU_ILm8ELm8EvEEj = __sdk_start + 0x000000000034a078;
_ZN2nn3mii6detail12StoreDataRaw9SetMouthYEi = __sdk_start + 0x000000000036c83c;
_ZN2nn2sf4cmif6client6detail13CmifProxyImplINS_4pctl6detail3ipc23IParentalControlServiceENS2_19CmifDomainProxyKindINS0_4hipc6client38Hipc2ClientSessionManagedProxyKindBaseINSB_18Hipc2ProxyKindBaseILNSA_6detail11MessageTypeE6EEEEEEENS0_30MemoryResourceAllocationPolicyES8_NS3_19ProcessModifierImplINS2_21DefaultProxyFilterTagEEEE22_nn_sf_sync_GetPinCodeENS0_3OutIivEERKNS0_8OutArrayIcEE = __sdk_start + 0x000000000039f5b4;
_ZN2nn4util6detail7msgpack20WriteSignedInteger16EPNS0_17MessagePackWriter11StreamParamEs = __sdk_start + 0x0000000000081000;
_ZN2nn2fs6detail50DisableSessionForRealtimeOnlyAndChangeSessionCountEi = __sdk_start + 0x00000000000ba610;
_ZN2nn4lmem6detail14FreeToUnitHeapEPNS1_8HeapHeadEPv = __sdk_start + 0x0000000000102d10;
_ZN2nn5codec12applyLimiterEPNS0_9TDLimiterEPsPiPKijjj = __sdk_start + 0x00000000002c6600;
_ZN2nn2sf4cmif6client6detail13CmifProxyImplINS_8settings21ISystemSettingsServerENS0_4hipc6client18Hipc2ProxyKindBaseILNS7_6detail11MessageTypeE6EEENS0_30MemoryResourceAllocationPolicyES6_NS3_19ProcessModifierImplINS2_21DefaultProxyFilterTagEEEE36_nn_sf_sync_GetUsb30DeviceEnableFlagENS0_3OutIbvEE = __sdk_start + 0x00000000003bbcc8;
_ZTSN2nn2sf4cmif6client6detail9CmifProxyINS_7timesrv6detail7service12ISteadyClockENS2_19CmifDomainProxyKindINS0_4hipc6client38Hipc2ClientSessionManagedProxyKindBaseINSB_18Hipc2ProxyKindBaseILNSA_6detail11MessageTypeE6EEEEEEENS0_30MemoryResourceAllocationPolicyENS3_19ProcessModifierImplINS2_21DefaultProxyFilterTagEEEvEE = __sdk_start + 0x0000000000b37db0;
_ZN2nn3mem19NumberLineAllocator11RemoveRangeEii = __sdk_start + 0x00000000001275fc;
_ZN2nn5audio6server16CommandGenerator32GenerateI3dl2ReverbEffectCommandEiRNS1_14EffectInfoBaseEj = __sdk_start + 0x000000000020fbe8;
_ZN2nn7friends30EnsureBlockedUserListAvailableEPNS0_12AsyncContextERKNS_7account3UidE = __sdk_start + 0x00000000003428c0;
_ZN2nn8settings6detail16GetPctlReadyFlagEPb = __sdk_start + 0x00000000003b85a0;
_ZNK2nn2sf13SharedPointerINS_3ldn6detail26ILocalCommunicationServiceEE19FunctionForBoolTypeEv = __sdk_start + 0x00000000004dacb8;
__aarch64_ldadd4_acq = __sdk_start + 0x000000000057cc00;
_ZN2nn6socket10GetSockOptEiiiPvPj = __sdk_start + 0x0000000000147520;
_ZN2nn8irsensor6detail15IrSensorSession12GetImageSizeENS0_28ImageTransferProcessorFormatE = __sdk_start + 0x00000000004c1770;
_ZNSt14overflow_errorD1Ev = __sdk_start + 0x0000000000567210;
_ZNK2nn2os6detail26ThreadManagerImplByHorizon13MapAliasStackEPPvPKvm = __sdk_start + 0x00000000001364fc;
_ZN2nn5audio6server12SplitterInfoC1Ei = __sdk_start + 0x000000000021d2e8;
_ZN2nn9bluetooth3hal14CircularBuffer14_setReadOffsetEi = __sdk_start + 0x000000000023f284;
_ZNK2nn3mii6detail11CoreDataRaw11GetEyeColorEv = __sdk_start + 0x000000000036901c;
_ZN2nn8settings6system27GetButtonConfigSettingsLeftEPNS1_20ButtonConfigSettingsEi = __sdk_start + 0x00000000003ad7f0;
_ZN2nn3ngc1t21SetupForSystemServiceEv = __sdk_start + 0x00000000004dd9e0;
_ZN2nn2fs30GetGameCardUpdatePartitionInfoEPNS0_27GameCardUpdatePartitionInfoEj = __sdk_start + 0x00000000000d00c0;
_ZNK2nn5audio11SinkManager15IsValidSinkInfoEPKNS0_8SinkInfoE = __sdk_start + 0x00000000001d97d8;
_ZN2nn3hid6system6detail21IsDefaultButtonConfigEPbRKNS_9hidconfig20ButtonConfigEmbeddedE = __sdk_start + 0x00000000004a6010;
_ZN2nn4util16AbstractExecutor8RegisterEPNS0_10ExecutableE = __sdk_start + 0x0000000000160794;
_ZN2nn2sf4cmif6client6detail13CmifProxyImplINS_2am7service22IAppletCommonFunctionsENS2_19CmifDomainProxyKindINS0_4hipc6client38Hipc2ClientSessionManagedProxyKindBaseINSA_18Hipc2ProxyKindBaseILNS9_6detail11MessageTypeE6EEEEEEENS0_30MemoryResourceAllocationPolicyES7_NS3_19ProcessModifierImplINS2_21DefaultProxyFilterTagEEEE43_nn_sf_sync_GetHomeButtonDoubleClickEnabledENS0_3OutIbvEE = __sdk_start + 0x00000000001bde10;
_ZN2nn5audio6server18PerformanceManager8TapFrameEbil = __sdk_start + 0x000000000021843c;
_ZN2nn2sf4cmif6client6detail13CmifProxyImplINS_3nsd6detail8IManagerENS0_4hipc6client18Hipc2ProxyKindBaseILNS8_6detail11MessageTypeE6EEENS0_30MemoryResourceAllocationPolicyES7_NS3_19ProcessModifierImplINS2_21DefaultProxyFilterTagEEEE26_nn_sf_sync_ImportSettingsERKNS0_8InBufferERKNS0_9OutBufferEi = __sdk_start + 0x0000000000395fec;
_ZN2nn2fs6detail14InitialDataAad4SizeE = __sdk_start + 0x0000000000ace0a0;
_ZN2nn2sf4hipc6client24Hipc2ClientCoreProcessorILNS1_6detail11MessageTypeE6ENS0_4cmif6detail14CoreMethodInfoINSt3__15tupleIJNS7_18OutRawArgumentInfoILm4ELm4ELl0EEENS7_17InRawArgumentInfoILm4ELm4ELl0EEEEEELm4ELm4ELb0EEESF_E7ProcessEPNS2_26Hipc2ClientProxyBaseObjectENS6_6client24OutRawClientArgumentTypeILm4ELm4EEENSK_23InRawClientArgumentTypeILm4ELm4EvEEj = __sdk_start + 0x0000000000100300;
_ZN2nn2sf4cmif6client6detail13CmifProxyImplINS_2am7service15ISelfControllerENS2_19CmifDomainProxyKindINS0_4hipc6client38Hipc2ClientSessionManagedProxyKindBaseINSA_18Hipc2ProxyKindBaseILNS9_6detail11MessageTypeE6EEEEEEENS0_30MemoryResourceAllocationPolicyES7_NS3_19ProcessModifierImplINS2_21DefaultProxyFilterTagEEEE16_nn_sf_sync_ExitEv = __sdk_start + 0x00000000001b7bb8;
_ZN2nn5audio26GetAudioRendererSampleRateENS0_19AudioRendererHandleE = __sdk_start + 0x00000000001e0f50;
_ZN2nn2sf4cmif6client6detail13CmifProxyImplINS_7timesrv6detail7service14IStaticServiceENS2_19CmifDomainProxyKindINS0_4hipc6client38Hipc2ClientSessionManagedProxyKindBaseINSB_18Hipc2ProxyKindBaseILNSA_6detail11MessageTypeE6EEEEEEENS0_30MemoryResourceAllocationPolicyES8_NS3_19ProcessModifierImplINS2_21DefaultProxyFilterTagEEEE68_nn_sf_sync_GetStandardUserSystemClockAutomaticCorrectionUpdatedTimeENS0_3OutINS_4time20SteadyClockTimePointEvEE = __sdk_start + 0x00000000003d1abc;
_ZN2nn3hid6detail24NpadSharedMemoryAccessor6DetachEv = __sdk_start + 0x0000000000491700;
_ZN2nn2sf4cmif6client6detail13CmifProxyImplINS_3hid15IHidDebugServerENS0_4hipc6client18Hipc2ProxyKindBaseILNS7_6detail11MessageTypeE6EEENS0_30MemoryResourceAllocationPolicyES6_NS3_19ProcessModifierImplINS2_21DefaultProxyFilterTagEEEE21_nn_sf_sync_GetWhoAmIENS0_3OutINS5_5debug11WhoAmIValueEvEENS_6applet20AppletResourceUserIdE = __sdk_start + 0x00000000004b2e38;
_ZN2nn8irsensor27GetClusteringProcessorStateEPNS0_24ClusteringProcessorStateERKNS0_14IrCameraHandleE = __sdk_start + 0x00000000004c2570;
_ZNSt3__115basic_stringbufIcNS_11char_traitsIcEENS_9allocatorIcEEE9pbackfailEi = __sdk_start + 0x000000000051591c;
_ZNKSt3__120__time_get_c_storageIcE3__xEv = __sdk_start + 0x000000000054566c;
_ZN2nn8settings25GetAvailableLanguageCodesEPNS0_12LanguageCodeEi = __sdk_start + 0x00000000003ae940;
towctrans = __sdk_start + 0x00000000005a01b0;
_ZN7android6Thread3runEPKcim = __sdk_start + 0x0000000000194f44;
_ZTIN2nn2sf6detail38ObjectImplFactoryWithStatefulAllocatorINS0_4cmif6client6detail9CmifProxyINS_2am7service17IApplicationProxyENS4_19CmifDomainProxyKindINS0_4hipc6client38Hipc2ClientSessionManagedProxyKindBaseINSC_18Hipc2ProxyKindBaseILNSB_6detail11MessageTypeE6EEEEEEENS0_30MemoryResourceAllocationPolicyENS5_19ProcessModifierImplINS4_21DefaultProxyFilterTagEEEvEESK_E6ObjectE = __sdk_start + 0x0000000000d01900;
_ZN2nn5audio12RemoveReverbEPNS0_19AudioRendererConfigEPNS0_10ReverbTypeEPNS0_12FinalMixTypeE = __sdk_start + 0x00000000001d6940;
NvRmGpuRegOpsSessionSetSmpcContextSwitchMode = __sdk_start + 0x00000000004359b0;
_ZTVN2nn2fs10SubStorageE = __sdk_start + 0x0000000000ce6580;
_ZN2nn2sf4hipc6server18Hipc2ServerMessage13SetOutObjectsEPNS0_4cmif6server20CmifServerObjectInfoE = __sdk_start + 0x00000000001425c0;
_ZN2nn5codec24GetOpusEncoderSampleRateEPKNS0_15OpusEncoderTypeE = __sdk_start + 0x0000000000296340;
_ZN2nn5codec24slotBasedHybridSynthesisEPiS1_S1_S1_PNS0_6HYBRIDE = __sdk_start + 0x00000000002e29b0;
_ZN2nn7account8NotifierC1Ev = __sdk_start + 0x00000000001a0440;
_ZN2nn5audio3dsp28ApplyDoubleBiquadFilterFloatEPiPKiPKsS6_PNS0_17BiquadFilterStateES6_S6_S8_i = __sdk_start + 0x0000000000221b40;
_ZNK2nn9bluetooth13GattAttribute7GetUuidEv = __sdk_start + 0x0000000000246294;
_ZN2nn2sf4cmif6client34CmifDomainProxyClientCoreProcessorINS0_4hipc6client38Hipc2ClientSessionManagedProxyKindBaseINS5_18Hipc2ProxyKindBaseILNS4_6detail11MessageTypeE6EEEEENS1_6detail14CoreMethodInfoINSt3__15tupleIJNSC_18OutRawArgumentInfoILm8ELm8ELl0EEENSC_18BufferArgumentInfoILi0ELi5ELm0EEENSC_17InRawArgumentInfoILm4ELm4ELl0EEEEEELm4ELm8ELb0EEESM_E7ProcessEPNS2_23CmifDomainClientMessageISB_E15ProxyBaseObjectENS2_24OutRawClientArgumentTypeILm8ELm8EEENS2_24BufferClientArgumentTypeENS2_23InRawClientArgumentTypeILm4ELm4EvEEj = __sdk_start + 0x00000000003c7144;
_ZN2nn6hidbus6detail23GetClientResourceHolderEv = __sdk_start + 0x00000000004bbb30;
_ZNSt20bad_array_new_lengthD2Ev = __sdk_start + 0x0000000000567084;
_ZN2nn5image11JpegEncoder10SetQualityEi = __sdk_start + 0x000000000004a4ac;
_ZN2nn4util43GetLengthOfConvertedStringUtf8ToUtf16NativeEPiPKc = __sdk_start + 0x0000000000085dc0;
_ZN2nn2fs11MountSdCardEPKc = __sdk_start + 0x00000000000e3460;
_ZZN3nne9rapidjson4UTF8IcE8GetRangeEhE4type = __sdk_start + 0x0000000000b0f9fa;
_ZN2nn3mii6detail16Ver3StoreDataRaw11SetFaceMakeEi = __sdk_start + 0x00000000003736ec;
_ZN2nn4npns17ListenUndeliveredEv = __sdk_start + 0x0000000000390d10;
_ZN2nn2oe36EndHandlingCaptureButtonShortPressedEv = __sdk_start + 0x0000000000397500;
_ZN2nn2sf4cmif6client6detail13CmifProxyImplINS_3hid16IHidSystemServerENS0_4hipc6client18Hipc2ProxyKindBaseILNS7_6detail11MessageTypeE6EEENS0_30MemoryResourceAllocationPolicyES6_NS3_19ProcessModifierImplINS2_21DefaultProxyFilterTagEEEE17GetCmifBaseObjectEv = __sdk_start + 0x00000000004b6514;
_ZN2nn7friends6detail21EnableCheckUserStatusEb = __sdk_start + 0x0000000000345140;
NvUHashInsert = __sdk_start + 0x00000000003ead40;
_ZN2nn3web16ShowSharePageArgC2ENS0_14ShareStartPageE = __sdk_start + 0x00000000004df3a0;
_ZNSt3__112basic_stringIcNS_11char_traitsIcEENS_9allocatorIcEEEC1ERKS5_mmRKS4_ = __sdk_start + 0x0000000000500004;
_ZN2nn2sf4cmif6client6detail13CmifProxyImplINS_4bcat3ipc12IBcatServiceENS2_19CmifDomainProxyKindINS0_4hipc6client38Hipc2ClientSessionManagedProxyKindBaseINSA_18Hipc2ProxyKindBaseILNS9_6detail11MessageTypeE6EEEEEEENS0_30MemoryResourceAllocationPolicyES7_NS3_19ProcessModifierImplINS2_21DefaultProxyFilterTagEEEE40_nn_sf_sync_GetDeliveryCacheStorageUsageENS0_3OutINS5_25DeliveryCacheStorageUsageEvEENS_13ApplicationIdE = __sdk_start + 0x0000000000237e5c;
_ZN2nn3err24ConvertResultToErrorCodeERKNS_6ResultE = __sdk_start + 0x00000000002fc4c0;
_ZN2nn8settings31SetApplicationOwnKeyboardLayoutENS0_14KeyboardLayoutE = __sdk_start + 0x00000000003ae8e0;
_ZN2nn2sf4cmif6client6detail13CmifProxyImplINS_8settings24ISettingsItemKeyIteratorENS0_4hipc6client18Hipc2ProxyKindBaseILNS7_6detail11MessageTypeE6EEENS0_30MemoryResourceAllocationPolicyES6_NS3_19ProcessModifierImplINS2_21DefaultProxyFilterTagEEEE17GetCmifBaseObjectEv = __sdk_start + 0x00000000003b62f0;
_ZTSN2nn2sf4cmif6client6detail9CmifProxyINS_3ntc6detail7service14IStaticServiceENS0_4hipc6client18Hipc2ProxyKindBaseILNS9_6detail11MessageTypeE6EEENS0_30MemoryResourceAllocationPolicyENS3_19ProcessModifierImplINS2_21DefaultProxyFilterTagEEEvEE = __sdk_start + 0x0000000000b386d0;
_ZN2nn6hidbus10InitializeERKNS0_9BusHandleE = __sdk_start + 0x00000000004ba3f0;
__aarch64_swp1_rel = __sdk_start + 0x000000000057c7b0;
_ZN2nn2sf4cmif6client6detail13CmifProxyImplINS_5visrv2sf22IManagerDisplayServiceENS0_4hipc6client18Hipc2ProxyKindBaseILNS8_6detail11MessageTypeE6EEENS0_30MemoryResourceAllocationPolicyES7_NS3_19ProcessModifierImplINS2_21DefaultProxyFilterTagEEEE34_nn_sf_sync_GetCompositorErrorInfoENS0_3OutINS_2vi15CompositorErrorEvEENSJ_IivEElm = __sdk_start + 0x00000000003d96e0;
_ZN2nn3hid6system22InitializeAudioControlEv = __sdk_start + 0x00000000004add20;
_ZN2nn2sf13SharedPointerINS_5fssrv2sf16IProgramRegistryEED2Ev = __sdk_start + 0x00000000000ba5d4;
_ZN2nn5audio3dsp22ApplyBiquadFilterFloatEPiPKiPKsS6_PNS0_17BiquadFilterStateEi = __sdk_start + 0x0000000000221220;
_ZN2nn2sf4cmif6client6detail13CmifProxyImplINS_8irsensor15IIrSensorServerENS0_4hipc6client18Hipc2ProxyKindBaseILNS7_6detail11MessageTypeE6EEENS0_25StatelessAllocationPolicyINS0_22ExpHeapStaticAllocatorILm16384ENS5_6detail14IrSensorServerEEEEES6_NS3_19ProcessModifierImplINS2_21DefaultProxyFilterTagEEEE34_nn_sf_sync_RunTeraPluginProcessorENS_6applet20AppletResourceUserIdENS5_14IrCameraHandleENS5_31PackedTeraPluginProcessorConfigE = __sdk_start + 0x00000000004c3b0c;
__floatunsitf = __sdk_start + 0x0000000000570ce0;
_ZTVN2nn2fs21WritableRomFileSystem20WritableRomDirectoryE = __sdk_start + 0x0000000000ce72f0;
_ZN7android12NativeHandleD2Ev = __sdk_start + 0x000000000019160c;
_ZN2nn3ssl6detail14ServiceSession22g_SystemServiceSessionE = __sdk_start + 0x0000000000dc9f80;
_ZN2nn2sf4cmif6client6detail13CmifProxyImplINS_3ssl2sf11ISslContextENS2_19CmifDomainProxyKindINS0_4hipc6client38Hipc2ClientSessionManagedProxyKindBaseINSA_18Hipc2ProxyKindBaseILNS9_6detail11MessageTypeE6EEEEEEENS0_24StatefulAllocationPolicyINS0_16ExpHeapAllocatorEEES7_NS3_19ProcessModifierImplINS2_21DefaultProxyFilterTagEEEE28_nn_sf_sync_CreateConnectionENS0_3OutINS0_13SharedPointerINS6_14ISslConnectionEEEvEE = __sdk_start + 0x00000000003c5a30;
_ZTVN2nn2sf6detail38ObjectImplFactoryWithStatefulAllocatorINS0_4cmif6client6detail9CmifProxyIN3nns9hosbinder16IHOSBinderDriverENS0_4hipc6client18Hipc2ProxyKindBaseILNSA_6detail11MessageTypeE6EEENS0_30MemoryResourceAllocationPolicyENS5_19ProcessModifierImplINS4_21DefaultProxyFilterTagEEEvEESG_E6ObjectE = __sdk_start + 0x0000000000d14e88;
_ZN2nn2os24SdkConditionVariableType4WaitERNS0_12SdkMutexTypeE = __sdk_start + 0x000000000012e5f8;
nncodecLibopus_opus_custom_mode_create = __sdk_start + 0x0000000000262220;
_ZTSN2nn7friends6detail13AsyncFunctionIJPNS1_3ipc14IFriendServiceENS_7account3UidENS6_23NetworkServiceAccountIdENS0_15InAppScreenNameES9_EEE = __sdk_start + 0x0000000000b129a4;
_ZN2nn2sf4cmif6client6detail13CmifProxyImplINS_4olsc3srv14IAsyncListDataENS2_19CmifDomainProxyKindINS0_4hipc6client38Hipc2ClientSessionManagedProxyKindBaseINSA_18Hipc2ProxyKindBaseILNS9_6detail11MessageTypeE6EEEEEEENS0_25StatelessAllocationPolicyINS0_22ExpHeapStaticAllocatorILm2048ENS5_6detail12ObjectHolder24ObjectHolderAllocatorTagEEEEES7_NS3_19ProcessModifierImplINS2_21DefaultProxyFilterTagEEEE19_nn_sf_sync_GetDataENS0_3OutIivEERKNS0_8OutArrayINS5_18SaveDataBackupInfoEEEi = __sdk_start + 0x000000000039b2e4;
_ZN2nn5prepo10PlayReport3AddEPKcRKNS0_6StructE = __sdk_start + 0x00000000003a8648;
_ZTIN2nn2sf4cmif6client6detail9CmifProxyINS_8settings28IFirmwareDebugSettingsServerENS0_4hipc6client18Hipc2ProxyKindBaseILNS7_6detail11MessageTypeE6EEENS0_30MemoryResourceAllocationPolicyENS3_19ProcessModifierImplINS2_21DefaultProxyFilterTagEEEvEE = __sdk_start + 0x0000000000d12528;
_ZN2nn2sf4cmif6client6detail13CmifProxyImplINS_5visrv2sf19IManagerRootServiceENS0_4hipc6client18Hipc2ProxyKindBaseILNS8_6detail11MessageTypeE6EEENS0_30MemoryResourceAllocationPolicyES7_NS3_19ProcessModifierImplINS2_21DefaultProxyFilterTagEEEE12GetProxyInfoEv = __sdk_start + 0x00000000003dc720;
_ZTIN2nn2sf4cmif6client6detail13CmifProxyImplINS_3mii6detail21IImageDatabaseServiceENS0_4hipc6client18Hipc2ProxyKindBaseILNS8_6detail11MessageTypeE6EEENS0_30MemoryResourceAllocationPolicyES7_NS3_19ProcessModifierImplINS2_21DefaultProxyFilterTagEEEEE = __sdk_start + 0x0000000000d0d258;
_ZN2nn8irsensor6detail18InitializeIrCameraERKNS0_21IrSensorFunctionLevelERKNS0_14IrCameraHandleEb = __sdk_start + 0x00000000004bd110;
_ZN2nn2fs6detail24SaveDataImporterVersion2D0Ev = __sdk_start + 0x00000000000f577c;
_ZN2nn2sf4cmif6client6detail13CmifProxyImplINS_2am7service18IHomeMenuFunctionsENS2_19CmifDomainProxyKindINS0_4hipc6client38Hipc2ClientSessionManagedProxyKindBaseINSA_18Hipc2ProxyKindBaseILNS9_6detail11MessageTypeE6EEEEEEENS0_30MemoryResourceAllocationPolicyES7_NS3_19ProcessModifierImplINS2_21DefaultProxyFilterTagEEEE41_nn_sf_sync_GetPopFromGeneralChannelEventENS0_3OutINS0_12NativeHandleEvEE = __sdk_start + 0x00000000001bc624;
_ZTIN2nn3nim6detail33IShopServiceAccessSystemInterfaceE = __sdk_start + 0x0000000000d09908;
_ZN2nn3hid23VibrationNodeConnectionC1EPNS0_13VibrationNodeES3_ = __sdk_start + 0x000000000049fe98;
_ZNSt3__112basic_stringIcNS_11char_traitsIcEENS_9allocatorIcEEE9push_backEc = __sdk_start + 0x00000000005002dc;
dgettext = __sdk_start + 0x000000000057de80;
_ZN7android21SurfaceComposerClient13getBrightnessERKNS_2spINS_7IBinderEEERf = __sdk_start + 0x000000000018b004;
_ZN2nn2sf13SharedPointerINS_5audio6detail30IAudioSystemManagerForDebuggerEED2Ev = __sdk_start + 0x00000000001e0810;
_ZN2nn2sf4cmif6client6detail13CmifProxyImplINS_5codec6detail20IHardwareOpusDecoderENS2_19CmifDomainProxyKindINS0_4hipc6client38Hipc2ClientSessionManagedProxyKindBaseINSA_18Hipc2ProxyKindBaseILNS9_6detail11MessageTypeE6EEEEEEENS0_30MemoryResourceAllocationPolicyES7_NS3_19ProcessModifierImplINS2_21DefaultProxyFilterTagEEEE22_nn_sf_sync_SetContextERKNS0_8InBufferE = __sdk_start + 0x0000000000297d5c;
_ZN2nn3nsd14ImportSettingsEPKvmPvmNS0_10ImportModeE = __sdk_start + 0x00000000003944b0;
_ZN2nn2sf4cmif6client6detail13CmifProxyImplINS_3hid16IHidSystemServerENS0_4hipc6client18Hipc2ProxyKindBaseILNS7_6detail11MessageTypeE6EEENS0_30MemoryResourceAllocationPolicyES6_NS3_19ProcessModifierImplINS2_21DefaultProxyFilterTagEEEE45_nn_sf_sync_AcquireNfcDeviceUpdateEventHandleENS0_3OutINS0_12NativeHandleEvEE = __sdk_start + 0x00000000004b5920;
_ZNSt3__15ctypeIcEC1EPKtbm = __sdk_start + 0x000000000053d1b0;
nndetailImagePng_png_set_expand_16 = __sdk_start + 0x000000000005b380;
_ZN2nn5async6detail9AwaitImplEPNS0_13ResumeBlockerE = __sdk_start + 0x000000000008abb0;
_ZNK2nn5audio6server11AddressInfo19HasMappedMemoryPoolEv = __sdk_start + 0x000000000021b320;
_ZN2nn3ntc4shim30EnsureNetworkClockAvailabilityEv = __sdk_start + 0x00000000003d44d0;
_ZN2nn5async6detail19TaskCoordinatorBaseD0Ev = __sdk_start + 0x000000000008a3dc;
_ZN2nn2fs24HierarchicalRomFileTable17FindNextDirectoryEPcPNS1_12FindPositionEm = __sdk_start + 0x00000000000ec760;
_ZN2nn2sf4hipc25AttachWaitHolderForAcceptEPNS_2os19MultiWaitHolderTypeENS_3svc6HandleE = __sdk_start + 0x0000000000145d20;
_ZN2nn5codec12ResetPsDeCorEPNS0_6PS_DECE = __sdk_start + 0x00000000002dbb30;
_ZN2nn2sf4cmif6client6detail13CmifProxyImplINS_2am7service18IDisplayControllerENS2_19CmifDomainProxyKindINS0_4hipc6client38Hipc2ClientSessionManagedProxyKindBaseINSA_18Hipc2ProxyKindBaseILNS9_6detail11MessageTypeE6EEEEEEENS0_30MemoryResourceAllocationPolicyES7_NS3_19ProcessModifierImplINS2_21DefaultProxyFilterTagEEEE39_nn_sf_sync_GetCallerAppletCaptureImageERKNS0_9OutBufferE = __sdk_start + 0x00000000001b9a2c;
_ZN2nn2sf4hipc6client24Hipc2ClientCoreProcessorILNS1_6detail11MessageTypeE6ENS0_4cmif6detail14CoreMethodInfoINSt3__15tupleIJNS7_18OutRawArgumentInfoILm1ELm1ELl0EEENS7_17InRawArgumentInfoILm8ELm8ELl0EEENSD_ILm8ELm8ELl8EEEEEELm16ELm1ELb1EEESG_E7ProcessEPNS2_26Hipc2ClientProxyBaseObjectENS6_6client24OutRawClientArgumentTypeILm1ELm1EEENSL_23InRawClientArgumentTypeILm8ELm8EvEESP_j = __sdk_start + 0x00000000001c7648;
_ZN2nn5audio25SetI3dl2ReverbInputOutputEPNS0_15I3dl2ReverbTypeEPKaS4_i = __sdk_start + 0x00000000001d4410;
_ZTVN2nn2sf6detail38ObjectImplFactoryWithStatefulAllocatorINS0_4cmif6client6detail9CmifProxyINS_4nifm6detail12IScanRequestENS4_19CmifDomainProxyKindINS0_4hipc6client38Hipc2ClientSessionManagedProxyKindBaseINSC_18Hipc2ProxyKindBaseILNSB_6detail11MessageTypeE6EEEEEEENS0_30MemoryResourceAllocationPolicyENS5_19ProcessModifierImplINS4_21DefaultProxyFilterTagEEEvEESK_E6ObjectE = __sdk_start + 0x0000000000d0eab0;
wcscat = __sdk_start + 0x00000000005af210;
_ZN2nn5async6detail20ImmediateFutureStateIvE21AttachCompletionEventEPNS_2os19MultiWaitHolderTypeE = __sdk_start + 0x000000000008b65c;
_ZN2nn2sf4cmif6client34CmifDomainProxyClientCoreProcessorINS0_4hipc6client38Hipc2ClientSessionManagedProxyKindBaseINS5_18Hipc2ProxyKindBaseILNS4_6detail11MessageTypeE6EEEEENS1_6detail14CoreMethodInfoINSt3__15tupleIJNSC_17InRawArgumentInfoILm8ELm8ELl0EEENSC_18BufferArgumentInfoILi0ELi34ELm0EEEEEELm8ELm0ELb0EEESK_E7ProcessEPNS2_23CmifDomainClientMessageISB_E15ProxyBaseObjectENS2_23InRawClientArgumentTypeILm8ELm8EvEENS2_24BufferClientArgumentTypeEj = __sdk_start + 0x00000000001b8e80;
_ZTIN2nn2sf4cmif6client6detail13CmifProxyImplINS_2am7service18ISystemAppletProxyENS2_19CmifDomainProxyKindINS0_4hipc6client38Hipc2ClientSessionManagedProxyKindBaseINSA_18Hipc2ProxyKindBaseILNS9_6detail11MessageTypeE6EEEEEEENS0_30MemoryResourceAllocationPolicyES7_NS3_19ProcessModifierImplINS2_21DefaultProxyFilterTagEEEEE = __sdk_start + 0x0000000000cfedc0;
_ZN2nn5codec11FDKaalloc_LEjjNS0_14MEMORY_SECTIONE = __sdk_start + 0x00000000002eb890;
_ZN2nn8irsensor6detail20RunPointingProcessorERKNS0_14IrCameraHandleE = __sdk_start + 0x00000000004bec50;
_ZN2nn2sf4cmif6client6detail13CmifProxyImplINS_2am7service13ILockAccessorENS2_19CmifDomainProxyKindINS0_4hipc6client38Hipc2ClientSessionManagedProxyKindBaseINSA_18Hipc2ProxyKindBaseILNS9_6detail11MessageTypeE6EEEEEEENS0_30MemoryResourceAllocationPolicyES7_NS3_19ProcessModifierImplINS2_21DefaultProxyFilterTagEEEE20_nn_sf_sync_IsLockedENS0_3OutIbvEE = __sdk_start + 0x00000000001b7328;
_ZTSN2nn5audio6detail27IFinalOutputRecorderManagerE = __sdk_start + 0x0000000000aef69c;
_ZN2nn3mii11AppletInput27InitializeForAppendMiiImageEPKNS_4util4UuidEii = __sdk_start + 0x000000000037c3ec;
_ZN2nn2sf4cmif6client6detail13CmifProxyImplINS_4nifm6detail8IRequestENS2_19CmifDomainProxyKindINS0_4hipc6client38Hipc2ClientSessionManagedProxyKindBaseINSA_18Hipc2ProxyKindBaseILNS9_6detail11MessageTypeE6EEEEEEENS0_30MemoryResourceAllocationPolicyES7_NS3_19ProcessModifierImplINS2_21DefaultProxyFilterTagEEEE25_nn_sf_sync_SetPersistentEb = __sdk_start + 0x000000000038980c;
_ZN2nn5audio26SetPerformanceDetailTargetEPNS0_19AudioRendererConfigEPKNS0_9VoiceTypeE = __sdk_start + 0x00000000001d8dc0;
_ZN2nn8profiler26ArbitrateLockInterceptExitENS_6ResultENS_3svc6HandleENS0_13SyncPrimitiveIS3_EEj = __sdk_start + 0x00000000003ab590;
_ZN2nn2sf4cmif6client6detail13CmifProxyImplINS_8settings28IFirmwareDebugSettingsServerENS0_4hipc6client18Hipc2ProxyKindBaseILNS7_6detail11MessageTypeE6EEENS0_30MemoryResourceAllocationPolicyES6_NS3_19ProcessModifierImplINS2_21DefaultProxyFilterTagEEEE17GetCmifBaseObjectEv = __sdk_start + 0x00000000003b5af0;
_ZN2nn3ssl6detail16SslMemoryManager10InitializeEPcm = __sdk_start + 0x00000000003c88f0;
_ZNSt3__17collateIwED1Ev = __sdk_start + 0x00000000005193c4;
_ZN2nn3htc13ServiceHolder14RunOnHostStartENS_2sf3OutIjvEENS3_INS2_12NativeHandleEvEERKNS2_8InBufferE = __sdk_start + 0x00000000000ff744;
_ZN2nn5swkbd18ConvertUtf8ToUtf16EPviPKc = __sdk_start + 0x00000000003c8a90;
_ZNSt3__16__sortIRNS_6__lessIeeEEPeEEvT0_S5_T_ = __sdk_start + 0x00000000004eb780;
_ZNK2nn3mii6detail16Ver3StoreDataRaw11GetEyeColorEv = __sdk_start + 0x000000000036e27c;
nndetailImageJpeg_jinit_forward_dct = __sdk_start + 0x0000000000017a70;
_ZN2nn4bcat21DeliveryCacheProgressC2Ev = __sdk_start + 0x000000000023661c;
nncodecLibopus_ec_dec_bits = __sdk_start + 0x000000000025fa90;
_ZN2nn2sf4cmif6client6detail13CmifProxyImplINS_8settings21ISystemSettingsServerENS0_4hipc6client18Hipc2ProxyKindBaseILNS7_6detail11MessageTypeE6EEENS0_30MemoryResourceAllocationPolicyES6_NS3_19ProcessModifierImplINS2_21DefaultProxyFilterTagEEEE32_nn_sf_sync_GetBacklightSettingsENS0_3OutINS5_6system17BacklightSettingsEvEE = __sdk_start + 0x00000000003bb3e0;
_ZN2nn3hid15VibrationTarget24GetVibrationDeviceHandleEv = __sdk_start + 0x00000000004a08c8;
_ZN2nn2sf4hipc6client24Hipc2ClientCoreProcessorILNS1_6detail11MessageTypeE6ENS0_4cmif6detail14CoreMethodInfoINSt3__15tupleIJNS7_17InRawArgumentInfoILm8ELm8ELl8EEENSB_ILm1ELm1ELl0EEENSB_ILm6ELm1ELl1EEENSB_ILm1ELm1ELl7EEEEEELm16ELm0ELb0EEESG_E7ProcessEPNS2_26Hipc2ClientProxyBaseObjectENS6_6client23InRawClientArgumentTypeILm8ELm8EvEENSM_ILm1ELm1EvEENSM_ILm6ELm1EvEESO_j = __sdk_start + 0x0000000000242d68;
_ZN2nn5async27GetCurrentCancellationTokenEv = __sdk_start + 0x000000000008b010;
_ZN7android8BpBinder15getNativeHandleEjRjRb = __sdk_start + 0x0000000000162020;
_ZTIN2nn2ec21IPurchaseEventManagerE = __sdk_start + 0x0000000000d02898;
_ZN2nn5audio23SplitterDestinationData12SetMixVolumeEfi = __sdk_start + 0x00000000001da9f0;
nncodecLibopus_celt_decoder_get_size = __sdk_start + 0x0000000000252f90;
_ZN2nn3ngc71AcquireProfanityWordDatabaseReloadRequestNotifierForPlatformRegionChinaEv = __sdk_start + 0x00000000004dd7b0;
_ZN2nn3ngc64ProfanityWordDatabaseReloadRequestNotifierForPlatformRegionChinaaSEOS1_ = __sdk_start + 0x00000000004dd840;
_ZTSN2nn2ec6detail10IAsyncDataE = __sdk_start + 0x0000000000ae9f28;
nnaudiodetail_ne10_mixed_radix_generic_butterfly_float32_neon = __sdk_start + 0x00000000001fafa0;
_ZThn32_N2nn2sf4cmif6client6detail13CmifProxyImplINS_4bcat3ipc30IDeliveryCacheDirectoryServiceENS2_19CmifDomainProxyKindINS0_4hipc6client38Hipc2ClientSessionManagedProxyKindBaseINSA_18Hipc2ProxyKindBaseILNS9_6detail11MessageTypeE6EEEEEEENS0_30MemoryResourceAllocationPolicyES7_NS3_19ProcessModifierImplINS2_21DefaultProxyFilterTagEEEE17GetCmifBaseObjectEv = __sdk_start + 0x0000000000239354;
_ZN2nn5codec31transportDec_GetAuBitsRemainingEPNS0_12TRANSPORTDECEj = __sdk_start + 0x00000000002c4ed0;
NvRmChannelMapAtSubmitEnabled = __sdk_start + 0x0000000000404840;
_ZTISt13bad_exception = __sdk_start + 0x0000000000d28a08;
_ZN2nn2fs3dbm30BufferedAllocationTableStorageD1Ev = __sdk_start + 0x000000000009b950;
_ZTSN2nn2os6detail29MultiWaitHolderOfNativeHandleE = __sdk_start + 0x0000000000acff95;
_ZN2nn5audio27SetAuxCompressorInputOutputEPNS0_17AuxCompressorTypeEPKaS4_i = __sdk_start + 0x00000000001d0810;
_ZN2nn2sf6detail38ObjectImplFactoryWithStatefulAllocatorINS0_4cmif6client6detail9CmifProxyINS_2lm10ILogGetterENS4_19CmifDomainProxyKindINS0_4hipc6client38Hipc2ClientSessionManagedProxyKindBaseINSB_18Hipc2ProxyKindBaseILNSA_6detail11MessageTypeE6EEEEEEENS0_30MemoryResourceAllocationPolicyENS5_19ProcessModifierImplINS4_21DefaultProxyFilterTagEEEvEESJ_E6Object7ReleaseEv = __sdk_start + 0x0000000000361650;
_ZTSN2nn2sf4cmif6client6detail9CmifProxyINS_3ssl2sf11ISslServiceENS2_19CmifDomainProxyKindINS0_4hipc6client38Hipc2ClientSessionManagedProxyKindBaseINSA_18Hipc2ProxyKindBaseILNS9_6detail11MessageTypeE6EEEEEEENS0_24StatefulAllocationPolicyINS0_16ExpHeapAllocatorEEENS3_19ProcessModifierImplINS2_21DefaultProxyFilterTagEEEvEE = __sdk_start + 0x0000000000b370f3;
_ZN2nn3hid6system6detail20BindNfcActivateEventERjPNS_2os15SystemEventTypeENS4_14EventClearModeE = __sdk_start + 0x00000000004a75e0;
_ZN2nn8irsensor28CheckFirmwareUpdateNecessityEPbRKNS0_14IrCameraHandleE = __sdk_start + 0x00000000004c22f0;
_ZN15HeartRateDriverC2EPhiRK22HeartRateCaptureConfig = __sdk_start + 0x00000000004d63b8;
_ZN2nn3mii6detail11CoreDataRaw11SetEyebrowXEi = __sdk_start + 0x00000000003686bc;
_ZNK2nn3mii6detail16Ver3StoreDataRaw7GetEyeXEv = __sdk_start + 0x000000000036e43c;
_ZTSN2nn2sf6detail39ObjectImplFactoryWithStatelessAllocatorINS0_4cmif6client6detail9CmifProxyINS_4olsc3srv21IAsyncTransferRequestENS4_19CmifDomainProxyKindINS0_4hipc6client38Hipc2ClientSessionManagedProxyKindBaseINSC_18Hipc2ProxyKindBaseILNSB_6detail11MessageTypeE6EEEEEEENS0_25StatelessAllocationPolicyINS0_22ExpHeapStaticAllocatorILm2048ENS7_6detail12ObjectHolder24ObjectHolderAllocatorTagEEEEENS5_19ProcessModifierImplINS4_21DefaultProxyFilterTagEEEvEESQ_E6ObjectE = __sdk_start + 0x0000000000b327bb;
_ZN2nn8settings6system13SetTvSettingsERKNS1_10TvSettingsE = __sdk_start + 0x00000000003b0250;
_ZNKSt3__112basic_stringIwNS_11char_traitsIwEENS_9allocatorIwEEE5rfindEPKwmm = __sdk_start + 0x0000000000501420;
nnaudiodetail_ne10_mixed_radix_generic_butterfly_inverse_float32_neon = __sdk_start + 0x00000000001fce80;
_ZNK2nn3err18ErrorResultVariantcvNS_6ResultEEv = __sdk_start + 0x00000000002fcb60;
_ZNK2nn3mii6detail16Ver3StoreDataRaw16GetEyebrowRotateEv = __sdk_start + 0x000000000036e6dc;
_ZN2nn4edid24GetDisplayModePreferenceEPNS0_15DisplayModeInfoEPNS0_17DisplayTimingInfoEPNS0_13ImageSizeInfoEPKNS0_4EdidE = __sdk_start + 0x00000000000125d0;
_ZTVN2nn5async10ExecutableE = __sdk_start + 0x0000000000ce4a08;
_ZN2nn2sf23InitializeInProcessPortEPNS_14MemoryResourceE = __sdk_start + 0x00000000001460a0;
nncodecLibopus_silk_LPC_fit = __sdk_start + 0x0000000000268bc0;
_ZNKSt3__15ctypeIwE8do_widenEPKcS3_Pw = __sdk_start + 0x000000000053d0b0;
_ZN2nn2sf4cmif6client6detail13CmifProxyImplINS_8settings21ISystemSettingsServerENS0_4hipc6client18Hipc2ProxyKindBaseILNS7_6detail11MessageTypeE6EEENS0_30MemoryResourceAllocationPolicyES6_NS3_19ProcessModifierImplINS2_21DefaultProxyFilterTagEEEE29_nn_sf_sync_SetDeviceNickNameERKNS5_6system14DeviceNickNameE = __sdk_start + 0x00000000003bb7f8;
_ZN2nn3ldn11ScanPrivateEPNS0_11NetworkInfoEPiiRKNS0_10ScanFilterEi = __sdk_start + 0x00000000004dab50;
nndiagStartup = __sdk_start + 0x00000000000973d0;
_ZN2nn6socket8resolver3tls6Client17GetCurrentHostentEv = __sdk_start + 0x000000000015c520;
_ZN7android6Region14makeBoundsSelfEv = __sdk_start + 0x000000000018f654;
_ZN2nn2am28CreateDebugFunctionsForDebugEv = __sdk_start + 0x00000000001b5410;
_ZTSN2nn5audio6server10EffectInfoILNS0_10EffectTypeE2ENS0_12AuxParameterEEE = __sdk_start + 0x0000000000af10b4;
_ZN2nn8irsensor6detail15IrSensorSession12DestroyProxyEv = __sdk_start + 0x00000000004c1c28;
_ZNSt3__110ctype_base6xdigitE = __sdk_start + 0x0000000000b788dc;
_ZTIN2nn2sf4cmif6client6detail13CmifProxyImplINS_7account24IBaasAccessTokenAccessorENS2_19CmifDomainProxyKindINS0_4hipc6client38Hipc2ClientSessionManagedProxyKindBaseINS9_18Hipc2ProxyKindBaseILNS8_6detail11MessageTypeE6EEEEEEENS0_30MemoryResourceAllocationPolicyES6_NS3_19ProcessModifierImplINS2_21DefaultProxyFilterTagEEEEE = __sdk_start + 0x0000000000cf8470;
_ZN2nn3mem17StandardAllocator10ReallocateEPvm = __sdk_start + 0x0000000000126610;
_ZN2nn2sf4cmif6client6detail13CmifProxyImplINS_2am7service18IHomeMenuFunctionsENS2_19CmifDomainProxyKindINS0_4hipc6client38Hipc2ClientSessionManagedProxyKindBaseINSA_18Hipc2ProxyKindBaseILNS9_6detail11MessageTypeE6EEEEEEENS0_30MemoryResourceAllocationPolicyES7_NS3_19ProcessModifierImplINS2_21DefaultProxyFilterTagEEEE25_nn_sf_sync_LaunchStarterEv = __sdk_start + 0x00000000001bc78c;
_ZN2nn5codec23GetOpusPacketFrameCountEPiPKhm = __sdk_start + 0x0000000000296ae0;
_ZNK2nn2ec28ConsumableServiceItemManager24GetProvidableItemIdCountEv = __sdk_start + 0x00000000002ec830;
_ZN2nn4htcs4SendEiPKvmi = __sdk_start + 0x0000000000358ea0;
_ZN2nn4time28AdjustableNetworkSystemClock21GetSystemClockContextEPNS0_18SystemClockContextE = __sdk_start + 0x00000000003cc984;
_ZN2nn2vi23GetDisplayContrastRatioEPfPKNS0_7DisplayE = __sdk_start + 0x00000000003d52d0;
_ZN2nn3kpr6detail20FlushKeyCodeComposerEPNS1_22KeyCodeComposerStorageE = __sdk_start + 0x00000000004d9840;
_ZN22nerd_gillette_internal5otete7jaimev223EncodeFullSilhouetteROKERNS0_17MaxSizedBitStreamILm300EEENS_20ContiguousMemoryViewIKNS_15NumericalVectorIsLm2EEELb0EEERKNS1_23FullSilhouetteCodecDataE = __sdk_start + 0x00000000004d3f10;
strftime = __sdk_start + 0x0000000000582260;
tdestroy = __sdk_start + 0x00000000005a70c0;
_ZN2nn4diag6detail9Backtrace10InitializeEPKNS_2os9FiberTypeE = __sdk_start + 0x0000000000098784;
_ZN2nn2sf4cmif6client6detail13CmifProxyImplINS_2am7service20IApplicationAccessorENS2_19CmifDomainProxyKindINS0_4hipc6client38Hipc2ClientSessionManagedProxyKindBaseINSA_18Hipc2ProxyKindBaseILNS9_6detail11MessageTypeE6EEEEEEENS0_30MemoryResourceAllocationPolicyES7_NS3_19ProcessModifierImplINS2_21DefaultProxyFilterTagEEEE40_nn_sf_sync_GetApplicationLaunchPropertyERKNS0_9OutBufferE = __sdk_start + 0x00000000001bd3c8;
_ZN2nn2sf4cmif6client6detail13CmifProxyImplINS_4pctl6detail3ipc23IParentalControlServiceENS2_19CmifDomainProxyKindINS0_4hipc6client38Hipc2ClientSessionManagedProxyKindBaseINSB_18Hipc2ProxyKindBaseILNSA_6detail11MessageTypeE6EEEEEEENS0_30MemoryResourceAllocationPolicyES8_NS3_19ProcessModifierImplINS2_21DefaultProxyFilterTagEEEE32_nn_sf_sync_SetPostEventIntervalEi = __sdk_start + 0x000000000039f638;
_ZN2nn8settings6system21SetUsb30DeviceEnabledEb = __sdk_start + 0x00000000003b0450;
_ZN2nn8irsensor6detail14SessionManagerD1Ev = __sdk_start + 0x00000000004c1cc0;
nnmem_nlib_fd_writev = __sdk_start + 0x0000000000109f10;
_ZN2nn5album22SaveAndShareScreenshotEPKvmNS0_9ImageSizeENS0_16ImageOrientationENS0_17AlbumReportOptionERKNS_7account3UidEPKc = __sdk_start + 0x00000000001b13c0;
_ZN2nn3mii6detail19GetReplacedNicknameEPNS0_8NicknameE = __sdk_start + 0x000000000036aca0;
_ZN2nn8settings6detail15GetLanguageCodeEPNS0_12LanguageCodeE = __sdk_start + 0x00000000003b7410;
_ZN2nn2sf4cmif6client34CmifDomainProxyClientCoreProcessorINS0_4hipc6client38Hipc2ClientSessionManagedProxyKindBaseINS5_18Hipc2ProxyKindBaseILNS4_6detail11MessageTypeE6EEEEENS1_6detail14CoreMethodInfoINSt3__15tupleIJNSC_17InRawArgumentInfoILm32ELm1ELl0EEEEEELm32ELm0ELb0EEESI_E7ProcessEPNS2_23CmifDomainClientMessageISB_E15ProxyBaseObjectENS2_23InRawClientArgumentTypeILm32ELm1EvEEj = __sdk_start + 0x00000000000c5dd4;
_ZN2nn2sf4cmif6client6detail13CmifProxyImplINS_2am7service15ISelfControllerENS2_19CmifDomainProxyKindINS0_4hipc6client38Hipc2ClientSessionManagedProxyKindBaseINSA_18Hipc2ProxyKindBaseILNS9_6detail11MessageTypeE6EEEEEEENS0_30MemoryResourceAllocationPolicyES7_NS3_19ProcessModifierImplINS2_21DefaultProxyFilterTagEEEE29_nn_sf_sync_EnterFatalSectionEv = __sdk_start + 0x00000000001b7bdc;
_ZTIN2nn2sf4cmif6client6detail13CmifProxyImplINS_2am7service18IAppletProxyCommonENS2_19CmifDomainProxyKindINS0_4hipc6client38Hipc2ClientSessionManagedProxyKindBaseINSA_18Hipc2ProxyKindBaseILNS9_6detail11MessageTypeE6EEEEEEENS0_30MemoryResourceAllocationPolicyENS6_19IOverlayAppletProxyENS3_19ProcessModifierImplINS2_21DefaultProxyFilterTagEEEEE = __sdk_start + 0x0000000000d01580;
_ZN2nn5audio17SetVoiceMixVolumeEPNS0_9VoiceTypeEPNS0_12FinalMixTypeEfii = __sdk_start + 0x00000000001db420;
_ZNK2nn5audio6server9VoiceInfo10ShouldSkipEv = __sdk_start + 0x000000000021e914;
_ZN2nn2sf4cmif6client34CmifDomainProxyClientCoreProcessorINS0_4hipc6client38Hipc2ClientSessionManagedProxyKindBaseINS5_18Hipc2ProxyKindBaseILNS4_6detail11MessageTypeE6EEEEENS1_6detail14CoreMethodInfoINSt3__15tupleIJNSC_18OutRawArgumentInfoILm48ELm8ELl0EEEEEELm0ELm48ELb0EEESI_E7ProcessEPNS2_23CmifDomainClientMessageISB_E15ProxyBaseObjectENS2_24OutRawClientArgumentTypeILm48ELm8EEEj = __sdk_start + 0x000000000039b494;
_ZN2nn2sf4cmif6client6detail13CmifProxyImplINS_3hid15IHidDebugServerENS0_4hipc6client18Hipc2ProxyKindBaseILNS7_6detail11MessageTypeE6EEENS0_30MemoryResourceAllocationPolicyES6_NS3_19ProcessModifierImplINS2_21DefaultProxyFilterTagEEEE12GetProxyInfoEv = __sdk_start + 0x00000000004b2b6c;
_ZN2nn2sf4cmif6client6detail13CmifProxyImplINS_4npns9INpnsUserENS0_4hipc6client18Hipc2ProxyKindBaseILNS7_6detail11MessageTypeE6EEENS0_30MemoryResourceAllocationPolicyES6_NS3_19ProcessModifierImplINS2_21DefaultProxyFilterTagEEEE12GetProxyInfoEv = __sdk_start + 0x0000000000391d30;
_ZN2nn8settings6detail15GetEulaVersionsEPiPNS0_6system11EulaVersionEi = __sdk_start + 0x00000000003b3a20;
_ZN2nn2sf4cmif6client6detail13CmifProxyImplINS_3hid10IHidServerENS0_4hipc6client18Hipc2ProxyKindBaseILNS7_6detail11MessageTypeE6EEENS0_30MemoryResourceAllocationPolicyES6_NS3_19ProcessModifierImplINS2_21DefaultProxyFilterTagEEEE36_nn_sf_sync_ActivateJoySixAxisSensorENS5_9JoyXpadIdE = __sdk_start + 0x00000000004ae934;
_ZN2nn4bcat20SetDeliveryTaskTimerENS_13ApplicationIdEiNS0_20SelectWaitTimePolicyE = __sdk_start + 0x0000000000234310;
_ZN2nn2ec28ShowShopConsumableItemDetailERKNS0_12ConsumableIdENS0_5NsUidE = __sdk_start + 0x00000000002f3820;
_ZN2nn3mii27CharInfoVisualParamAccessor11SetHairTypeEi = __sdk_start + 0x0000000000363540;
_ZN2nn3hid15VibrationTarget26UnsetVibrationDeviceHandleEv = __sdk_start + 0x00000000004a080c;
_ZTSNSt3__115basic_stringbufIcNS_11char_traitsIcEENS_9allocatorIcEEEE = __sdk_start + 0x0000000000b78448;
nncryptoAes256CtrEncryptorUpdate = __sdk_start + 0x0000000000003220;
nncryptoAes192CtrDecryptorBlockSize = __sdk_start + 0x0000000000aa5e10;
textdomain = __sdk_start + 0x00000000005a36c0;
_ZN2nn2sf4cmif6client34CmifDomainProxyClientCoreProcessorINS0_4hipc6client38Hipc2ClientSessionManagedProxyKindBaseINS5_18Hipc2ProxyKindBaseILNS4_6detail11MessageTypeE6EEEEENS1_6detail14CoreMethodInfoINSt3__15tupleIJNSC_18OutRawArgumentInfoILm1ELm1ELl0EEENSC_17InRawArgumentInfoILm8ELm8ELl0EEEEEELm8ELm1ELb1EEESK_E7ProcessEPNS2_23CmifDomainClientMessageISB_E15ProxyBaseObjectENS2_24OutRawClientArgumentTypeILm1ELm1EEENS2_23InRawClientArgumentTypeILm8ELm8EvEEj = __sdk_start + 0x00000000001a3920;
_ZTIN2nn2sf4cmif6client6detail13CmifProxyImplINS_8irsensor21IIrSensorSystemServerENS0_4hipc6client18Hipc2ProxyKindBaseILNS7_6detail11MessageTypeE6EEENS0_25StatelessAllocationPolicyINS0_22ExpHeapStaticAllocatorILm16384ENS5_6detail20IrSensorSystemServerEEEEES6_NS3_19ProcessModifierImplINS2_21DefaultProxyFilterTagEEEEE = __sdk_start + 0x0000000000d20468;
_ZN2nn4util6ResDic5BuildEv = __sdk_start + 0x000000000007e9f0;
_ZN2nn2fs6detail29DirectoryServiceObjectAdapter15DoGetEntryCountEPl = __sdk_start + 0x00000000000ce9f0;
pthread_join = __sdk_start + 0x000000000013ac70;
_ZN2nn3apm18GetThrottlingStateEPNS0_15ThrottlingStateE = __sdk_start + 0x00000000001ca180;
_ZN2nn2ec4json7adaptor37ConsumableServiceItemRightDataAdaptor10UpdateImplERKNS_4http4json8JsonPathILi8ELi128ELb0EEEl = __sdk_start + 0x00000000002fabec;
_ZN2nn8settings21SetFullKeyKeyboardMapERKNS0_18FullKeyKeyboardMapENS0_12FullKeyIndexE = __sdk_start + 0x00000000003ae6d0;
_ZNSt8bad_castD1Ev = __sdk_start + 0x00000000005673e0;
_ZTINSt3__112strstreambufE = __sdk_start + 0x0000000000d260a8;
_ZThn8_N2nn2fs4save13ExclusiveFile26NotifyFileSystemDestructedEv = __sdk_start + 0x00000000000a90a0;
_ZN2nn6socket11GetAddrInfoEPKcS2_PK8addrinfoPPS3_PKNS0_14ResolverOptionEm = __sdk_start + 0x0000000000147a80;
_ZN2nn3mii6detail11UtilityImpl9GetRandomEi = __sdk_start + 0x000000000036ca20;
_ZN2nn4util27ConvertCharacterUtf8ToUtf32EPjPKc = __sdk_start + 0x0000000000087190;
_ZN2nn2fs6detail22LruFileDataCacheSystem23ReturnBackReservedPagesEPvm = __sdk_start + 0x00000000000fa460;
_ZNK2nn5audio6server10PoolMapper5UnmapEPNS1_14MemoryPoolInfoE = __sdk_start + 0x000000000021b138;
_ZN2nn5audio6server38CommandProcessingTimeEstimatorVersion58EstimateERKNS0_27MultiTapBiquadFilterCommandE = __sdk_start + 0x0000000000216908;
_ZN2nn5codec30CBlock_FrequencyToTimeLowDelayEPNS0_28CAacDecoderStaticChannelInfoEPNS0_22CAacDecoderChannelInfoEPssc = __sdk_start + 0x00000000002a8870;
_ZN2nn2sf4cmif6client6detail13CmifProxyImplINS_3hid15IHidDebugServerENS0_4hipc6client18Hipc2ProxyKindBaseILNS7_6detail11MessageTypeE6EEENS0_30MemoryResourceAllocationPolicyES6_NS3_19ProcessModifierImplINS2_21DefaultProxyFilterTagEEEE38_nn_sf_sync_ProcessTouchScreenAutoTuneEv = __sdk_start + 0x00000000004b2bd8;
_ZN2nn5async23CancellationTokenSource13RequestCancelEv = __sdk_start + 0x000000000008b150;
_ZN2nn3hid6detail15GetNpadStyleSetEPNS_4util10BitFlagSetILi32ENS0_12NpadStyleTagEEERKj = __sdk_start + 0x0000000000491920;
copy_graymap = __sdk_start + 0x000000000032f570;
_ZN2nn3mii11StartAppletEPNS0_12AppletOutputERKNS0_11AppletInputE = __sdk_start + 0x000000000037c9d0;
_ZNSt3__18__sp_mut6unlockEv = __sdk_start + 0x00000000004fa134;
nnmem_nlib_strto_double = __sdk_start + 0x0000000000112b20;
_ZN2nn3nsd15GetNasApiFqdnExEPNS0_4FqdnE = __sdk_start + 0x00000000003947f0;
_ZN2nn2sf4cmif6client6detail13CmifProxyImplINS_8settings21ISystemSettingsServerENS0_4hipc6client18Hipc2ProxyKindBaseILNS7_6detail11MessageTypeE6EEENS0_30MemoryResourceAllocationPolicyES6_NS3_19ProcessModifierImplINS2_21DefaultProxyFilterTagEEEE48_nn_sf_sync_GetDeviceTimeZoneLocationUpdatedTimeENS0_3OutINS_4time20SteadyClockTimePointEvEE = __sdk_start + 0x00000000003bbbdc;
_ZN2nn4util8Vector3f12ConstantZeroE = __sdk_start + 0x0000000000ac4b60;
_ZNK2nn5audio12SplitterInfo12NeedToUpdateEv = __sdk_start + 0x00000000001da888;
_ZTIN10__cxxabiv129__pointer_to_member_type_infoE = __sdk_start + 0x0000000000d28db8;
_ZNK2nn2la21CommonArgumentsWriter6ExportEPvm = __sdk_start + 0x000000000035fc00;
_ZN2nn2oe22GetNotificationMessageEv = __sdk_start + 0x0000000000397e70;
_ZN2nn2fs4save26SaveDataFileSystemCoreImpl15DoOpenDirectoryEPNSt3__110unique_ptrINS0_3fsa10IDirectoryENS3_14default_deleteIS6_EEEERKNS0_4PathENS0_17OpenDirectoryModeE = __sdk_start + 0x00000000000ab554;
_ZN2nn2fs29EnableIndividualFileDataCacheEPKcPvm = __sdk_start + 0x00000000000fd2d0;
_ZN2nn3hid6system6detail25SetAruidValidForVibrationERKNS_6applet20AppletResourceUserIdEb = __sdk_start + 0x00000000004ac240;
_ZN2nn2fs24HierarchicalRomFileTable19ConvertPathToFileIdEPjPKc = __sdk_start + 0x00000000000ec008;
_ZTSN2nn2sf4cmif6client6detail9CmifProxyINS_2am7service18ICommonStateGetterENS2_19CmifDomainProxyKindINS0_4hipc6client38Hipc2ClientSessionManagedProxyKindBaseINSA_18Hipc2ProxyKindBaseILNS9_6detail11MessageTypeE6EEEEEEENS0_30MemoryResourceAllocationPolicyENS3_19ProcessModifierImplINS2_21DefaultProxyFilterTagEEEvEE = __sdk_start + 0x0000000000ade4b4;
_ZN2nn2sf6detail38ObjectImplFactoryWithStatefulAllocatorINS0_4cmif6client6detail9CmifProxyINS_3apm8IManagerENS0_4hipc6client18Hipc2ProxyKindBaseILNS9_6detail11MessageTypeE6EEENS0_30MemoryResourceAllocationPolicyENS5_19ProcessModifierImplINS4_21DefaultProxyFilterTagEEEvEESF_E6Object12AddReferenceEv = __sdk_start + 0x00000000001c984c;
_ZTSN2nn5fssrv2sf17ISaveDataImporterE = __sdk_start + 0x0000000000ac8d1a;
_ZN2nn2sf6detail38ObjectImplFactoryWithStatefulAllocatorINS0_4cmif6client6detail9CmifProxyINS_3mii6detail21IImageDatabaseServiceENS0_4hipc6client18Hipc2ProxyKindBaseILNSA_6detail11MessageTypeE6EEENS0_30MemoryResourceAllocationPolicyENS5_19ProcessModifierImplINS4_21DefaultProxyFilterTagEEEvEESG_E6Object7ReleaseEv = __sdk_start + 0x000000000037b7a8;
strzcmp16 = __sdk_start + 0x0000000000195870;
_ZNK2nn3mii6detail16Ver3StoreDataRaw12GetReserved1Ev = __sdk_start + 0x0000000000377dd8;
hdestroy = __sdk_start + 0x00000000005a6a20;
_ZN2nn2fs14PathNormalizer12IsNormalizedEPbPmPKc = __sdk_start + 0x00000000000f2348;
_ZN2nn3htc13ServiceHolder28GetEnvironmentVariableLengthENS_2sf3OutIivEERKNS2_8InBufferE = __sdk_start + 0x00000000000ff654;
_ZTIN2nn2sf4cmif6client6detail13CmifProxyImplINS_2am7service15IAppletAccessorENS2_19CmifDomainProxyKindINS0_4hipc6client38Hipc2ClientSessionManagedProxyKindBaseINSA_18Hipc2ProxyKindBaseILNS9_6detail11MessageTypeE6EEEEEEENS0_30MemoryResourceAllocationPolicyENS6_20IApplicationAccessorENS3_19ProcessModifierImplINS2_21DefaultProxyFilterTagEEEEE = __sdk_start + 0x0000000000d00c90;
_ZTSN2nn5audio6server10EffectInfoILNS0_10EffectTypeE1ENS0_20BufferMixerParameterEEE = __sdk_start + 0x0000000000af0f2e;
_ZN2nn9bluetooth3hal18RegisterGattClientERKNS0_17GattAttributeUuidE = __sdk_start + 0x000000000023ca30;
_ZN2nn2ec11AsyncResult8GetEventEv = __sdk_start + 0x00000000002ec050;
nvdcutilOpen = __sdk_start + 0x00000000003e7690;
_ZN2nn5image6detail18PngMemoryAllocatorC1Ev = __sdk_start + 0x000000000006ff0c;
_ZN2nn2ec30ShowShopSubscriptionManagementERKNS_7account10UserHandleE = __sdk_start + 0x00000000002f3550;
_ZN2nn3mii13ImageDatabase11ImageHeightE = __sdk_start + 0x0000000000b2a844;
_ZN2nn2sf13SharedPointerINS_3hid10IHidServerEED2Ev = __sdk_start + 0x000000000049b19c;
NvOsSleepMS = __sdk_start + 0x00000000003f1050;
_ZN2nn3mii27CharInfoVisualParamAccessor7SetEyeYEi = __sdk_start + 0x00000000003637f0;
_ZN2nn3ngc15ProfanityFilterC1Ev = __sdk_start + 0x0000000000385ba0;
_ZN2nn8settings6detail39GetConsoleSixAxisSensorAccelerationBiasEPNS0_6system36ConsoleSixAxisSensorAccelerationBiasE = __sdk_start + 0x00000000003b9b20;
NvRmGpuDeviceSchedulingDomainOpen = __sdk_start + 0x0000000000437520;
_ZN2nn3hid18VibrationConverterC2Ei = __sdk_start + 0x000000000049eb2c;
_ZN4nerd16VibrationDecoder13GenerateChunkEjjjjPs = __sdk_start + 0x00000000004a346c;
_ZN2nn3hid6system6detail10HasBatteryEPbRKj = __sdk_start + 0x00000000004a7e90;
_ZNKSt3__117moneypunct_bynameIcLb0EE14do_curr_symbolEv = __sdk_start + 0x000000000052ad00;
_ZN2nn5image11JpegDecoderC2EPNS_14MemoryResourceE = __sdk_start + 0x0000000000049d24;
_ZTIN2nn2fs4save22SaveDataFileSystemCoreE = __sdk_start + 0x0000000000ce6c48;
_ZN2nn2os6detail11VammManagerC2Ev = __sdk_start + 0x00000000001345c8;
isspace = __sdk_start + 0x000000000059f500;
_ZN2nn2sf4cmif6client6detail13CmifProxyImplINS_2am7service21IApplicationFunctionsENS2_19CmifDomainProxyKindINS0_4hipc6client38Hipc2ClientSessionManagedProxyKindBaseINSA_18Hipc2ProxyKindBaseILNS9_6detail11MessageTypeE6EEEEEEENS0_30MemoryResourceAllocationPolicyES7_NS3_19ProcessModifierImplINS2_21DefaultProxyFilterTagEEEE25_nn_sf_sync_NotifyRunningENS0_3OutIbvEE = __sdk_start + 0x00000000001c18f4;
_ZZN2nn4bcat4shim17ShimLibraryGlobal11GetInstanceEvE10s_Instance = __sdk_start + 0x0000000000d90c20;
_ZN2nn3hid14KeyboardLayout12KoreanHangulE = __sdk_start + 0x0000000000b440d4;
isdigit_l = __sdk_start + 0x000000000059f430;
nnmem_nlib_taskgroup_create = __sdk_start + 0x000000000011c8e0;
_ZNSt3__112ctype_bynameIcEC2EPKcm = __sdk_start + 0x000000000053d77c;
_ZTINSt3__110moneypunctIcLb0EEE = __sdk_start + 0x0000000000d24a70;
_ZN2nn5audio16VoiceInfoManager16AcquireVoiceInfoEii = __sdk_start + 0x00000000001dbdb0;
_ZN2nn2ec6detail23ShopServiceAccessServer10ProxyStoreD2Ev = __sdk_start + 0x00000000002f8240;
_ZN2nn3mii6detail18Ver3GlassTypeTableE = __sdk_start + 0x0000000000b21c30;
_ZTIN2nn2sf6detail38ObjectImplFactoryWithStatefulAllocatorINS0_4cmif6client6detail9CmifProxyINS_3ntc6detail7service14IStaticServiceENS0_4hipc6client18Hipc2ProxyKindBaseILNSB_6detail11MessageTypeE6EEENS0_30MemoryResourceAllocationPolicyENS5_19ProcessModifierImplINS4_21DefaultProxyFilterTagEEEvEESH_E6ObjectE = __sdk_start + 0x0000000000d14830;
_ZN2nn5codec10AacDecoderD0Ev = __sdk_start + 0x00000000002eaf54;
_ZN2nn2sf4cmif6client6detail13CmifProxyImplINS_3nim6detail20IShopServiceAccessorENS0_4hipc6client18Hipc2ProxyKindBaseILNS8_6detail11MessageTypeE6EEENS0_30MemoryResourceAllocationPolicyES7_NS3_19ProcessModifierImplINS2_21DefaultProxyFilterTagEEEE12GetProxyInfoEv = __sdk_start + 0x00000000002f8c68;
lldiv = __sdk_start + 0x00000000005ac1d0;
_ZN2nn3web20SharePageReturnValueC1Ev = __sdk_start + 0x00000000004dfc9c;
_ZNSt3__113basic_istreamIwNS_11char_traitsIwEEE6sentryC1ERS3_b = __sdk_start + 0x0000000000510820;
_ZN2nn2fs22GetGlobalAccessLogModeEPj = __sdk_start + 0x00000000000e6950;
_ZN2nn4bcat4shim17ShimLibraryGlobal16CreateIpcSessionEv = __sdk_start + 0x000000000023947c;
_ZN2nn8settings6detail15GetEciDeviceKeyEPNS0_7factory16EccB233DeviceKeyE = __sdk_start + 0x00000000003b36a0;
_ZN2nn8settings6system19SetExternalRtcResetEb = __sdk_start + 0x00000000003af400;
_ZN2nn2sf4cmif6client6detail13CmifProxyImplINS_3hid10IHidServerENS0_4hipc6client18Hipc2ProxyKindBaseILNS7_6detail11MessageTypeE6EEENS0_30MemoryResourceAllocationPolicyES6_NS3_19ProcessModifierImplINS2_21DefaultProxyFilterTagEEEE49_nn_sf_sync_IsFirmwareUpdateNeededForNotificationENS0_3OutIbvEEiNS_6applet20AppletResourceUserIdE = __sdk_start + 0x00000000004af100;
_flushlbf = __sdk_start + 0x00000000005a7b40;
_ZN2nn2fs13PathFormatter14ParseMountNameEPPKcPmPcmS3_ = __sdk_start + 0x00000000000f0660;
_ZN2nn2sf4cmif6client6detail13CmifProxyImplINS_2am7service22IAppletCommonFunctionsENS2_19CmifDomainProxyKindINS0_4hipc6client38Hipc2ClientSessionManagedProxyKindBaseINSA_18Hipc2ProxyKindBaseILNS9_6detail11MessageTypeE6EEEEEEENS0_30MemoryResourceAllocationPolicyES7_NS3_19ProcessModifierImplINS2_21DefaultProxyFilterTagEEEE28_nn_sf_sync_ReadThemeStorageENS0_3OutImvEEmRKNS0_9OutBufferE = __sdk_start + 0x00000000001bdcd0;
_ZNK2nn3mii6detail12StoreDataRaw9GetGlassYEv = __sdk_start + 0x000000000036c250;
_ZN2nn5swkbd6detail18InlineKeyboardImpl31SendUnsetMovedCursorV2Callback_Ev = __sdk_start + 0x00000000003cc440;
_ZN2nn2fs32SaveDataTransferManagerForRepair20OpenSaveDataExporterEPNSt3__110unique_ptrINS0_25ISaveDataDivisionExporterENS2_14default_deleteIS4_EEEENS0_15SaveDataSpaceIdEm = __sdk_start + 0x00000000000f469c;
_ZN2nn2fs6detail22PathBasedFileDataCacheC2Ev = __sdk_start + 0x00000000000fbe30;
_ZN7android16ISurfaceComposerD0Ev = __sdk_start + 0x000000000017fd18;
_ZNK2nn5audio14MemoryPoolInfo8GetStateEv = __sdk_start + 0x00000000001d79cc;
nnosInitializeMultiWaitHolderForTimerEvent = __sdk_start + 0x000000000012ff30;
_ZN2nn5audio29ResetAuxBufferLostSampleCountEPNS0_13AuxBufferInfoE = __sdk_start + 0x00000000001cf240;
_ZN2nn3web6detail24ShowOfflinePageArgDetail15SetDocumentPathEPhmPKc = __sdk_start + 0x00000000004e4860;
_ZNKSt3__17codecvtIDsDu11__mbstate_tE11do_encodingEv = __sdk_start + 0x000000000053fb24;
atof = __sdk_start + 0x00000000005abcd0;
_ZNK2nn5audio6server9DelayInfo13GetWorkBufferENS1_14EffectInfoBase5IndexE = __sdk_start + 0x0000000000219a68;
_ZN2nn2vi27GetDisplayLogicalResolutionEPiS1_PKNS0_7DisplayE = __sdk_start + 0x00000000003dd360;
_ZN2nn2sf4cmif6client6detail13CmifProxyImplINS_3hid10IHidServerENS0_4hipc6client18Hipc2ProxyKindBaseILNS7_6detail11MessageTypeE6EEENS0_30MemoryResourceAllocationPolicyES6_NS3_19ProcessModifierImplINS2_21DefaultProxyFilterTagEEEE36_nn_sf_sync_ResetDebugPadKeyboardMapEv = __sdk_start + 0x00000000004af160;
_ZNKSt3__115basic_stringbufIcNS_11char_traitsIcEENS_9allocatorIcEEE3strEv = __sdk_start + 0x00000000005154a0;
_ZN2nn6capsrv33FinalizeAlbumAccessForApplicationEv = __sdk_start + 0x000000000024b2f0;
_ZTIN2nn2sf4cmif6client6detail13CmifProxyImplINS_4bcat3ipc12IBcatServiceENS2_19CmifDomainProxyKindINS0_4hipc6client38Hipc2ClientSessionManagedProxyKindBaseINSA_18Hipc2ProxyKindBaseILNS9_6detail11MessageTypeE6EEEEEEENS0_30MemoryResourceAllocationPolicyES7_NS3_19ProcessModifierImplINS2_21DefaultProxyFilterTagEEEEE = __sdk_start + 0x0000000000d05f70;
_ZN2nn3mii6detail17PantsPresentColorE = __sdk_start + 0x0000000000b20fd0;
nnsslConnectionGetIoMode = __sdk_start + 0x00000000003c08c0;
_ZTIN2nn3htc4tenv8IServiceE = __sdk_start + 0x0000000000cea660;
_ZN2nn2ec6detail15LaunchEShopImplENS1_10LaunchModeERKNS_7account3UidENS0_8SourceIdE = __sdk_start + 0x00000000002f5630;
_ZNK2nn3mii6detail16Ver3StoreDataRaw9GetGenderEv = __sdk_start + 0x000000000036db7c;
_ZN2nn2sf4hipc6client24Hipc2ClientCoreProcessorILNS1_6detail11MessageTypeE6ENS0_4cmif6detail14CoreMethodInfoINSt3__15tupleIJNS7_17InRawArgumentInfoILm16ELm8ELl0EEEEEELm16ELm0ELb0EEESD_E7ProcessEPNS2_26Hipc2ClientProxyBaseObjectENS6_6client23InRawClientArgumentTypeILm16ELm8EvEEj = __sdk_start + 0x0000000000393934;
_ZN2nn3hid18VibrationConverterC2Ev = __sdk_start + 0x000000000049eaa4;
_ZN2nn3hid6system6detail25IsUsingCustomButtonConfigEPbRKNS1_11UniquePadIdE = __sdk_start + 0x00000000004a6990;
_ZN2nn2sf4cmif6client6detail13CmifProxyImplINS_3ngc1t6detail7IObjectENS0_4hipc6client18Hipc2ProxyKindBaseILNS9_6detail11MessageTypeE6EEENS0_30MemoryResourceAllocationPolicyES8_NS3_19ProcessModifierImplINS2_21DefaultProxyFilterTagEEEE12GetProxyInfoEv = __sdk_start + 0x00000000004debb0;
clearerr_unlocked = __sdk_start + 0x00000000005a7a70;
_ZN2nn7account42NintendoAccountAuthorizationRequestContext8GetStateEPmPcm = __sdk_start + 0x00000000001a0334;
_ZN2nn3err9ShowErrorENS0_9ErrorCodeE = __sdk_start + 0x00000000002fbb50;
_ZN2nn5audio6server38CommandProcessingTimeEstimatorVersion38EstimateERKNS0_14MixRampCommandE = __sdk_start + 0x0000000000213e30;
atoi = __sdk_start + 0x00000000005abce0;
_ZN2nn3jit10InitializeEv = __sdk_start + 0x000000000035dc60;
_ZN2nn2sf4cmif6client6detail36GetClientProcessorImplWithObjectBaseINS0_4hipc6client18Hipc2ProxyKindBaseILNS5_6detail11MessageTypeE6EEENS3_19ProcessModifierImplINS2_21DefaultProxyFilterTagEEEE14ObjectAssignerINS0_30MemoryResourceAllocationPolicyENS_14MemoryResourceEE14AllocateObjectINS_7dp2hdmi6detail18IDp2hdmiControllerEEEvi = __sdk_start + 0x00000000003d9150;
_ZNSt3__127__insertion_sort_incompleteIRNS_6__lessIaaEEPaEEbT0_S5_T_ = __sdk_start + 0x00000000004ec660;
_ZN2nn6crypto6detail6BigNum7SubMultEPjPKjjS5_i = __sdk_start + 0x0000000000004e50;
_ZNK2nn12notification33WeeklyScheduleAlarmSettingBuilder3GetEv = __sdk_start + 0x000000000038f064;
_ZN3nne4nlib12OutputStream14GetWorkBuffer_EPm = __sdk_start + 0x000000000015fe48;
_ZN2nn2sf4hipc6client24Hipc2ClientCoreProcessorILNS1_6detail11MessageTypeE6ENS0_4cmif6detail14CoreMethodInfoINSt3__15tupleIJNS7_17InRawArgumentInfoILm4ELm4ELl4EEENSB_ILm24ELm4ELl8EEENSB_ILm1ELm1ELl0EEENSB_ILm24ELm4ELl32EEENSB_ILm1ELm1ELl1EEEEEELm56ELm0ELb0EEESH_E7ProcessEPNS2_26Hipc2ClientProxyBaseObjectENS6_6client23InRawClientArgumentTypeILm4ELm4EvEENSN_ILm24ELm4EvEENSN_ILm1ELm1EvEESP_SQ_j = __sdk_start + 0x0000000000243bac;
NvDdkVicFreeSession = __sdk_start + 0x00000000004212d0;
_ZTVNSt3__115__codecvt_utf16IDiLb1EEE = __sdk_start + 0x0000000000d23cf0;
nnaudiodetail_ne10_fft_r2c_1d_int16_c = __sdk_start + 0x00000000001f6050;
nncodecLibopus_remove_doubling = __sdk_start + 0x00000000002630f0;
atol = __sdk_start + 0x00000000005abd80;
_ZNK2nn2la32NifmToWifiWebAuthArgumentsWriter6ExportEPcm = __sdk_start + 0x000000000035fe88;
_ZN2nn2vi6detail18SystemServiceProxyC2Ev = __sdk_start + 0x00000000003e1b44;
nvdcSetBacklight = __sdk_start + 0x00000000003e6f50;
_ZN2nn3hid6system6detail21IsDefaultButtonConfigEPbRKNS_9hidconfig16ButtonConfigFullE = __sdk_start + 0x00000000004a60a0;
sync_print = __sdk_start + 0x000000000018c950;
_ZTVN2nn5audio6server15BufferMixerInfoE = __sdk_start + 0x0000000000d05788;
_ZNK2nn5audio3dsp20CommandListProcessor14GetSampleCountEv = __sdk_start + 0x0000000000223c94;
_ZN2nn9bluetooth3hal5debug20ForceEnableBluetoothEv = __sdk_start + 0x000000000023da10;
_ZN2nn5prepo10PlayReport4SendERKNS_7account3UidE = __sdk_start + 0x00000000003a89ac;
_ZN22nerd_gillette_internal5otete11ImageCodec213EncodeInPlaceERNS0_17MaxSizedBitStreamILm300EEERKNS_15StaticImageViewIhEE = __sdk_start + 0x00000000004cd320;
_ZTIN2nn2sf4cmif6client6detail13CmifProxyImplINS_4npns9INpnsUserENS0_4hipc6client18Hipc2ProxyKindBaseILNS7_6detail11MessageTypeE6EEENS0_30MemoryResourceAllocationPolicyENS5_11INpnsSystemENS3_19ProcessModifierImplINS2_21DefaultProxyFilterTagEEEEE = __sdk_start + 0x0000000000d0fca8;
_ZN2nn8settings6detail29GetErrorReportSharePermissionEPi = __sdk_start + 0x00000000003b3920;
_Z23hosGetSystemEventHandleijPN2nn2os15SystemEventTypeE = __sdk_start + 0x00000000003f7370;
_ZN2nn3ldn4ScanEPNS0_11NetworkInfoEPiiRKNS0_10ScanFilterEi = __sdk_start + 0x00000000004da420;
_ZN2nn6applet28TryPopFromAppletBoundChannelEPNS0_13StorageHandleE = __sdk_start + 0x00000000001ce5e0;
_ZN2nn5audio21AddCircularBufferSinkEPNS0_19AudioRendererConfigEPNS0_22CircularBufferSinkTypeEPNS0_12FinalMixTypeEPKaiPvmNS0_12SampleFormatE = __sdk_start + 0x00000000001d93a0;
_ZTVN2nn2sf6detail38ObjectImplFactoryWithStatefulAllocatorINS0_4cmif6client6detail9CmifProxyINS_4bcat3ipc29IDeliveryCacheProgressServiceENS4_19CmifDomainProxyKindINS0_4hipc6client38Hipc2ClientSessionManagedProxyKindBaseINSC_18Hipc2ProxyKindBaseILNSB_6detail11MessageTypeE6EEEEEEENS0_30MemoryResourceAllocationPolicyENS5_19ProcessModifierImplINS4_21DefaultProxyFilterTagEEEvEESK_E6ObjectE = __sdk_start + 0x0000000000d06008;
_ZN2nn4time19InitializeForSystemEv = __sdk_start + 0x00000000003ccef0;
_ZN2nn4lmem30GetExpHeapUseMarginOfAlignmentEPNS0_6detail8HeapHeadE = __sdk_start + 0x0000000000100ce0;
_ZN2nn6applet35GetPopFromInteractiveInChannelEventENS0_23LibraryAppletSelfHandleE = __sdk_start + 0x00000000001caff0;
_ZN2nn5codec12FDKcrcGetCRCEPNS0_11FDK_CRCINFOE = __sdk_start + 0x00000000002b1bc0;
_ZNK2nn7friends14FriendPresence24GetLastPlayedApplicationEv = __sdk_start + 0x0000000000344e84;
_ZN2nn8settings6detail23GetExternalRtcResetFlagEPb = __sdk_start + 0x00000000003b86a0;
nndetailImagePng_png_handle_unknown = __sdk_start + 0x00000000000632f0;
_ZN2nn5audio6server38CommandProcessingTimeEstimatorVersion48EstimateERKNS0_21ClearMixBufferCommandE = __sdk_start + 0x0000000000215430;
_ZN2nn4bcat4shim17ShimLibraryGlobal25MountDeliveryCacheStorageENS_13ApplicationIdE = __sdk_start + 0x000000000023958c;
_ZN2nn5codec30FDK_sbrDecoder_envelopeTable_8E = __sdk_start + 0x0000000000b0e364;
_ZTIN2nn2sf6detail38ObjectImplFactoryWithStatefulAllocatorINS0_4cmif6client6detail9CmifProxyINS_8settings22IFactorySettingsServerENS0_4hipc6client18Hipc2ProxyKindBaseILNS9_6detail11MessageTypeE6EEENS0_30MemoryResourceAllocationPolicyENS5_19ProcessModifierImplINS4_21DefaultProxyFilterTagEEEvEESF_E6ObjectE = __sdk_start + 0x0000000000d11f20;
_ZN2nn3hid6detail22GetSixAxisSensorStatesEPiPNS0_18SixAxisSensorStateEiRKNS0_19SixAxisSensorHandleE = __sdk_start + 0x0000000000495ad0;
_ZTCNSt3__19strstreamE0_NS_13basic_istreamIcNS_11char_traitsIcEEEE = __sdk_start + 0x0000000000d26208;
_ZN2nn7account29InitializeForMicroApplicationEv = __sdk_start + 0x0000000000199570;
_ZTSN2nn2sf4cmif6client6detail13CmifProxyImplINS_3apm8ISessionENS0_4hipc6client18Hipc2ProxyKindBaseILNS7_6detail11MessageTypeE6EEENS0_30MemoryResourceAllocationPolicyES6_NS3_19ProcessModifierImplINS2_21DefaultProxyFilterTagEEEEE = __sdk_start + 0x0000000000aea4cc;
_ZN2nn5codec29FDK_sbrDecoder_sbr_limGains_eE = __sdk_start + 0x0000000000b0db30;
nvdcutilGetMode = __sdk_start + 0x00000000003e7d80;
_ZN2nn2sf4cmif6client6detail13CmifProxyImplINS_3hid16IHidSystemServerENS0_4hipc6client18Hipc2ProxyKindBaseILNS7_6detail11MessageTypeE6EEENS0_30MemoryResourceAllocationPolicyES6_NS3_19ProcessModifierImplINS2_21DefaultProxyFilterTagEEEE41_nn_sf_sync_GetNpadLeftRightInterfaceTypeENS0_3OutIhvEESJ_j = __sdk_start + 0x00000000004b5ab0;
_ZNKSt3__17codecvtIcc11__mbstate_tE5do_inERS1_PKcS5_RS5_PcS7_RS7_ = __sdk_start + 0x000000000053e4f8;
_ZN2nn4edid6detail17VideoBlockVisitorEPKhmNS0_6cea8618BlockTagEPv = __sdk_start + 0x0000000000013590;
_ZNK2nn3mii21ParamCharInfoAccessor13GetBeardColorEv = __sdk_start + 0x0000000000364684;
_ZN2nn8settings6system28GetNetworkSystemClockContextEPNS_4time18SystemClockContextE = __sdk_start + 0x00000000003adbb0;
_ZN2nn5audio6common11SupportTags17DeviceApiVersion2E = __sdk_start + 0x0000000000d03810;
_ZNSt3__117__widen_from_utf8ILm16EED0Ev = __sdk_start + 0x0000000000542698;
_ZN2nn4htcs6detail25virtual_socket_collection6AcceptEiPNS0_12SockAddrHtcsERi = __sdk_start + 0x000000000035cf20;
_ZN2nn4npns23CreateTokenAsyncContext20GetNotificationTokenEPNS0_17NotificationTokenE = __sdk_start + 0x00000000003905f4;
_ZNSt3__18ios_base6skipwsE = __sdk_start + 0x0000000000b781e0;
_ZN2nn5audio6common8BitArrayIjED2Ev = __sdk_start + 0x00000000001d7f9c;
_ZTSN2nn2sf6detail38ObjectImplFactoryWithStatefulAllocatorINS0_13InterfaceInfoINS_5audio6detail14IAudioRendererEE4_tABINS7_5_tO2NINS4_6server24AudioRendererManagerImpl17AudioRendererImplEE4typeES6_E4typeENS0_24StatefulAllocationPolicyINS0_16ExpHeapAllocatorEEEE6ObjectE = __sdk_start + 0x0000000000aefcce;
_ZN2nn8profiler27ArbitrateLockInterceptEnterENS_3svc6HandleENS0_13SyncPrimitiveIS2_EEj = __sdk_start + 0x00000000003ab580;
_ZN2nn5image11ExifBuilder11SetSoftwareEPKcm = __sdk_start + 0x000000000004ae78;
_ZTIN2nn2sf6detail38ObjectImplFactoryWithStatefulAllocatorINS0_4cmif6client6detail9CmifProxyINS_3ssl2sf20ISslServiceForSystemENS4_19CmifDomainProxyKindINS0_4hipc6client38Hipc2ClientSessionManagedProxyKindBaseINSC_18Hipc2ProxyKindBaseILNSB_6detail11MessageTypeE6EEEEEEENS0_24StatefulAllocationPolicyINS0_16ExpHeapAllocatorEEENS5_19ProcessModifierImplINS4_21DefaultProxyFilterTagEEEvEESM_E6ObjectE = __sdk_start + 0x0000000000d13768;
_ZN2nn3hid6detail14InitializeNpadEv = __sdk_start + 0x0000000000491890;
_ZN2nn2sf4hipc6client24Hipc2ClientCoreProcessorILNS1_6detail11MessageTypeE6ENS0_4cmif6detail14CoreMethodInfoINSt3__15tupleIJNS7_17InRawArgumentInfoILm16ELm4ELl0EEEEEELm16ELm0ELb0EEESD_E7ProcessEPNS2_26Hipc2ClientProxyBaseObjectENS6_6client23InRawClientArgumentTypeILm16ELm4EvEEj = __sdk_start + 0x00000000003be1b4;
_ZNSt3__18ios_base5pwordEi = __sdk_start + 0x000000000050a674;
_ZN2nn2fs3dbm8PathTool10PathParser20GetNextDirectoryNameEPNS1_13DirectoryNameEPm = __sdk_start + 0x000000000009d560;
_ZN2nn5album12LibraryState15GetLibraryMutexEv = __sdk_start + 0x00000000001af1b4;
_ZN2nn2sf4cmif6client6detail13CmifProxyImplINS_2am7service15IDebugFunctionsENS2_19CmifDomainProxyKindINS0_4hipc6client38Hipc2ClientSessionManagedProxyKindBaseINSA_18Hipc2ProxyKindBaseILNS9_6detail11MessageTypeE6EEEEEEENS0_30MemoryResourceAllocationPolicyES7_NS3_19ProcessModifierImplINS2_21DefaultProxyFilterTagEEEE56_nn_sf_sync_AddOperationConfirmedLibraryAppletIdForDebugENS_6applet8AppletIdE = __sdk_start + 0x00000000001ba59c;
_ZN2nn3hid6system21IsHandheldHidsEnabledEv = __sdk_start + 0x00000000004adec0;
_ZN2nn5async6detail18ExecutionScheduler17WorkItemMultiWaitC1EPNS_2os9EventTypeE = __sdk_start + 0x0000000000087b1c;
_ZN2nn3aoc19InitializeForSystemEv = __sdk_start + 0x00000000001c62d0;
_ZNK2nn3mii21ParamCharInfoAccessor13GetMouthColorEv = __sdk_start + 0x0000000000364664;
_ZN2nn5srepo6Struct3AddEPKcRKNS0_10Any64BitIdE = __sdk_start + 0x00000000003ab344;
NvRmSurfaceContainerGetAlignment = __sdk_start + 0x0000000000400c00;
_ZN2nn6crypto6detail10CbcMacImpl13ProcessBlocksINS0_12AesEncryptorILm16EEEEEvPKvi = __sdk_start + 0x000000000000e990;
_ZN2nn2fs15RomFsFileSystem10InitializeEONSt3__110unique_ptrINS0_8IStorageENS2_14default_deleteIS4_EEEEPvmb = __sdk_start + 0x00000000000ea000;
_ZN7android6Region13operationSelfERKS0_iii = __sdk_start + 0x00000000001901ec;
_ZN2nn5audio27GetAuxBufferLostSampleCountEPKNS0_13AuxBufferInfoE = __sdk_start + 0x00000000001cf290;
_Z42nnaudiodetail_ne10_radix_butterfly_int32_cILi5ELb1ELb1ELb0EEvP20ne10_fft_cpx_int32_tPKS0_S3_iii = __sdk_start + 0x00000000001f3b50;
_ZN2nn2sf4cmif6client6detail13CmifProxyImplINS_4bcat3ipc28IDeliveryCacheStorageServiceENS2_19CmifDomainProxyKindINS0_4hipc6client38Hipc2ClientSessionManagedProxyKindBaseINSA_18Hipc2ProxyKindBaseILNS9_6detail11MessageTypeE6EEEEEEENS0_30MemoryResourceAllocationPolicyES7_NS3_19ProcessModifierImplINS2_21DefaultProxyFilterTagEEEE12GetProxyInfoEv = __sdk_start + 0x0000000000238bf8;
_ZN2nn4diag16GetAllModuleInfoEPPNS0_10ModuleInfoEPvm = __sdk_start + 0x0000000000097350;
_ZTSN2nn2sf6detail38ObjectImplFactoryWithStatefulAllocatorINS0_4cmif6client6detail9CmifProxyINS_2am7service18ICommonStateGetterENS4_19CmifDomainProxyKindINS0_4hipc6client38Hipc2ClientSessionManagedProxyKindBaseINSC_18Hipc2ProxyKindBaseILNSB_6detail11MessageTypeE6EEEEEEENS0_30MemoryResourceAllocationPolicyENS5_19ProcessModifierImplINS4_21DefaultProxyFilterTagEEEvEESK_E6ObjectE = __sdk_start + 0x0000000000ade33d;
_ZTSN2nn5audio6server10EffectInfoILNS0_10EffectTypeE3ENS0_14DelayParameterEEE = __sdk_start + 0x0000000000af0f7e;
_ZTSN2nn2sf4cmif6client6detail13CmifProxyImplINS_7dp2hdmi6detail18IDp2hdmiControllerENS0_4hipc6client18Hipc2ProxyKindBaseILNS8_6detail11MessageTypeE6EEENS0_30MemoryResourceAllocationPolicyES7_NS3_19ProcessModifierImplINS2_21DefaultProxyFilterTagEEEEE = __sdk_start + 0x0000000000b39c04;
NvRmMemSetAllocationTagLabel = __sdk_start + 0x00000000003fa3a0;
__clear_cache = __sdk_start + 0x000000000057c260;
_ZNK2nn9bluetooth11GattService19GetIncludedServicesEPS1_i = __sdk_start + 0x00000000002463a0;
_ZN2nn5codec10AacDecoder8FinalizeEv = __sdk_start + 0x00000000002eb4e8;
_ZN2nn8settings6system24GetInitialLaunchSettingsEPNS1_21InitialLaunchSettingsE = __sdk_start + 0x00000000003afcf0;
_ZTINSt3__112future_errorE = __sdk_start + 0x0000000000d21600;
_ZTSN2nn3btm8IBtmUserE = __sdk_start + 0x0000000000af93ae;
_ZN2nn3mii6detail16Ver3StoreDataRaw12SetMoleScaleEi = __sdk_start + 0x000000000037578c;
_ZN2nn4time6detail14HasPenaltyInfoERKNS0_27PeriodicBenefitClaimContextE = __sdk_start + 0x00000000003cf970;
_ZTSN10__cxxabiv116__shim_type_infoE = __sdk_start + 0x0000000000b7abe0;
stdout = __sdk_start + 0x0000000000d31d38;
_ZN2nn3hid6system6detail22SetSystemKeyboardStateERKNS1_19SystemKeyboardStateERKNS_6applet20AppletResourceUserIdE = __sdk_start + 0x00000000004a73d0;
_ZN2nn8irsensor6detail24GetMomentProcessorStatesEPNS0_20MomentProcessorStateEPiiRKNS0_14IrCameraHandleE = __sdk_start + 0x00000000004bdcb0;
_ZN2nn5image10PngDecoder10InitializeEPFPvmS2_ES2_PFvS2_S2_ES2_ = __sdk_start + 0x000000000006f4f8;
_ZN2nn7account36CheckNetworkServiceAvailabilityAsyncEPNS0_12AsyncContextE = __sdk_start + 0x000000000019a280;
_ZN2nn9bluetooth3hal4user16LeSendIndicationEhRKNS0_17GattAttributeUuidES5_PKvmb = __sdk_start + 0x000000000023e000;
_ZN2nn2sf4cmif6client6detail13CmifProxyImplINS_8settings21ISystemSettingsServerENS0_4hipc6client18Hipc2ProxyKindBaseILNS7_6detail11MessageTypeE6EEENS0_30MemoryResourceAllocationPolicyES6_NS3_19ProcessModifierImplINS2_21DefaultProxyFilterTagEEEE27_nn_sf_sync_GetPanelCrcModeENS0_3OutIivEE = __sdk_start + 0x00000000003bbf54;
_ZTVN2nn2sf6detail38ObjectImplFactoryWithStatefulAllocatorINS0_4cmif6client6detail9CmifProxyINS_3ssl2sf20ISslContextForSystemENS4_19CmifDomainProxyKindINS0_4hipc6client38Hipc2ClientSessionManagedProxyKindBaseINSC_18Hipc2ProxyKindBaseILNSB_6detail11MessageTypeE6EEEEEEENS0_24StatefulAllocationPolicyINS0_16ExpHeapAllocatorEEENS5_19ProcessModifierImplINS4_21DefaultProxyFilterTagEEEvEESM_E6ObjectE = __sdk_start + 0x0000000000d13b30;
fma = __sdk_start + 0x00000000005bbaa0;
nndetailImagePng_png_get_user_chunk_ptr = __sdk_start + 0x0000000000053e20;
_ZTIN2nn2am7service16IAudioControllerE = __sdk_start + 0x0000000000cffca0;
_ZN2nn4npns8FinalizeEv = __sdk_start + 0x0000000000390bc0;
_ZN2nn2sf4cmif6client6detail13CmifProxyImplINS_3nsd6detail8IManagerENS0_4hipc6client18Hipc2ProxyKindBaseILNS8_6detail11MessageTypeE6EEENS0_30MemoryResourceAllocationPolicyES7_NS3_19ProcessModifierImplINS2_21DefaultProxyFilterTagEEEE25_nn_sf_sync_GetNasApiFqdnENS0_3OutINS5_4FqdnEvEE = __sdk_start + 0x000000000039609c;
_ZNKSt20bad_array_new_length4whatEv = __sdk_start + 0x0000000000567164;
_ZN2nn2sf4cmif6client34CmifDomainProxyClientCoreProcessorINS0_4hipc6client38Hipc2ClientSessionManagedProxyKindBaseINS5_18Hipc2ProxyKindBaseILNS4_6detail11MessageTypeE6EEEEENS1_6detail14CoreMethodInfoINSt3__15tupleIJNSC_17InRawArgumentInfoILm8ELm8ELl0EEENSC_18BufferArgumentInfoILi0ELi6ELm0EEENSG_ILm8ELm8ELl8EEEEEELm16ELm0ELb0EEESL_E7ProcessEPNS2_23CmifDomainClientMessageISB_E15ProxyBaseObjectENS2_23InRawClientArgumentTypeILm8ELm8EvEENS2_24BufferClientArgumentTypeEST_j = __sdk_start + 0x00000000000ca5e0;
nnosGetSystemTick = __sdk_start + 0x0000000000130390;
_ZN2nn2sf4hipc6client24Hipc2ClientCoreProcessorILNS1_6detail11MessageTypeE6ENS0_4cmif6detail14CoreMethodInfoINSt3__15tupleIJNS7_18OutRawArgumentInfoILm32ELm8ELl0EEENS7_18BufferArgumentInfoILi0ELi69ELm0EEENS7_17InRawArgumentInfoILm4ELm4ELl0EEENSF_ILm8ELm8ELl8EEENSF_ILm4ELm4ELl4EEEEEELm16ELm32ELb1EEESJ_E7ProcessEPNS2_26Hipc2ClientProxyBaseObjectENS6_6client24OutRawClientArgumentTypeILm32ELm8EEENSO_24BufferClientArgumentTypeENSO_23InRawClientArgumentTypeILm4ELm4EvEENSS_ILm8ELm8EvEEST_j = __sdk_start + 0x000000000024a7e0;
_ZN2nn2ec21ShowShopCouponForMenuENS0_8CouponIdERKNS_7account3UidENS0_8SourceIdE = __sdk_start + 0x00000000002f3dc0;
_ZN2nn5audio14MemoryPoolType16AddressAlignmentE = __sdk_start + 0x0000000000aeab00;
nncodecLibopus_opus_fft_c = __sdk_start + 0x00000000002613c0;
_ZNSt3__121recursive_timed_mutex4lockEv = __sdk_start + 0x00000000004fa5a0;
_ZNSt3__112strstreambufC2EPalS1_ = __sdk_start + 0x000000000054ef94;
_ZN7android7BBinder11localBinderEv = __sdk_start + 0x0000000000161108;
_ZTSN2nn2sf6detail38ObjectImplFactoryWithStatefulAllocatorINS0_4cmif6client6detail9CmifProxyINS_2am7service21ILibraryAppletCreatorENS4_19CmifDomainProxyKindINS0_4hipc6client38Hipc2ClientSessionManagedProxyKindBaseINSC_18Hipc2ProxyKindBaseILNSB_6detail11MessageTypeE6EEEEEEENS0_30MemoryResourceAllocationPolicyENS5_19ProcessModifierImplINS4_21DefaultProxyFilterTagEEEvEESK_E6ObjectE = __sdk_start + 0x0000000000ae2635;
_ZN2nn5audio9VoiceType8PitchMaxE = __sdk_start + 0x0000000000aeac18;
_ZN2nn4pctl34ConfirmLaunchApplicationPermissionENS_3ncm13ApplicationIdERKNS_2ns26ApplicationControlPropertyE = __sdk_start + 0x000000000039c820;
fwrite = __sdk_start + 0x00000000005a98a0;
_ZTIN2nn2fs21WritableRomFileSystem20WritableRomDirectoryE = __sdk_start + 0x0000000000ce7320;
_ZN2nn5audio20GetSubMixBufferCountEPKNS0_10SubMixTypeE = __sdk_start + 0x00000000001dac20;
nnaudiodetail_ne10_fft_c2r_1d_float32_c = __sdk_start + 0x00000000001f9140;
_ZNSt3__113basic_istreamIwNS_11char_traitsIwEEE3getEPwlw = __sdk_start + 0x0000000000511f00;
_ZTINSt3__19__num_getIcEE = __sdk_start + 0x0000000000d24120;
_ZN2nn2sf4hipc6client24Hipc2ClientCoreProcessorILNS1_6detail11MessageTypeE6ENS0_4cmif6detail14CoreMethodInfoINSt3__15tupleIJNS7_18OutRawArgumentInfoILm8ELm8ELl0EEENS7_17InRawArgumentInfoILm48ELm8ELl0EEENSD_ILm8ELm8ELl48EEEEEELm56ELm8ELb1EEESG_E7ProcessEPNS2_26Hipc2ClientProxyBaseObjectENS6_6client24OutRawClientArgumentTypeILm8ELm8EEENSL_23InRawClientArgumentTypeILm48ELm8EvEENSO_ILm8ELm8EvEEj = __sdk_start + 0x000000000024cae8;
_ZTSN2nn2ec4json29MemoryInputStreamForRapidJsonE = __sdk_start + 0x0000000000b0f872;
_ZN2nn8settings6detail22GetSettingsItemKeySizeEPmRKNS0_5fwdbg23SettingsItemKeyIteratorE = __sdk_start + 0x00000000003ac5d0;
_ZN2nn9hidconfig34IsButtonConfigStorageEmbeddedEmptyEi = __sdk_start + 0x00000000004aa230;
_ZNKSt3__17codecvtIDsDu11__mbstate_tE16do_always_noconvEv = __sdk_start + 0x000000000053fb2c;
_ZN2nn2sf4cmif6client6detail13CmifProxyImplINS_5visrv2sf26IApplicationDisplayServiceENS0_4hipc6client18Hipc2ProxyKindBaseILNS8_6detail11MessageTypeE6EEENS0_30MemoryResourceAllocationPolicyES7_NS3_19ProcessModifierImplINS2_21DefaultProxyFilterTagEEEE24_nn_sf_sync_ListDisplaysENS0_3OutIlvEERKNS0_8OutArrayINS_2vi11DisplayInfoEEE = __sdk_start + 0x00000000003d71b8;
_ZN2nn3hid6system6detail19IsJoyConRailEnabledEPb = __sdk_start + 0x00000000004a72d0;
nndetailImagePng_png_write_hIST = __sdk_start + 0x000000000006d000;
__android_log_print = __sdk_start + 0x000000000018bd40;
_ZN2nn5audio6server16CommandGenerator24GenerateFinalMixCommandsEv = __sdk_start + 0x0000000000211504;
_ZN2nn2sf4cmif6client6detail13CmifProxyImplINS_3ngc1t6detail9INotifierENS0_4hipc6client18Hipc2ProxyKindBaseILNS9_6detail11MessageTypeE6EEENS0_30MemoryResourceAllocationPolicyES8_NS3_19ProcessModifierImplINS2_21DefaultProxyFilterTagEEEE26_nn_sf_sync_GetSystemEventENS0_3OutINS0_12NativeHandleEvEE = __sdk_start + 0x00000000004dea34;
_ZNSt3__14coutE = __sdk_start + 0x0000000000e00dc0;
_ZN2nn5async6detail18ExecutionScheduler17WorkItemMultiWait10TryWaitAnyEPNS1_15GroupWaitHolderE = __sdk_start + 0x0000000000087ce8;
_ZN2nn2sf4cmif6client6detail13CmifProxyImplINS_2am7service18IAppletProxyCommonENS2_19CmifDomainProxyKindINS0_4hipc6client38Hipc2ClientSessionManagedProxyKindBaseINSA_18Hipc2ProxyKindBaseILNS9_6detail11MessageTypeE6EEEEEEENS0_30MemoryResourceAllocationPolicyENS6_18ISystemAppletProxyENS3_19ProcessModifierImplINS2_21DefaultProxyFilterTagEEEE17GetCmifBaseObjectEv = __sdk_start + 0x00000000001b6a68;
silk_uniform6_iCDF = __sdk_start + 0x0000000000afeaaa;
_ZNK2nn3mii6detail12StoreDataRaw7GetEyeYEv = __sdk_start + 0x000000000036c1f0;
_ZN2nn8settings6detail11GetThemeKeyEPNS_8fssystem13ArchiveMacKeyE = __sdk_start + 0x00000000003bad20;
_ZN2nn3hid6system35ShowControllerKeyRemappingForSystemERKNS1_25ControllerKeyRemappingArgENS1_23ControllerSupportCallerE = __sdk_start + 0x00000000004bd000;
_ZN2nn2sf4cmif6client34CmifDomainProxyClientCoreProcessorINS0_4hipc6client38Hipc2ClientSessionManagedProxyKindBaseINS5_18Hipc2ProxyKindBaseILNS4_6detail11MessageTypeE6EEEEENS1_6detail14CoreMethodInfoINSt3__15tupleIJNSC_18OutRawArgumentInfoILm8ELm8ELl0EEENSC_17InRawArgumentInfoILm8ELm8ELl0EEENSC_18BufferArgumentInfoILi0ELi34ELm0EEEEEELm8ELm8ELb0EEESM_E7ProcessEPNS2_23CmifDomainClientMessageISB_E15ProxyBaseObjectENS2_24OutRawClientArgumentTypeILm8ELm8EEENS2_23InRawClientArgumentTypeILm8ELm8EvEENS2_24BufferClientArgumentTypeEj = __sdk_start + 0x00000000001bdfe4;
_ZTSN2nn8irsensor6detail15IrSensorSessionE = __sdk_start + 0x0000000000b53bc6;
_ZThn16_NSt3__114basic_iostreamIcNS_11char_traitsIcEEED0Ev = __sdk_start + 0x000000000050fe94;
_ZN2nn7account34LoadNetworkServiceLicenseInfoAsyncEPNS0_37AsyncNetworkServiceLicenseInfoContextERKNS0_10UserHandleE = __sdk_start + 0x000000000019fb50;
_ZNK2nn3mii6detail11CoreDataRaw12GetMouthTypeEv = __sdk_start + 0x0000000000369354;
_ZN2nn3web18WebPageReturnValueC2Ev = __sdk_start + 0x00000000004e3ad4;
_ZN2nn2os6detail39DetachWritableHandleOfInterProcessEventEPNS1_21InterProcessEventTypeE = __sdk_start + 0x0000000000130580;
_ZTIN2nn2sf4cmif6client6detail9CmifProxyINS_2am7service26ILibraryAppletSelfAccessorENS2_19CmifDomainProxyKindINS0_4hipc6client38Hipc2ClientSessionManagedProxyKindBaseINSA_18Hipc2ProxyKindBaseILNS9_6detail11MessageTypeE6EEEEEEENS0_30MemoryResourceAllocationPolicyENS3_19ProcessModifierImplINS2_21DefaultProxyFilterTagEEEvEE = __sdk_start + 0x0000000000d01350;
mtx_trylock = __sdk_start + 0x0000000000581440;
dirname = __sdk_start + 0x00000000005a3b10;
_ZNK2nn5audio12SplitterInfo9GetInUsedEv = __sdk_start + 0x00000000001da890;
_ZN2nn2sf4hipc6client24Hipc2ClientCoreProcessorILNS1_6detail11MessageTypeE6ENS0_4cmif6detail14CoreMethodInfoINSt3__15tupleIJNS7_21OutObjectArgumentInfoILi0ELi0EEENS7_17InRawArgumentInfoILm52ELm4ELl0EEENSD_ILm8ELm8ELl56EEENS7_20InHandleArgumentInfoILi0ELi1EEENSD_ILm8ELm8ELl64EEENSD_ILm8ELm8ELl72EEEEEELm80ELm0ELb1EEESK_E21ProcessWithOutObjectsEPNS2_26Hipc2ClientProxyBaseObjectENS6_6client27OutObjectClientArgumentTypeENSP_23InRawClientArgumentTypeILm52ELm4EvEENSR_ILm8ELm8EvEENSP_26InHandleClientArgumentTypeEST_ST_jPNS0_13SharedPointerINS0_14IServiceObjectEEE = __sdk_start + 0x00000000001e4e90;
_ZN2nn9bluetooth3hal25UnregisterGattHidDataPathERKNS0_17GattAttributeUuidE = __sdk_start + 0x000000000023c290;
wcstoul = __sdk_start + 0x00000000005ace50;
_ZNSt3__110__time_putC1ERKNS_12basic_stringIcNS_11char_traitsIcEENS_9allocatorIcEEEE = __sdk_start + 0x0000000000549910;
_ZN2nn6crypto6detail11XtsModeImpl20ProcessBlocksGenericEPhPKhi = __sdk_start + 0x0000000000010e20;
nndetailImageJpeg_jpeg_read_raw_data = __sdk_start + 0x0000000000024f40;
_ZN2nn9bluetooth3hal20UnregisterGattClientEh = __sdk_start + 0x000000000023ca90;
_ZN2nn2sf4hipc6client24Hipc2ClientCoreProcessorILNS1_6detail11MessageTypeE6ENS0_4cmif6detail14CoreMethodInfoINSt3__15tupleIJNS7_17InRawArgumentInfoILm6ELm1ELl0EEENSB_ILm2ELm2ELl6EEEEEELm8ELm0ELb0EEESE_E7ProcessEPNS2_26Hipc2ClientProxyBaseObjectENS6_6client23InRawClientArgumentTypeILm6ELm1EvEENSK_ILm2ELm2EvEEj = __sdk_start + 0x0000000000241d28;
_ZN2nn2sf4cmif6client6detail13CmifProxyImplINS_3hid15IHidDebugServerENS0_4hipc6client18Hipc2ProxyKindBaseILNS7_6detail11MessageTypeE6EEENS0_30MemoryResourceAllocationPolicyES6_NS3_19ProcessModifierImplINS2_21DefaultProxyFilterTagEEEE26_nn_sf_sync_SetRailEnabledEb = __sdk_start + 0x00000000004b3184;
_ZN2nn3web22ShowOfflineHtmlPageArg19SetPageCacheEnabledEb = __sdk_start + 0x00000000004e0e40;
_ZN2nn4bcat28GetDeliveryCacheStorageUsageEPNS0_25DeliveryCacheStorageUsageENS_13ApplicationIdE = __sdk_start + 0x0000000000234780;
_ZN2nn2sf4cmif6client6detail13CmifProxyImplINS_3mii6detail21IImageDatabaseServiceENS0_4hipc6client18Hipc2ProxyKindBaseILNS8_6detail11MessageTypeE6EEENS0_30MemoryResourceAllocationPolicyES7_NS3_19ProcessModifierImplINS2_21DefaultProxyFilterTagEEEE19_nn_sf_sync_IsEmptyENS0_3OutIbvEE = __sdk_start + 0x000000000037b888;
_ZN2nn3web38ShowApplicationLegalInformationPageArg21DocumentPathMaxLengthE = __sdk_start + 0x0000000000b5a450;
_ZNKSt3__17codecvtIwc11__mbstate_tE10do_unshiftERS1_PcS4_RS4_ = __sdk_start + 0x000000000053ee10;
_ZN2nn2ec19ShopServiceAccessor13AsyncResponse6AttachEPS1_PNS_3nim6detail17IShopServiceAsyncERKNS_2sf12NativeHandleE = __sdk_start + 0x00000000002f4510;
_ZN2nn4nifm6detail34ConvertAccessPointDataToNifmFromSfEPNS0_15AccessPointDataERKNS1_2sf17AccessPointDataV1E = __sdk_start + 0x000000000038c4b0;
NvRmSyncWait = __sdk_start + 0x00000000003f7740;
NvRmGpuCtxSwTraceClose = __sdk_start + 0x0000000000435480;
ynf = __sdk_start + 0x00000000005b5f00;
_ZN2nn4util8BitArray2OrEPS1_RKS1_S4_ = __sdk_start + 0x000000000007d620;
_ZN2nn5async6detail15FutureStateBaseC2Ev = __sdk_start + 0x00000000000898a0;
_ZN2nn5audio22AudioRendererParameter17MixBufferCountMaxE = __sdk_start + 0x0000000000aea9d0;
_ZN2nn5audio18GetReverbDecayTimeEPKNS0_10ReverbTypeE = __sdk_start + 0x00000000001d6dd0;
_ZN2nn5audio6server38CommandProcessingTimeEstimatorVersion38EstimateERKNS0_13VolumeCommandE = __sdk_start + 0x0000000000213cf0;
_ZTVN2nn7friends6detail13AsyncFunctionIJPNS1_3ipc14IFriendServiceENS_7account3UidEEEE = __sdk_start + 0x0000000000d0a9c0;
_ZN2nn3nfc13StopDetectionERKNS0_12DeviceHandleE = __sdk_start + 0x000000000037fda0;
_ZN2nn4util17MessagePackWriterC2EPNS1_11StreamParamE = __sdk_start + 0x000000000007e834;
_ZTVN2nn2sf6detail38ObjectImplFactoryWithStatefulAllocatorINS0_4cmif6client6detail9CmifProxyINS_4npns9INpnsUserENS0_4hipc6client18Hipc2ProxyKindBaseILNS9_6detail11MessageTypeE6EEENS0_30MemoryResourceAllocationPolicyENS5_19ProcessModifierImplINS4_21DefaultProxyFilterTagEEEvEESF_E6ObjectE = __sdk_start + 0x0000000000d0f6e8;
_ZN2nn2sf4hipc6client24Hipc2ClientCoreProcessorILNS1_6detail11MessageTypeE6ENS0_4cmif6detail14CoreMethodInfoINSt3__15tupleIJNS7_18OutRawArgumentInfoILm40ELm1ELl0EEENS7_17InRawArgumentInfoILm16ELm8ELl0EEEEEELm16ELm40ELb0EEESF_E7ProcessEPNS2_26Hipc2ClientProxyBaseObjectENS6_6client24OutRawClientArgumentTypeILm40ELm1EEENSK_23InRawClientArgumentTypeILm16ELm8EvEEj = __sdk_start + 0x0000000000393a20;
_ZN2nn8settings6detail30GetAnalogStickUserCalibrationREPNS0_6system26AnalogStickUserCalibrationE = __sdk_start + 0x00000000003b6d60;
_ZN21HeartRateCaptureStateC2Ev = __sdk_start + 0x00000000004d6c88;
_ZNKSt3__112basic_stringIwNS_11char_traitsIwEENS_9allocatorIwEEE16find_last_not_ofEPKwmm = __sdk_start + 0x0000000000501740;
_ZTIN2nn2sf4cmif6server23CmifServerDomainManagerE = __sdk_start + 0x0000000000ceb1e0;
_ZN7android12ConsumerBaseC2ERKNS_2spINS_22IGraphicBufferConsumerEEEb = __sdk_start + 0x000000000017b1b0;
_ZN7android8String165setToEPKDs = __sdk_start + 0x00000000001926e0;
_ZN2nn8settings12LanguageCode4MakeENS0_8LanguageE = __sdk_start + 0x00000000003ae9ec;
_ZN2nn4pctl18PairingAccountInfoC2Ev = __sdk_start + 0x000000000039de04;
_ZN2nn8settings6system16SetThemeSettingsERKNS1_13ThemeSettingsE = __sdk_start + 0x00000000003b0050;
_ZN2nn2sf4hipc6client24Hipc2ClientCoreProcessorILNS1_6detail11MessageTypeE6ENS0_4cmif6detail14CoreMethodInfoINSt3__15tupleIJNS7_17InRawArgumentInfoILm4ELm4ELl0EEENSB_ILm8ELm8ELl16EEENSB_ILm4ELm4ELl4EEENSB_ILm4ELm4ELl8EEEEEELm24ELm0ELb1EEESG_E7ProcessEPNS2_26Hipc2ClientProxyBaseObjectENS6_6client23InRawClientArgumentTypeILm4ELm4EvEENSM_ILm8ELm8EvEESN_SN_j = __sdk_start + 0x00000000004b357c;
_ZNK2nn3mii6detail12StoreDataRaw9GetMouthYEv = __sdk_start + 0x000000000036c22c;
_ZN2nn2sf4cmif6client6detail13CmifProxyImplINS_4nifm6detail8IRequestENS2_19CmifDomainProxyKindINS0_4hipc6client38Hipc2ClientSessionManagedProxyKindBaseINSA_18Hipc2ProxyKindBaseILNS9_6detail11MessageTypeE6EEEEEEENS0_30MemoryResourceAllocationPolicyES7_NS3_19ProcessModifierImplINS2_21DefaultProxyFilterTagEEEE21_nn_sf_sync_GetResultEv = __sdk_start + 0x0000000000389784;
_ZN2nn2vi35SetRecordingLayerCompositionEnabledEPNS0_5LayerEb = __sdk_start + 0x00000000003e0980;
nnosTryReceiveMessageQueue = __sdk_start + 0x0000000000130260;
_ZN2nn3apm18GetInternalManagerEv = __sdk_start + 0x00000000001c91c0;
_ZN2nn5audio6server11InfoUpdater18UpdateSplitterInfoERNS1_15SplitterContextE = __sdk_start + 0x0000000000217e18;
_ZN2nn2ec19ShopServiceAccessor6DetachEPNS1_13AsyncResponseE = __sdk_start + 0x00000000002f41e8;
_ZTSN2nn2sf4cmif6client6detail9CmifProxyINS_3mii6detail21IImageDatabaseServiceENS0_4hipc6client18Hipc2ProxyKindBaseILNS8_6detail11MessageTypeE6EEENS0_30MemoryResourceAllocationPolicyENS3_19ProcessModifierImplINS2_21DefaultProxyFilterTagEEEvEE = __sdk_start + 0x0000000000b2b1a0;
_ZN2nn5prepo6Struct5ClearEv = __sdk_start + 0x00000000003a8c0c;
_ZN2nn3nsd6detail3ipc11GetDeviceIdEPNS0_8DeviceIdE = __sdk_start + 0x0000000000394aa0;
_ZN2nn8settings6detail32SetChineseTraditionalInputMethodENS0_29ChineseTraditionalInputMethodE = __sdk_start + 0x00000000003b7140;
_ZN2nn2sf4cmif6client6detail13CmifProxyImplINS_8settings21ISystemSettingsServerENS0_4hipc6client18Hipc2ProxyKindBaseILNS7_6detail11MessageTypeE6EEENS0_30MemoryResourceAllocationPolicyES6_NS3_19ProcessModifierImplINS2_21DefaultProxyFilterTagEEEE36_nn_sf_sync_GetBatteryPercentageFlagENS0_3OutIbvEE = __sdk_start + 0x00000000003bb924;
_ZN2nn2sf4cmif6client6detail13CmifProxyImplINS_7timesrv6detail7service14IStaticServiceENS2_19CmifDomainProxyKindINS0_4hipc6client38Hipc2ClientSessionManagedProxyKindBaseINSB_18Hipc2ProxyKindBaseILNSA_6detail11MessageTypeE6EEEEEEENS0_30MemoryResourceAllocationPolicyES8_NS3_19ProcessModifierImplINS2_21DefaultProxyFilterTagEEEE38_nn_sf_sync_GetStandardUserSystemClockENS0_3OutINS0_13SharedPointerINS7_12ISystemClockEEEvEE = __sdk_start + 0x00000000003d16ec;
_ZN2nn2fs20GetSaveDataTimeStampEPNS_4time9PosixTimeEm = __sdk_start + 0x00000000000df760;
_ZN2nn2sf4cmif6client6detail13CmifProxyImplINS_6aocsrv6detail20IAddOnContentManagerENS0_4hipc6client18Hipc2ProxyKindBaseILNS8_6detail11MessageTypeE6EEENS0_30MemoryResourceAllocationPolicyES7_NS3_19ProcessModifierImplINS2_21DefaultProxyFilterTagEEEE40_nn_sf_sync_CheckAddOnContentMountStatusEm = __sdk_start + 0x00000000001c6c98;
_ZN2nn5audio6server11InfoUpdater18UpdateRendererInfoEl = __sdk_start + 0x0000000000217e74;
_ZN2nn5async6detail9GroupWait24CheckIfWaitRetryIsNeededEPNS2_14SignaledObjectEPNS_2os19MultiWaitHolderTypeE = __sdk_start + 0x0000000000089d80;
_ZN2nn2sf4cmif6client6detail13CmifProxyImplINS_2am7service18IAppletProxyCommonENS2_19CmifDomainProxyKindINS0_4hipc6client38Hipc2ClientSessionManagedProxyKindBaseINSA_18Hipc2ProxyKindBaseILNS9_6detail11MessageTypeE6EEEEEEENS0_30MemoryResourceAllocationPolicyENS6_17IApplicationProxyENS3_19ProcessModifierImplINS2_21DefaultProxyFilterTagEEEE17GetCmifBaseObjectEv = __sdk_start + 0x00000000001c1530;
_ZTIN2nn5audio6server11CaptureInfoE = __sdk_start + 0x0000000000d05980;
nvnPrivate0 = __sdk_start + 0x0000000000de8d78;
_ZN2nn2fs3dbm29HierarchicalFileTableTemplateINS1_13DirectoryNameENS1_8FileNameENS1_6detail13DirectoryInfoENS5_8FileInfoEE14RemoveFileLinkEPNS8_14DirectoryEntryEjPNS8_9FileEntryEj = __sdk_start + 0x00000000000aec28;
_ZN2nn4pctl10SetPinCodeEPKc = __sdk_start + 0x000000000039c100;
_ZN2nn2sf4cmif6client6detail13CmifProxyImplINS_8settings21ISystemSettingsServerENS0_4hipc6client18Hipc2ProxyKindBaseILNS7_6detail11MessageTypeE6EEENS0_30MemoryResourceAllocationPolicyES6_NS3_19ProcessModifierImplINS2_21DefaultProxyFilterTagEEEE44_nn_sf_sync_AcquireFatalDirtyFlagEventHandleENS0_3OutINS0_12NativeHandleEvEE = __sdk_start + 0x00000000003bb8b8;
_ZN2nn2sf4cmif6client6detail13CmifProxyImplINS_6grcsrv11IMovieMakerENS2_19CmifDomainProxyKindINS0_4hipc6client38Hipc2ClientSessionManagedProxyKindBaseINS9_18Hipc2ProxyKindBaseILNS8_6detail11MessageTypeE6EEEEEEENS0_30MemoryResourceAllocationPolicyES6_NS3_19ProcessModifierImplINS2_21DefaultProxyFilterTagEEEE17GetCmifBaseObjectEv = __sdk_start + 0x00000000001c39cc;
_ZN2nn5audio6server38CommandProcessingTimeEstimatorVersion18EstimateERKNS0_21MixRampGroupedCommandE = __sdk_start + 0x0000000000212ae0;
_ZN2nn5audio3dsp7MailBox10InitializeEv = __sdk_start + 0x00000000002263a4;
nncodecLibopus_silk_process_gains_FIX = __sdk_start + 0x00000000002807c0;
_ZN2nn2oe14ExecuteProgramEiPKvm = __sdk_start + 0x0000000000399da0;
NvOsFgetc = __sdk_start + 0x00000000003e9dc0;
_ZN2nn6crypto6detail21OctetStringFromDigitsEPvmPKjm = __sdk_start + 0x0000000000007df0;
nndetailImagePng_png_handle_sCAL = __sdk_start + 0x0000000000062390;
_ZN2nn6socket8resolver10serializer13DNSSerializer18FromBufferInternalINS0_8AddrInfoEEElRT_PKhm = __sdk_start + 0x0000000000148e10;
_ZN2nn2fs26KeyValueRomStorageTemplateINS0_24HierarchicalRomFileTable11RomEntryKeyENS2_17DirectoryRomEntryELi768EE12FindInternalEPjS6_PNS5_14StorageElementERKS3_jPKvm = __sdk_start + 0x00000000000ed22c;
_ZN7android11IMemoryHeapC2Ev = __sdk_start + 0x0000000000163e2c;
interpolating6Ch32TapFilter = __sdk_start + 0x000000000020a6c0;
_ZN2nn6fontll18ScalableFontEngine24PickKerningFromGposTableEPNS0_15OtfKerningTableEPKvb = __sdk_start + 0x0000000000307690;
_ZNK2nn3mii21ParamCharInfoAccessor7GetEyeYEv = __sdk_start + 0x0000000000364604;
_ZN2nn4lmem19GetUnitHeapUnitSizeEPNS0_6detail8HeapHeadE = __sdk_start + 0x0000000000101730;
_ZN2nn9bluetooth3hal25AddBleScanFilterConditionERKNS1_18BleAdvertiseFilterE = __sdk_start + 0x000000000023c620;
_ZNKSt3__115__codecvt_utf16IDiLb1EE5do_inER11__mbstate_tPKcS5_RS5_PDiS7_RS7_ = __sdk_start + 0x0000000000541bd0;
_ZN2nn3mii6detail16Ver3StoreDataRaw11SetCopyableEi = __sdk_start + 0x000000000037269c;
_ZN2nn4lmem12SetFillValueENS0_8FillTypeEj = __sdk_start + 0x00000000001006b0;
nnmem_nlib_cond_wait_for = __sdk_start + 0x0000000000118a30;
_ZN2nn7account28NetworkServiceAccountManager46RequireReauthenticationOfNetworkServiceAccountEv = __sdk_start + 0x000000000019e668;
_ZN2nn5audio6server22PerformanceManagerImplINS1_33PerformanceManagerImplVersion1TagENS0_6common30PerformanceFrameHeaderVersion1ENS4_24PerformanceEntryVersion1ENS4_25PerformanceDetailVersion1ENS0_20PerformanceSysDetailEE12GetNextEntryEPNS1_25PerformanceEntryAddressesENS0_20PerformanceEntryTypeEj = __sdk_start + 0x0000000000218940;
_ZN2nn5codec10AacDecoder17DecodeInterleavedEPmPiPsmPKvm = __sdk_start + 0x00000000002eb538;
NvOsCancelFpsTarget = __sdk_start + 0x00000000003f2b00;
_ZN2nn3hid6system6detail34IsButtonConfigStorageEmbeddedEmptyEPbi = __sdk_start + 0x00000000004a6250;
_ZN2nn3web21ShowSystemDataPageArg21DocumentPathMaxLengthE = __sdk_start + 0x0000000000b5a460;
_ZNK7android10VectorImpl8itemSizeEv = __sdk_start + 0x00000000001977f8;
_ZN2nn8settings6system17GetPlatformRegionEv = __sdk_start + 0x00000000003af430;
_ZNSt3__112basic_stringIwNS_11char_traitsIwEENS_9allocatorIwEEE6__initEmw = __sdk_start + 0x00000000005027f0;
_ZN2nn5codec28GetOpusDecoderWorkBufferSizeEii = __sdk_start + 0x0000000000295e80;
_ZN2nn4nifm17NetworkConnectionD2Ev = __sdk_start + 0x000000000038ecec;
_ZN2nn3hid15KeyCodeComposer15EnqueueAltCodesEPKii = __sdk_start + 0x00000000004a40fc;
_ZNSt3__117__widen_from_utf8ILm32EED0Ev = __sdk_start + 0x00000000005426bc;
nncodecLibopus_opus_encode_float = __sdk_start + 0x00000000002883c0;
_ZTSN2nn2sf4cmif6client6detail9CmifProxyINS_4pctl6detail3ipc23IParentalControlServiceENS2_19CmifDomainProxyKindINS0_4hipc6client38Hipc2ClientSessionManagedProxyKindBaseINSB_18Hipc2ProxyKindBaseILNSA_6detail11MessageTypeE6EEEEEEENS0_30MemoryResourceAllocationPolicyENS3_19ProcessModifierImplINS2_21DefaultProxyFilterTagEEEvEE = __sdk_start + 0x0000000000b33478;
strndup = __sdk_start + 0x0000000000594c30;
_ZN2nn6crypto6detail11XtsModeImpl18ProcessPartialDataEPhPKhm = __sdk_start + 0x000000000000ce78;
_ZNK2nn4util7UriPart18CompareInsensitiveEPKcm = __sdk_start + 0x0000000000083120;
_ZN2nn5audio29SetLightLimiterProcessingModeEPNS0_16LightLimiterTypeENS1_14ProcessingModeE = __sdk_start + 0x00000000001d5df0;
_ZTIN2nn4npns11INpnsSystemE = __sdk_start + 0x0000000000d0fc90;
_ZN2nn3nsd6detail3ipc38SetChangeEnvironmentIdentifierDisabledEb = __sdk_start + 0x00000000003955c0;
_ZN2nn2sf4hipc6client24Hipc2ClientCoreProcessorILNS1_6detail11MessageTypeE6ENS0_4cmif6detail14CoreMethodInfoINSt3__15tupleIJNS7_18OutRawArgumentInfoILm1ELm1ELl0EEENS7_17InRawArgumentInfoILm8ELm8ELl0EEEEEELm8ELm1ELb0EEESF_E7ProcessEPNS2_26Hipc2ClientProxyBaseObjectENS6_6client24OutRawClientArgumentTypeILm1ELm1EEENSK_23InRawClientArgumentTypeILm8ELm8EvEEj = __sdk_start + 0x00000000003da32c;
_ZTINSt3__19money_putIcNS_19ostreambuf_iteratorIcNS_11char_traitsIcEEEEEE = __sdk_start + 0x0000000000d25008;
_ZN2nn5async6detail24FiberTaskCoordinatorBase23SuspendAndExecuteInlineEPNS0_10ExecutableERKNS0_17CancellationTokenE = __sdk_start + 0x0000000000089790;
_ZN2nn2os6detail13ThreadManager12ResumeThreadEPNS0_10ThreadTypeE = __sdk_start + 0x0000000000130dd4;
_ZNK2nn3err14SystemErrorArg15GetLanguageCodeEv = __sdk_start + 0x00000000002fd1c8;
_ZN2nn3hid6system27GetAvailableFirmwareVersionEPNS1_15FirmwareVersionENS1_11UniquePadIdE = __sdk_start + 0x00000000004a9ff0;
wcscoll_l = __sdk_start + 0x00000000005a37a0;
_ZN2nn6socket6detail7SendMsgEiPKNS0_6MsgHdrENS0_7MsgFlagE = __sdk_start + 0x000000000014d980;
get_some_back = __sdk_start + 0x00000000003410a0;
_ZN2nn5audio6server10MixContextC1Ev = __sdk_start + 0x000000000021b844;
silk_shell_code_table_offsets = __sdk_start + 0x0000000000afef73;
_ZN2nn2ec9AsyncData3GetEPmlPvm = __sdk_start + 0x00000000002ec1b8;
_ZN2nn2lm6detail20LogPacketTransmitterC1EPvmPFbPKhmEhhmbb = __sdk_start + 0x00000000003601fc;
_ZN2nn2sf13SharedPointerINS_7timesrv6detail7service12ISteadyClockEED2Ev = __sdk_start + 0x00000000003ccbe0;
NvDdkVicReadCrcResult = __sdk_start + 0x0000000000420990;
_ZNKSt3__111__libcpp_db22__less_than_comparableEPKvS2_ = __sdk_start + 0x0000000000509bb0;
_ZTVN10__cxxabiv117__array_type_infoE = __sdk_start + 0x0000000000d29628;
_ZTIN2nn2os6detail29MultiWaitHolderOfNativeHandleE = __sdk_start + 0x0000000000ceae18;
_ZN2nn2sf6detail38ObjectImplFactoryWithStatefulAllocatorINS0_4cmif6client6detail9CmifProxyINS_6aocsrv6detail20IAddOnContentManagerENS0_4hipc6client18Hipc2ProxyKindBaseILNSA_6detail11MessageTypeE6EEENS0_30MemoryResourceAllocationPolicyENS5_19ProcessModifierImplINS4_21DefaultProxyFilterTagEEEvEESG_E6Object7ReleaseEv = __sdk_start + 0x00000000001c6b34;
_ZN2nn2oe22PauseGamePlayRecordingEv = __sdk_start + 0x0000000000398ec0;
_ZN2nn2sf4cmif6client6detail13CmifProxyImplINS_4pctl6detail3ipc23IParentalControlServiceENS2_19CmifDomainProxyKindINS0_4hipc6client38Hipc2ClientSessionManagedProxyKindBaseINSB_18Hipc2ProxyKindBaseILNSA_6detail11MessageTypeE6EEEEEEENS0_30MemoryResourceAllocationPolicyES8_NS3_19ProcessModifierImplINS2_21DefaultProxyFilterTagEEEE44_nn_sf_sync_NotifyWrongPinCodeInputManyTimesEv = __sdk_start + 0x000000000039f6b4;
_ZTIN2nn5visrv2sf26IApplicationDisplayServiceE = __sdk_start + 0x0000000000d14dd8;
_ZN2nn2sf4cmif6client6detail13CmifProxyImplINS_3ngc1t6detail25IServiceWithManagementApiENS0_4hipc6client18Hipc2ProxyKindBaseILNS9_6detail11MessageTypeE6EEENS0_30MemoryResourceAllocationPolicyES8_NS3_19ProcessModifierImplINS2_21DefaultProxyFilterTagEEEE38_nn_sf_sync_ConfigureAutoUpdateSettingEv = __sdk_start + 0x00000000004de3d0;
_ZN2nn5audio3dsp14FlushDataCacheEPKvm = __sdk_start + 0x00000000002226b0;
_ZN2nn5audio3dsp12ApplyMixRampEPfPKfffi = __sdk_start + 0x000000000022fed0;
_ZN2nn3kpr6detail25IsKeyCodeMapModeSupportedERKNS1_17KeyCodeMapStorageENS0_14KeyCodeMapModeE = __sdk_start + 0x00000000004d9b40;
_ZN2nn3mii6detail17Ver3EyeColorTableE = __sdk_start + 0x0000000000b20f16;
_ZTSN2nn2sf4cmif6client6detail13CmifProxyImplINS_2am7service19IApplicationCreatorENS2_19CmifDomainProxyKindINS0_4hipc6client38Hipc2ClientSessionManagedProxyKindBaseINSA_18Hipc2ProxyKindBaseILNS9_6detail11MessageTypeE6EEEEEEENS0_30MemoryResourceAllocationPolicyES7_NS3_19ProcessModifierImplINS2_21DefaultProxyFilterTagEEEEE = __sdk_start + 0x0000000000ae3955;
_ZN2nn2sf4cmif6client6detail13CmifProxyImplINS_4npns9INpnsUserENS0_4hipc6client18Hipc2ProxyKindBaseILNS7_6detail11MessageTypeE6EEENS0_30MemoryResourceAllocationPolicyES6_NS3_19ProcessModifierImplINS2_21DefaultProxyFilterTagEEEE20_nn_sf_sync_ListenToENS_13ApplicationIdE = __sdk_start + 0x0000000000391d44;
_ZTIN2nn2sf6detail38ObjectImplFactoryWithStatefulAllocatorINS0_4cmif6client6detail9CmifProxyINS_7timesrv6detail7service16ITimeZoneServiceENS4_19CmifDomainProxyKindINS0_4hipc6client38Hipc2ClientSessionManagedProxyKindBaseINSD_18Hipc2ProxyKindBaseILNSC_6detail11MessageTypeE6EEEEEEENS0_30MemoryResourceAllocationPolicyENS5_19ProcessModifierImplINS4_21DefaultProxyFilterTagEEEvEESL_E6ObjectE = __sdk_start + 0x0000000000d14328;
nvgr_inc_write_count = __sdk_start + 0x0000000000422cf0;
nndetailImagePng_png_get_io_state = __sdk_start + 0x0000000000053e90;
_ZN2nn6crypto6detail10Sha256ImplD2Ev = __sdk_start + 0x000000000000fc0c;
_ZN2nn5audio20IsI3dl2ReverbEnabledEPKNS0_15I3dl2ReverbTypeE = __sdk_start + 0x00000000001d4360;
_ZN2nn2sf4hipc6client24Hipc2ClientCoreProcessorILNS1_6detail11MessageTypeE6ENS0_4cmif6detail14CoreMethodInfoINSt3__15tupleIJNS7_18BufferArgumentInfoILi0ELi21ELm48EEENSB_ILi1ELi25ELm129EEENS7_17InRawArgumentInfoILm4ELm4ELl0EEEEEELm4ELm0ELb0EEESG_E7ProcessEPNS2_26Hipc2ClientProxyBaseObjectENS6_6client24BufferClientArgumentTypeESM_NSL_23InRawClientArgumentTypeILm4ELm4EvEEj = __sdk_start + 0x00000000004ba04c;
_ZTSNSt3__117moneypunct_bynameIwLb1EEE = __sdk_start + 0x0000000000b794d9;
nndetailImagePng_png_get_x_offset_pixels = __sdk_start + 0x0000000000052eb0;
_ZN2nn2fs9IsUncPathEPKc = __sdk_start + 0x00000000000f3150;
_ZN2nn5codec13qmf_cldfb_320E = __sdk_start + 0x0000000000b0c3f8;
_ZN2nn2sf4cmif6client6detail13CmifProxyImplINS_4nifm6detail15IGeneralServiceENS2_19CmifDomainProxyKindINS0_4hipc6client38Hipc2ClientSessionManagedProxyKindBaseINSA_18Hipc2ProxyKindBaseILNS9_6detail11MessageTypeE6EEEEEEENS0_30MemoryResourceAllocationPolicyES7_NS3_19ProcessModifierImplINS2_21DefaultProxyFilterTagEEEE39_nn_sf_sync_SetBackgroundRequestEnabledEb = __sdk_start + 0x0000000000389268;
_ZN2nn8profiler23ClearEventInterceptExitENS_6ResultENS_3svc6HandleE = __sdk_start + 0x00000000003ab510;
__letf2 = __sdk_start + 0x000000000056f170;
__aarch64_ldclr8_acq = __sdk_start + 0x000000000057cfc0;
_ZN2nn12notification33WeeklyScheduleAlarmSettingBuilder10SetIsMutedEb = __sdk_start + 0x000000000038ef94;
_ZN2nn2sf4cmif6client6detail13CmifProxyImplINS_4npns9INpnsUserENS0_4hipc6client18Hipc2ProxyKindBaseILNS7_6detail11MessageTypeE6EEENS0_30MemoryResourceAllocationPolicyES6_NS3_19ProcessModifierImplINS2_21DefaultProxyFilterTagEEEE43_nn_sf_sync_GetStateChangeEventWithHandoverENS0_3OutINS0_12NativeHandleEvEE = __sdk_start + 0x0000000000391ebc;
_ZTSN2nn2sf6detail38ObjectImplFactoryWithStatefulAllocatorINS0_4cmif6client6detail9CmifProxyINS_8settings24ISettingsItemKeyIteratorENS0_4hipc6client18Hipc2ProxyKindBaseILNS9_6detail11MessageTypeE6EEENS0_30MemoryResourceAllocationPolicyENS5_19ProcessModifierImplINS4_21DefaultProxyFilterTagEEEvEESF_E6ObjectE = __sdk_start + 0x0000000000b35088;
_ZN2nn3ntc6detail4shim40EnsureNetworkClockAvailabilityClientImplC1ENS_2os14EventClearModeENS0_34EnsureNetworkClockAvailabilityModeE = __sdk_start + 0x00000000003d4fb8;
_ZNSt3__118shared_timed_mutexC2Ev = __sdk_start + 0x00000000004fe450;
_ZN2nn2fs3dbm29HierarchicalFileTableTemplateINS1_13DirectoryNameENS1_8FileNameENS1_6detail13DirectoryInfoENS5_8FileInfoEE15RenameDirectoryEPbS9_S9_PKcSB_ = __sdk_start + 0x00000000000ac328;
nnmem_nlib_yield = __sdk_start + 0x0000000000117bc0;
nncodecLibopus_quant_coarse_energy = __sdk_start + 0x0000000000263720;
_ZTSN2nn2sf6detail38ObjectImplFactoryWithStatefulAllocatorINS0_4cmif6client6detail9CmifProxyINS_5codec6detail27IHardwareOpusDecoderManagerENS4_19CmifDomainProxyKindINS0_4hipc6client38Hipc2ClientSessionManagedProxyKindBaseINSC_18Hipc2ProxyKindBaseILNSB_6detail11MessageTypeE6EEEEEEENS0_30MemoryResourceAllocationPolicyENS5_19ProcessModifierImplINS4_21DefaultProxyFilterTagEEEvEESK_E6ObjectE = __sdk_start + 0x0000000000b00d2f;
_ZN2nn8settings7factory25GetAnalogStickModuleTypeLEPh = __sdk_start + 0x00000000003acc60;
nndetailImagePng_png_read_chunk_header = __sdk_start + 0x000000000005f820;
_ZN2nn2fs3dbm30BufferedAllocationTableStorage14CacheLineCountE = __sdk_start + 0x0000000000ac5b64;
_ZN7android6ThreadD2Ev = __sdk_start + 0x0000000000194ed4;
_ZN2nn3grc19CheckMovieFileErrorEPNS0_10MovieLayerE = __sdk_start + 0x0000000000351da0;
_ZN2nn2sf4cmif6client6detail13CmifProxyImplINS_2am7service15IDebugFunctionsENS2_19CmifDomainProxyKindINS0_4hipc6client38Hipc2ClientSessionManagedProxyKindBaseINSA_18Hipc2ProxyKindBaseILNS9_6detail11MessageTypeE6EEEEEEENS0_30MemoryResourceAllocationPolicyES7_NS3_19ProcessModifierImplINS2_21DefaultProxyFilterTagEEEE35_nn_sf_sync_SetCpuBoostModeForDebugEi = __sdk_start + 0x00000000001ba5ac;
_ZN2nn5audio6common11SupportTags27BiquadFilterFloatProcessingE = __sdk_start + 0x0000000000d03840;
_ZNK2nn3mii13AppletManager11GetCharInfoEv = __sdk_start + 0x000000000037c8fc;
nvgr_set_video_metadata = __sdk_start + 0x0000000000422d80;
_ZN2nn3hid18SetNpadJoyHoldTypeENS0_15NpadJoyHoldTypeE = __sdk_start + 0x000000000049cf20;
_ZN2nn8irsensor22RunClusteringProcessorERKNS0_14IrCameraHandleERKNS0_25ClusteringProcessorConfigE = __sdk_start + 0x00000000004c2540;
_ZN2nn9hidconfig29DeleteButtonConfigStorageFullEi = __sdk_start + 0x00000000004aa530;
_ZN2nn2os30GetReadableHandleOfSystemEventEPKNS0_15SystemEventTypeE = __sdk_start + 0x000000000012bc70;
_ZN2nn5codec23slotBasedHybridAnalysisEPiS1_S1_S1_PNS0_6HYBRIDE = __sdk_start + 0x00000000002e2000;
_ZN2nn3err6detail14ContextApiImpl23UpdateResultWithContextINS0_7context16IWriterForSystemEEENS_6ResultERT_RNS1_35ContextWriterClientResourceAccessorENS0_17ContextDescriptorES6_ONS_4util8optionalINS1_10RawContextEEENSD_IS6_EE = __sdk_start + 0x0000000000301710;
_ZN2nn8settings6detail29CreateSettingsItemKeyIteratorEPNS0_5fwdbg23SettingsItemKeyIteratorEPKc = __sdk_start + 0x00000000003ac440;
_ZN2nn4time28AdjustableNetworkSystemClock14GetCurrentTimeEPNS0_9PosixTimeE = __sdk_start + 0x00000000003cc8d8;
_ZN2nn3mii6detail11CoreDataRaw13SetMouthColorEi = __sdk_start + 0x000000000036886c;
_ZN2nn5swkbd6detail18InlineKeyboardImpl22CalcUnsetCustomizeDic_ENS_6applet13StorageHandleEm = __sdk_start + 0x00000000003cbac4;
_ZNK7android7String811getPathLeafEv = __sdk_start + 0x00000000001949ec;
_ZN2nn9bluetooth3hal5debug16EnableAfhSettingEb = __sdk_start + 0x000000000023d930;
_ZN2nn3err30GetContextDescriptorFromResultENS_6ResultE = __sdk_start + 0x00000000002ffa30;
_ZN2nn2sf6detail38ObjectImplFactoryWithStatefulAllocatorINS0_4cmif6client6detail9CmifProxyINS_2lm10ILogGetterENS4_19CmifDomainProxyKindINS0_4hipc6client38Hipc2ClientSessionManagedProxyKindBaseINSB_18Hipc2ProxyKindBaseILNSA_6detail11MessageTypeE6EEEEEEENS0_30MemoryResourceAllocationPolicyENS5_19ProcessModifierImplINS4_21DefaultProxyFilterTagEEEvEESJ_E6Object12AddReferenceEv = __sdk_start + 0x0000000000361648;
_ZNSt3__114codecvt_bynameIwc11__mbstate_tED0Ev = __sdk_start + 0x0000000000531c74;
_ZN2nn2am35InvokeWithSelfLibraryCreatorEnabledEPFvvE = __sdk_start + 0x00000000001b3290;
_ZN2nn5audio6server16CommandGenerator33GenerateLightLimiterEffectCommandEiRNS1_14EffectInfoBaseEji = __sdk_start + 0x0000000000210260;
_ZNK2nn3err6detail23SerializedContextSeries7GetSizeEv = __sdk_start + 0x00000000002feb5c;
_ZTIN2nn2sf6detail38ObjectImplFactoryWithStatefulAllocatorINS0_4cmif6client6detail9CmifProxyINS_7timesrv6detail7service14IStaticServiceENS4_19CmifDomainProxyKindINS0_4hipc6client38Hipc2ClientSessionManagedProxyKindBaseINSD_18Hipc2ProxyKindBaseILNSC_6detail11MessageTypeE6EEEEEEENS0_30MemoryResourceAllocationPolicyENS5_19ProcessModifierImplINS4_21DefaultProxyFilterTagEEEvEESL_E6ObjectE = __sdk_start + 0x0000000000d13f58;
_ZN2nn3grc34FinalizeMovieAudioEncodeReadyEventEPNS_2os15SystemEventTypeEPNS0_10MovieLayerE = __sdk_start + 0x0000000000352040;
_ZN2nn2sf4cmif6client6detail13CmifProxyImplINS_2am7service19ILibraryAppletProxyENS2_19CmifDomainProxyKindINS0_4hipc6client38Hipc2ClientSessionManagedProxyKindBaseINSA_18Hipc2ProxyKindBaseILNS9_6detail11MessageTypeE6EEEEEEENS0_30MemoryResourceAllocationPolicyES7_NS3_19ProcessModifierImplINS2_21DefaultProxyFilterTagEEEE36_nn_sf_sync_GetAppletCommonFunctionsENS0_3OutINS0_13SharedPointerINS6_22IAppletCommonFunctionsEEEvEE = __sdk_start + 0x00000000001be9e4;
_ZN2nn5prepo30GetOverSaveFrequencyLimitEventEv = __sdk_start + 0x00000000003a7660;
_ZN2nn2sf4hipc6client24Hipc2ClientCoreProcessorILNS1_6detail11MessageTypeE6ENS0_4cmif6detail14CoreMethodInfoINSt3__15tupleIJNS7_18OutRawArgumentInfoILm32ELm8ELl0EEEEEELm0ELm32ELb0EEESD_E7ProcessEPNS2_26Hipc2ClientProxyBaseObjectENS6_6client24OutRawClientArgumentTypeILm32ELm8EEEj = __sdk_start + 0x00000000003bc68c;
_ZNK2nn2sf13SharedPointerINS_5visrv2sf21ISystemDisplayServiceEE19FunctionForBoolTypeEv = __sdk_start + 0x00000000003e1ae4;
_ZN2nn4util9UriParserC2Ev = __sdk_start + 0x0000000000081e70;
_ZN2nn5audio3dsp20DspExceptionNotifierC1Ev = __sdk_start + 0x00000000002315f0;
_ZN2nn3mii13AppletManagerD2Ev = __sdk_start + 0x000000000037c7b8;
_ZTIN2nn2sf4cmif6client6detail13CmifProxyImplINS_12notification6server27INotificationServicesCommonENS2_19CmifDomainProxyKindINS0_4hipc6client38Hipc2ClientSessionManagedProxyKindBaseINSA_18Hipc2ProxyKindBaseILNS9_6detail11MessageTypeE6EEEEEEENS0_30MemoryResourceAllocationPolicyENS6_35INotificationServicesForApplicationENS3_19ProcessModifierImplINS2_21DefaultProxyFilterTagEEEEE = __sdk_start + 0x0000000000d0f620;
_ZN2nn4olsc12AsyncRequestD2Ev = __sdk_start + 0x000000000039bd40;
_ZN2nn2sf4cmif6client6detail13CmifProxyImplINS_8settings21ISystemSettingsServerENS0_4hipc6client18Hipc2ProxyKindBaseILNS7_6detail11MessageTypeE6EEENS0_30MemoryResourceAllocationPolicyES6_NS3_19ProcessModifierImplINS2_21DefaultProxyFilterTagEEEE25_nn_sf_sync_GetColorSetIdENS0_3OutIivEE = __sdk_start + 0x00000000003bb4cc;
_ZNSt3__119__shared_weak_countD0Ev = __sdk_start + 0x00000000004f9f30;
_ZNK7android7BBinder22getInterfaceDescriptorEv = __sdk_start + 0x0000000000160e24;
_ZTIN2nn2sf6detail38ObjectImplFactoryWithStatefulAllocatorINS0_4cmif6client6detail9CmifProxyINS_2am7service21ILibraryAppletCreatorENS4_19CmifDomainProxyKindINS0_4hipc6client38Hipc2ClientSessionManagedProxyKindBaseINSC_18Hipc2ProxyKindBaseILNSB_6detail11MessageTypeE6EEEEEEENS0_30MemoryResourceAllocationPolicyENS5_19ProcessModifierImplINS4_21DefaultProxyFilterTagEEEvEESK_E6ObjectE = __sdk_start + 0x0000000000d005e8;
nncodecLibopus_silk_schur = __sdk_start + 0x0000000000281280;
_ZNK2nn3err6detail18ContextSeriesEntry13GetRawContextEv = __sdk_start + 0x00000000002fe3f8;
_ZN2nn5audio16AcquireVoiceSlotEPNS0_19AudioRendererConfigEPNS0_9VoiceTypeEiiNS0_12SampleFormatEiPKvmPKNS3_15BehaviorOptionsE = __sdk_start + 0x00000000001db040;
_ZN2nn3mii6detail16Ver3StoreDataRaw9UpdateCrcEv = __sdk_start + 0x000000000036f268;
_ZN2nn2sf6detail38ObjectImplFactoryWithStatefulAllocatorINS0_4cmif6client6detail9CmifProxyINS_7dp2hdmi6detail18IDp2hdmiControllerENS0_4hipc6client18Hipc2ProxyKindBaseILNSA_6detail11MessageTypeE6EEENS0_30MemoryResourceAllocationPolicyENS5_19ProcessModifierImplINS4_21DefaultProxyFilterTagEEEvEESG_E6Object7ReleaseEv = __sdk_start + 0x00000000003d9200;
_ZN2nn3web6detail14WebSessionImplC1Ev = __sdk_start + 0x00000000004e4bcc;
__aarch64_cas16_relax = __sdk_start + 0x000000000057c650;
nndetailImagePng_png_read_IDAT_data = __sdk_start + 0x0000000000064210;
_ZN2nn2sf4cmif6client6detail13CmifProxyImplINS_6aocsrv6detail20IAddOnContentManagerENS0_4hipc6client18Hipc2ProxyKindBaseILNS8_6detail11MessageTypeE6EEENS0_30MemoryResourceAllocationPolicyES7_NS3_19ProcessModifierImplINS2_21DefaultProxyFilterTagEEEE33_nn_sf_sync_SetupHostAddOnContentEm = __sdk_start + 0x00000000001c6e88;
_ZN2nn3mii6detail16Ver3StoreDataRaw12SetHairColorEi = __sdk_start + 0x00000000003738bc;
_ZN2nn5async6detail20ImmediateFutureStateIvE16DoGetByReferenceEv = __sdk_start + 0x000000000008b684;
_ZN2nn2os33DetachReadableHandleOfSystemEventEPNS0_15SystemEventTypeE = __sdk_start + 0x000000000012bb20;
_ZN2nn2sf4cmif6client6detail13CmifProxyImplINS_2am7service18ICommonStateGetterENS2_19CmifDomainProxyKindINS0_4hipc6client38Hipc2ClientSessionManagedProxyKindBaseINSA_18Hipc2ProxyKindBaseILNS9_6detail11MessageTypeE6EEEEEEENS0_30MemoryResourceAllocationPolicyES7_NS3_19ProcessModifierImplINS2_21DefaultProxyFilterTagEEEE33_nn_sf_sync_GetBuiltInDisplayTypeENS0_3OutIivEE = __sdk_start + 0x00000000001b6f50;
_ZN2nn2sf4cmif6client6detail13CmifProxyImplINS_7friends6detail3ipc14IFriendServiceENS2_19CmifDomainProxyKindINS0_4hipc6client38Hipc2ClientSessionManagedProxyKindBaseINSB_18Hipc2ProxyKindBaseILNSA_6detail11MessageTypeE6EEEEEEENS0_30MemoryResourceAllocationPolicyES8_NS3_19ProcessModifierImplINS2_21DefaultProxyFilterTagEEEE32_nn_sf_sync_GetSnsAccountLinkageENS0_3OutINS5_17SnsAccountLinkageEvEERKNS_7account3UidE = __sdk_start + 0x0000000000346fa8;
_ZN2nn5async6detail24FiberTaskCoordinatorBase13FinalizeFiberEv = __sdk_start + 0x00000000000895a0;
_ZTSN2nn5async6detail15FutureStateBaseE = __sdk_start + 0x0000000000ac526a;
_ZTIN2nn2am7service11IMovieMakerE = __sdk_start + 0x0000000000d01c80;
_ZN2nn2sf4cmif6client34CmifDomainProxyClientCoreProcessorINS0_4hipc6client38Hipc2ClientSessionManagedProxyKindBaseINS5_18Hipc2ProxyKindBaseILNS4_6detail11MessageTypeE6EEEEENS1_6detail14CoreMethodInfoINSt3__15tupleIJNSC_18OutRawArgumentInfoILm4ELm4ELl0EEENSC_21OutHandleArgumentInfoILi0ELi1EEENSC_18BufferArgumentInfoILi0ELi97ELm0EEENSC_17InRawArgumentInfoILm4ELm4ELl0EEEEEELm4ELm4ELb0EEESO_E7ProcessEPNS2_23CmifDomainClientMessageISB_E15ProxyBaseObjectENS2_24OutRawClientArgumentTypeILm4ELm4EEENS2_27OutHandleClientArgumentTypeENS2_24BufferClientArgumentTypeENS2_23InRawClientArgumentTypeILm4ELm4EvEEj = __sdk_start + 0x0000000000357dd8;
_ZN2nn8settings6detail31SetButtonConfigSettingsEmbeddedEPKNS0_6system20ButtonConfigSettingsEi = __sdk_start + 0x00000000003b2630;
_ZN2nn2sf4hipc6client24Hipc2ClientCoreProcessorILNS1_6detail11MessageTypeE6ENS0_4cmif6detail14CoreMethodInfoINSt3__15tupleIJNS7_18OutRawArgumentInfoILm16ELm8ELl0EEEEEELm0ELm16ELb0EEESD_E7ProcessEPNS2_26Hipc2ClientProxyBaseObjectENS6_6client24OutRawClientArgumentTypeILm16ELm8EEEj = __sdk_start + 0x00000000003bd9cc;
_ZNSt3__17promiseIvEC2Ev = __sdk_start + 0x00000000004f8fe0;
_ZNK2nn3mii21ParamCharInfoAccessor8GetMoleXEv = __sdk_start + 0x00000000003646dc;
_ZN2nn3web10WebSession6AppearEv = __sdk_start + 0x00000000004e4664;
_ZN2nn4util37GetLengthOfConvertedStringUtf8ToUtf32EPiPKci = __sdk_start + 0x0000000000086920;
_ZTINSt3__17codecvtIwc11__mbstate_tEE = __sdk_start + 0x0000000000d23958;
_ZN2nn3hid6detail20StopLrAssignmentModeEv = __sdk_start + 0x0000000000490650;
__gnu_f2h_ieee = __sdk_start + 0x0000000000576490;
nnmem_nlib_utf16_to_utf32char = __sdk_start + 0x0000000000108680;
_ZN2nn5codec25BindOpusEncoderCodingModeEPNS0_15OpusEncoderTypeENS0_14OpusCodingModeE = __sdk_start + 0x0000000000296620;
_ZN2nn2sf4cmif6client6detail13CmifProxyImplINS_8settings21ISystemSettingsServerENS0_4hipc6client18Hipc2ProxyKindBaseILNS7_6detail11MessageTypeE6EEENS0_30MemoryResourceAllocationPolicyES6_NS3_19ProcessModifierImplINS2_21DefaultProxyFilterTagEEEE47_nn_sf_sync_SetAutomaticApplicationDownloadFlagEb = __sdk_start + 0x00000000003bb510;
_ZNKSt3__15ctypeIcE8do_widenEc = __sdk_start + 0x000000000053d590;
__udivmodti4 = __sdk_start + 0x0000000000576a60;
_ZN2nn2os6detail30InterProcessEventImplByHorizon5CloseEj = __sdk_start + 0x0000000000137164;
_ZN2nn2sf4cmif6client6detail13CmifProxyImplINS_2am7service15ISelfControllerENS2_19CmifDomainProxyKindINS0_4hipc6client38Hipc2ClientSessionManagedProxyKindBaseINSA_18Hipc2ProxyKindBaseILNS9_6detail11MessageTypeE6EEEEEEENS0_30MemoryResourceAllocationPolicyES7_NS3_19ProcessModifierImplINS2_21DefaultProxyFilterTagEEEE55_nn_sf_sync_SetRequiresCaptureButtonShortPressedMessageEb = __sdk_start + 0x00000000001b7c84;
_ZN2nn5audio17polyphaseResampleEPvPKsPsj = __sdk_start + 0x00000000001dd520;
_ZN2nn5codec13SineWindow512E = __sdk_start + 0x0000000000b0ad60;
_ZN2nn5codec6detail22GetAudioSpecificConfigEPhmPjiiNS0_20Mpeg4AudioObjectTypeE = __sdk_start + 0x00000000002ead70;
_ZTIN2nn2sf4cmif6client6detail9CmifProxyINS_3err7context17IContextRegistrarENS2_19CmifDomainProxyKindINS0_4hipc6client38Hipc2ClientSessionManagedProxyKindBaseINSA_18Hipc2ProxyKindBaseILNS9_6detail11MessageTypeE6EEEEEEENS0_30MemoryResourceAllocationPolicyENS3_19ProcessModifierImplINS2_21DefaultProxyFilterTagEEEvEE = __sdk_start + 0x0000000000d09d90;
_ZNK2nn4util16BinaryFileHeader13IsEndianValidEv = __sdk_start + 0x000000000007cc5c;
_ZN2nn3jit20CreateJitEnvironmentEPNS0_9JitHandleERKNS0_27JitEnvironmentConfigurationERKNS0_13JitPluginInfoEPvm = __sdk_start + 0x000000000035ed20;
__cxa_vec_delete = __sdk_start + 0x0000000000566d50;
nnutilZlib_inflateGetDictionary = __sdk_start + 0x0000000000079060;
_ZN2nn2os18FinalizeTimerEventEPNS0_14TimerEventTypeE = __sdk_start + 0x000000000012b3b0;
_ZN2nn5audio16SetVoicePriorityEPNS0_9VoiceTypeEi = __sdk_start + 0x00000000001db270;
_ZN2nn9bluetooth3hal4user28LeClientRegisterNotificationEjRKNS1_6GattIdEbS5_ = __sdk_start + 0x000000000023deb0;
_ZTIN2nn2sf4cmif6client6detail9CmifProxyINS_3nim6detail24IShopServiceAccessServerENS0_4hipc6client18Hipc2ProxyKindBaseILNS8_6detail11MessageTypeE6EEENS0_30MemoryResourceAllocationPolicyENS3_19ProcessModifierImplINS2_21DefaultProxyFilterTagEEEvEE = __sdk_start + 0x0000000000d09620;
_ZN2nn4olsc13AsyncListData12GetDataCountEv = __sdk_start + 0x000000000039b650;
_ZN2nn5prepo6StructC2Ev = __sdk_start + 0x00000000003a8bf4;
_ZN2nn2sf4cmif6client6detail13CmifProxyImplINS_8settings24ISettingsItemKeyIteratorENS0_4hipc6client18Hipc2ProxyKindBaseILNS7_6detail11MessageTypeE6EEENS0_30MemoryResourceAllocationPolicyES6_NS3_19ProcessModifierImplINS2_21DefaultProxyFilterTagEEEE22_nn_sf_sync_GetKeySizeENS0_3OutImvEE = __sdk_start + 0x00000000003b62d0;
_ZN2nn3hid7utility32GetConsoleSixAxisSensorTypeValueERKNS0_26ConsoleSixAxisSensorHandleE = __sdk_start + 0x00000000004a4140;
_ZN2nn2sf4cmif6client6detail13CmifProxyImplINS_3hid16IHidSystemServerENS0_4hipc6client18Hipc2ProxyKindBaseILNS7_6detail11MessageTypeE6EEENS0_30MemoryResourceAllocationPolicyES6_NS3_19ProcessModifierImplINS2_21DefaultProxyFilterTagEEEE43_nn_sf_sync_AcquireCaptureButtonEventHandleENS0_3OutINS0_12NativeHandleEvEENS_6applet20AppletResourceUserIdE = __sdk_start + 0x00000000004b58fc;
_ZTIN2nn2os6detail23MultiWaitHolderOfThreadE = __sdk_start + 0x0000000000ceab80;
_ZN2nn6socket8resolver26GetResolverOptionKeyStringERKNS0_17ResolverOptionKeyE = __sdk_start + 0x000000000015ec30;
_ZN2nn2sf4hipc6client24Hipc2ClientCoreProcessorILNS1_6detail11MessageTypeE6ENS0_4cmif6detail14CoreMethodInfoINSt3__15tupleIJNS7_18OutRawArgumentInfoILm8ELm8ELl0EEENS7_17InRawArgumentInfoILm64ELm1ELl0EEEEEELm64ELm8ELb0EEESF_E7ProcessEPNS2_26Hipc2ClientProxyBaseObjectENS6_6client24OutRawClientArgumentTypeILm8ELm8EEENSK_23InRawClientArgumentTypeILm64ELm1EvEEj = __sdk_start + 0x00000000003db600;
_ZNSt3__113basic_ostreamIcNS_11char_traitsIcEEED0Ev = __sdk_start + 0x000000000050e128;
_ZN2nn2fs3dbm15AllocationTable6FormatENS0_10SubStorageEj = __sdk_start + 0x0000000000098cf4;
_ZN2nn8settings6system24SetBatteryPercentageFlagEb = __sdk_start + 0x00000000003afdf0;
NvOsHeapAllocatorPrintStatistics = __sdk_start + 0x00000000003eff30;
_ZN2nn5audio17SetVoicePlayStateEPNS0_9VoiceTypeENS1_9PlayStateE = __sdk_start + 0x00000000001db2c0;
_ZN2nn2ec24ShowShopSubscriptionListERKNS0_8CourseIdE = __sdk_start + 0x00000000002f3230;
_ZN2nn2sf4cmif6client34CmifDomainProxyClientCoreProcessorINS0_4hipc6client38Hipc2ClientSessionManagedProxyKindBaseINS5_18Hipc2ProxyKindBaseILNS4_6detail11MessageTypeE6EEEEENS1_6detail14CoreMethodInfoINSt3__15tupleIJNSC_17InRawArgumentInfoILm16ELm1ELl0EEEEEELm16ELm0ELb0EEESI_E7ProcessEPNS2_23CmifDomainClientMessageISB_E15ProxyBaseObjectENS2_23InRawClientArgumentTypeILm16ELm1EvEEj = __sdk_start + 0x00000000000cc294;
_ZN2nn3mem17StandardAllocatorC1EPvmb = __sdk_start + 0x0000000000126360;
_ZN2nn5audio17SetVoiceMixVolumeEPNS0_9VoiceTypeEPNS0_10SubMixTypeEfii = __sdk_start + 0x00000000001db4b0;
_ZN2nn6socket8resolver10serializer13DNSSerializer12InternalNtohERKj = __sdk_start + 0x000000000014b5d4;
_ZN2nn4bcat10InitializeEv = __sdk_start + 0x0000000000233560;
_ZN2nn5codec9FDKstrcpyEPcPKc = __sdk_start + 0x00000000002ea970;
_ZNK2nn5swkbd30InlineKeyboardForLibraryApplet21GetMiniaturizedHeightEv = __sdk_start + 0x00000000003cc8d0;
_ZTIN2nn2sf4cmif6client6detail13CmifProxyImplINS_3nim6detail33IShopServiceAccessSystemInterfaceENS0_4hipc6client18Hipc2ProxyKindBaseILNS8_6detail11MessageTypeE6EEENS0_30MemoryResourceAllocationPolicyES7_NS3_19ProcessModifierImplINS2_21DefaultProxyFilterTagEEEEE = __sdk_start + 0x0000000000d09920;
_ZN2nn3mii6detail11CoreDataRaw16SetMustacheScaleEi = __sdk_start + 0x0000000000368a60;
_ZN2nn4pctl20CancelNetworkRequestEv = __sdk_start + 0x000000000039ddc0;
_ZN2nn4time14GetDaysInMonthEii = __sdk_start + 0x00000000003cd4e0;
_ZN2nn3hid7utility31GetSixAxisSensorHandleTypeValueERKNS0_19SixAxisSensorHandleE = __sdk_start + 0x00000000004a41e0;
_ZN2nn8irsensor6detail15IrSensorSession18IsProcessorStoppedERKNS0_14IrCameraHandleE = __sdk_start + 0x00000000004c0ffc;
_ZN2nn6crypto6detail7AesImplILm16EED2Ev = __sdk_start + 0x000000000000dcd0;
_ZN2nn9bluetooth3hal14CircularBuffer5WriteEhPKvm = __sdk_start + 0x000000000023f430;
_ZN2nn2sf4cmif6client6detail13CmifProxyImplINS_4olsc3srv12IAsyncResultENS2_19CmifDomainProxyKindINS0_4hipc6client38Hipc2ClientSessionManagedProxyKindBaseINSA_18Hipc2ProxyKindBaseILNS9_6detail11MessageTypeE6EEEEEEENS0_25StatelessAllocationPolicyINS0_22ExpHeapStaticAllocatorILm2048ENS5_6detail12ObjectHolder24ObjectHolderAllocatorTagEEEEENS6_14IAsyncListDataENS3_19ProcessModifierImplINS2_21DefaultProxyFilterTagEEEE21_nn_sf_sync_GetResultEv = __sdk_start + 0x000000000039b2a8;
_ZNK7android5Fence16getFlattenedSizeEv = __sdk_start + 0x000000000018ce04;
_ZN2nn5audio6server7MixInfo6UpdateERNS0_6common10EdgeMatrixERKNS0_7MixInfoERKNS1_13EffectContextERKNS1_15SplitterContextERKNS1_12BehaviorInfoE = __sdk_start + 0x000000000021b540;
_ZN2nn2oe24GetLaunchRequiredVersionEPNS0_21LaunchRequiredVersionENS_13ApplicationIdE = __sdk_start + 0x0000000000399b60;
_ZN2nn2fs6detail34OutputAccessLogUnlessResultSuccessENS_6ResultENS_2os4TickES4_PKcPKvS6_z = __sdk_start + 0x00000000000e7f70;
_ZN2nn2lm22CreateLogServiceByHipcEv = __sdk_start + 0x00000000003619b0;
_ZThn32_N2nn2sf4cmif6client6detail13CmifProxyImplINS_4pctl6detail3ipc30IParentalControlServiceFactoryENS2_19CmifDomainProxyKindINS0_4hipc6client38Hipc2ClientSessionManagedProxyKindBaseINSB_18Hipc2ProxyKindBaseILNSA_6detail11MessageTypeE6EEEEEEENS0_30MemoryResourceAllocationPolicyES8_NS3_19ProcessModifierImplINS2_21DefaultProxyFilterTagEEEE17GetCmifBaseObjectEv = __sdk_start + 0x000000000039f1cc;
_ZN2nn3hid12GetNpadStateEPNS0_16NpadJoyLeftStateERKj = __sdk_start + 0x000000000049d1c0;
_ZNSt3__112strstreambufD1Ev = __sdk_start + 0x000000000054f1d4;
nnmem_nlib_rename = __sdk_start + 0x0000000000119810;
_ZTSN2nn4olsc3srv14IAsyncListDataE = __sdk_start + 0x0000000000b3279c;
NvRmGpuChannelKickoffPbWithAttr = __sdk_start + 0x0000000000437200;
_ZN2nn2la17PopFromOutChannelENS_6applet19LibraryAppletHandleEPvmPm = __sdk_start + 0x000000000035f300;
_ZNSt3__16__itoa8__u64toaEmPc = __sdk_start + 0x00000000004f64c0;
nnosJamMessageQueue = __sdk_start + 0x0000000000130220;
_ZN2nn7account34NetworkServiceAccountAdministrator44CreateProcedureToLinkNnidWithNintendoAccountEPNS0_6detail24SimpleOAuthProcedureBaseE = __sdk_start + 0x000000000019f024;
_ZN2nn3err6detail21ReadButtonMessageFileIDsEEvPT_mRKNS_8settings12LanguageCodeENS1_10ButtonKindE = __sdk_start + 0x00000000002fdb70;
_ZN2nn4pctl11PairingInfo14GetAccountInfoEPNS0_18PairingAccountInfoE = __sdk_start + 0x000000000039e198;
_ZNSt3__117moneypunct_bynameIwLb0EE4initEPKc = __sdk_start + 0x000000000054a794;
_ZN2nn6socket9InetNtohlEj = __sdk_start + 0x00000000001478f0;
_ZN7android10IInterfaceD0Ev = __sdk_start + 0x000000000016282c;
_ZN2nn2sf4cmif6client6detail13CmifProxyImplINS_2am7service7IWindowENS2_19CmifDomainProxyKindINS0_4hipc6client38Hipc2ClientSessionManagedProxyKindBaseINSA_18Hipc2ProxyKindBaseILNS9_6detail11MessageTypeE6EEEEEEENS0_30MemoryResourceAllocationPolicyES7_NS3_19ProcessModifierImplINS2_21DefaultProxyFilterTagEEEE12GetProxyInfoEv = __sdk_start + 0x00000000001b9628;
_ZN2nn2ec6detail18IsStringTerminatedEPKcm = __sdk_start + 0x00000000002fa9b0;
_ZN2nn2sf4cmif6client6detail13CmifProxyImplINS_3mii6detail21IImageDatabaseServiceENS0_4hipc6client18Hipc2ProxyKindBaseILNS8_6detail11MessageTypeE6EEENS0_30MemoryResourceAllocationPolicyES7_NS3_19ProcessModifierImplINS2_21DefaultProxyFilterTagEEEE20_nn_sf_sync_GetCountENS0_3OutIivEE = __sdk_start + 0x000000000037b87c;
_ZNSt3__112basic_stringIcNS_11char_traitsIcEENS_9allocatorIcEEE6appendERKS5_mm = __sdk_start + 0x00000000005007e4;
_ZN2nn5async15ExecutionResultC1ENS0_19ExecutionResultCodeEPNS0_13ResumeBlockerE = __sdk_start + 0x000000000008b354;
_ZN2nn6socket8resolver10serializer13DNSSerializer12InternalNtohERKt = __sdk_start + 0x000000000014b5dc;
_ZN2nn5audio6server38CommandProcessingTimeEstimatorVersion18EstimateERKNS0_14MixRampCommandE = __sdk_start + 0x0000000000212aa8;
nncodecLibopus_ec_enc_uint = __sdk_start + 0x0000000000260160;
nncodecLibopus_quant_energy_finalise = __sdk_start + 0x0000000000264190;
_ZN2nn2ec6detail34ShowShopApplicationInformationImplENS1_10LaunchModeENS0_5NsUidERKNS_7account3UidENS0_8SourceIdEPKc = __sdk_start + 0x00000000002f58a0;
_ZNK2nn3mii21ParamCharInfoAccessor13GetGlassColorEv = __sdk_start + 0x00000000003646b4;
_ZN2nn3hid6detail20SharedMemoryAccessorC2Ev = __sdk_start + 0x0000000000495464;
coshf = __sdk_start + 0x00000000005be0a0;
_ZN2nn2fs6detail14DeleteSaveDataEm = __sdk_start + 0x00000000000dbc70;
_ZN2nn2sf4hipc6client24Hipc2ClientCoreProcessorILNS1_6detail11MessageTypeE6ENS0_4cmif6detail14CoreMethodInfoINSt3__15tupleIJNS7_17InRawArgumentInfoILm1ELm1ELl0EEEEEELm1ELm0ELb0EEESD_E7ProcessEPNS2_26Hipc2ClientProxyBaseObjectENS6_6client23InRawClientArgumentTypeILm1ELm1EvEEj = __sdk_start + 0x00000000000ffdcc;
_ZN2nn2sf4cmif6server6detail34CmifProcessFunctionTableGetterImplINS0_4hipc6detail12IHipcManagerEE26Process_CloneCurrentObjectEPPNS1_13CmifOutHeaderEPS7_PNS2_17CmifServerMessageEONS0_6detail14PointerAndSizeE = __sdk_start + 0x00000000001439d4;
_ZTIN3nne4nlib11InputStreamE = __sdk_start + 0x0000000000cec270;
nncodecLibopus_silk_pitch_analysis_core = __sdk_start + 0x000000000027e4d0;
_ZN2nn7friends6FriendC1Ev = __sdk_start + 0x0000000000344720;
_ZN2nn2la21CommonArgumentsWriterD2Ev = __sdk_start + 0x000000000035fab8;
_ZTSNSt3__115numpunct_bynameIwEE = __sdk_start + 0x0000000000b78f2b;
_ZN2nn5codec16drmRead_CrcCheckEPNS0_10STRUCT_DRME = __sdk_start + 0x00000000002c2d40;
_ZN2nn6hidbus6detail28RegisterAppletResourceUserIdERKNS_6applet20AppletResourceUserIdENS2_8AppletIdE = __sdk_start + 0x00000000004bb850;
_ZN2nn8irsensor6detail15IrSensorSession18RunMomentProcessorERKNS0_14IrCameraHandleERKNS0_27PackedMomentProcessorConfigE = __sdk_start + 0x00000000004c10b8;
_ZTINSt3__114codecvt_bynameIDsc11__mbstate_tEE = __sdk_start + 0x0000000000d253c0;
ceil = __sdk_start + 0x00000000005bba40;
nnosFinalizeMultiWaitHolder = __sdk_start + 0x0000000000130310;
silk_stereo_pred_joint_iCDF = __sdk_start + 0x0000000000afea5a;
nncodecLibopus_silk_find_LPC_FIX = __sdk_start + 0x000000000027c1c0;
_ZN2nn2fs31SaveDataTransferManagerVersion220OpenSaveDataImporterEPNSt3__110unique_ptrINS0_25ISaveDataDivisionImporterENS2_14default_deleteIS4_EEEERKNS0_19InitialDataVersion2ERKNS_7account3UidENS0_15SaveDataSpaceIdEb = __sdk_start + 0x0000000000350b28;
_ZN2nn4pctl25TryBeginFreeCommunicationEb = __sdk_start + 0x000000000039bf50;
_ZN2nn3hid7utility32GetSixAxisSensorHandleNpadIdTypeERKNS0_19SixAxisSensorHandleE = __sdk_start + 0x00000000004a4210;
_ZN2nn2sf4hipc6client24Hipc2ClientCoreProcessorILNS1_6detail11MessageTypeE6ENS0_4cmif6detail14CoreMethodInfoINSt3__15tupleIJNS7_18OutRawArgumentInfoILm2ELm2ELl0EEENS7_17InRawArgumentInfoILm8ELm8ELl0EEEEEELm8ELm2ELb0EEESF_E7ProcessEPNS2_26Hipc2ClientProxyBaseObjectENS6_6client24OutRawClientArgumentTypeILm2ELm2EEENSK_23InRawClientArgumentTypeILm8ELm8EvEEj = __sdk_start + 0x00000000004b4434;
_ZTSSt19bad_optional_access = __sdk_start + 0x0000000000b5bae3;
_ZTSNSt3__118__time_get_storageIcEE = __sdk_start + 0x0000000000b79210;
__modti3 = __sdk_start + 0x0000000000574cb0;
_ZN2nn7friends6detail17ShimLibraryGlobalC2Ev = __sdk_start + 0x0000000000345c1c;
_ZN2nn2oe24GetExpectedVolumeBalanceEPfS1_ = __sdk_start + 0x0000000000397f20;
_ZTTNSt3__119basic_ostringstreamIcNS_11char_traitsIcEENS_9allocatorIcEEEE = __sdk_start + 0x0000000000d229d8;
nnmem_nlib_memchr_gt_simd = __sdk_start + 0x000000000011aa30;
_ZN2nn7account18GetProfileUserDataEPcmRKNS0_3UidE = __sdk_start + 0x0000000000199d80;
_ZN2nn2sf6detail39ObjectImplFactoryWithStatelessAllocatorINS0_4cmif6client6detail9CmifProxyINS_6hidbus13IHidbusServerENS0_4hipc6client18Hipc2ProxyKindBaseILNS9_6detail11MessageTypeE6EEENS0_25StatelessAllocationPolicyINS0_22ExpHeapStaticAllocatorILm16384ENS7_6server12HidbusServerEEEEENS5_19ProcessModifierImplINS4_21DefaultProxyFilterTagEEEvEESK_E6Object7ReleaseEv = __sdk_start + 0x00000000004bbf18;
_ZTSNSt3__114__num_get_baseE = __sdk_start + 0x0000000000b78fa2;
_ZN2nn3err6detail13ContextTraits11MakeContextINS0_19ShortMessageContextEEET_RKNS1_10RawContextE = __sdk_start + 0x0000000000300640;
_ZN2nn2lm6detail17ShimLibraryGlobalD2Ev = __sdk_start + 0x0000000000360f18;
nvgr_is_stereo = __sdk_start + 0x0000000000422ae0;
coshl = __sdk_start + 0x00000000005be150;
_ZN2nn2sf4cmif6client6detail13CmifProxyImplINS_2am7service21IApplicationFunctionsENS2_19CmifDomainProxyKindINS0_4hipc6client38Hipc2ClientSessionManagedProxyKindBaseINSA_18Hipc2ProxyKindBaseILNS9_6detail11MessageTypeE6EEEEEEENS0_30MemoryResourceAllocationPolicyES7_NS3_19ProcessModifierImplINS2_21DefaultProxyFilterTagEEEE48_nn_sf_sync_RequestFlushGamePlayingMovieForDebugEv = __sdk_start + 0x00000000001c1944;
_ZTIN2nn2sf4cmif6client6detail13CmifProxyImplINS_2am7service22ILibraryAppletAccessorENS2_19CmifDomainProxyKindINS0_4hipc6client38Hipc2ClientSessionManagedProxyKindBaseINSA_18Hipc2ProxyKindBaseILNS9_6detail11MessageTypeE6EEEEEEENS0_30MemoryResourceAllocationPolicyES7_NS3_19ProcessModifierImplINS2_21DefaultProxyFilterTagEEEEE = __sdk_start + 0x0000000000d00488;
_ZN2nn5audio18GetCompressorRatioEPKNS0_14CompressorTypeE = __sdk_start + 0x00000000001d2d20;
_ZN2nn5codec31GetRequiredMemRam_SbrDecChannelEv = __sdk_start + 0x00000000002e4630;
_ZNSt15underflow_errorD0Ev = __sdk_start + 0x0000000000567380;
_ZN2nn6socket8resolver23GetOperationStateStringERKNS1_14OperationStateE = __sdk_start + 0x000000000015ec00;
_ZN2nn2sf4cmif6client6detail13CmifProxyImplINS_2am7service15ISelfControllerENS2_19CmifDomainProxyKindINS0_4hipc6client38Hipc2ClientSessionManagedProxyKindBaseINSA_18Hipc2ProxyKindBaseILNS9_6detail11MessageTypeE6EEEEEEENS0_30MemoryResourceAllocationPolicyES7_NS3_19ProcessModifierImplINS2_21DefaultProxyFilterTagEEEE28_nn_sf_sync_ApproveToDisplayEv = __sdk_start + 0x00000000001b7d2c;
_ZN2nn4nifm7RequestC2ERKNS0_17RequestParametersE = __sdk_start + 0x000000000038ee28;
nvdcFreeEventFds = __sdk_start + 0x00000000003e57e0;
_ZN2nn3hid6detail14DisconnectNpadERKj = __sdk_start + 0x00000000004909f0;
_ZN2nn2sf4hipc6client24Hipc2ClientCoreProcessorILNS1_6detail11MessageTypeE6ENS0_4cmif6detail14CoreMethodInfoINSt3__15tupleIJNS7_18OutRawArgumentInfoILm4ELm4ELl0EEENSB_ILm4ELm4ELl4EEENS7_17InRawArgumentInfoILm4ELm4ELl0EEENSE_ILm4ELm4ELl4EEENS7_18BufferArgumentInfoILi0ELi33ELm0EEENSH_ILi1ELi33ELm0EEENSH_ILi2ELi33ELm0EEENSH_ILi3ELi33ELm0EEENSH_ILi4ELi34ELm0EEENSH_ILi5ELi34ELm0EEENSH_ILi6ELi34ELm0EEENSH_ILi7ELi34ELm0EEENSE_ILm4ELm4ELl8EEEEEELm12ELm8ELb0EEESR_E7ProcessEPNS2_26Hipc2ClientProxyBaseObjectENS6_6client24OutRawClientArgumentTypeILm4ELm4EEESY_NSW_23InRawClientArgumentTypeILm4ELm4EvEES10_NSW_24BufferClientArgumentTypeES11_S11_S11_S11_S11_S11_S11_S10_j = __sdk_start + 0x0000000000154bd4;
_ZN2nn2sf4cmif6client6detail13CmifProxyImplINS_5visrv2sf21ISystemDisplayServiceENS0_4hipc6client18Hipc2ProxyKindBaseILNS8_6detail11MessageTypeE6EEENS0_30MemoryResourceAllocationPolicyES7_NS3_19ProcessModifierImplINS2_21DefaultProxyFilterTagEEEE31_nn_sf_sync_SetDisplayUnderscanEml = __sdk_start + 0x00000000003d7df0;
_ZN2nn2sf4cmif6client6detail13CmifProxyImplINS_2am7service15IStorageChannelENS2_19CmifDomainProxyKindINS0_4hipc6client38Hipc2ClientSessionManagedProxyKindBaseINSA_18Hipc2ProxyKindBaseILNS9_6detail11MessageTypeE6EEEEEEENS0_30MemoryResourceAllocationPolicyES7_NS3_19ProcessModifierImplINS2_21DefaultProxyFilterTagEEEE12GetProxyInfoEv = __sdk_start + 0x00000000001b8798;
_ZN2nn2sf4cmif6client6detail13CmifProxyImplINS_2am7service21ILibraryAppletCreatorENS2_19CmifDomainProxyKindINS0_4hipc6client38Hipc2ClientSessionManagedProxyKindBaseINSA_18Hipc2ProxyKindBaseILNS9_6detail11MessageTypeE6EEEEEEENS0_30MemoryResourceAllocationPolicyES7_NS3_19ProcessModifierImplINS2_21DefaultProxyFilterTagEEEE39_nn_sf_sync_CreateTransferMemoryStorageENS0_3OutINS0_13SharedPointerINS6_8IStorageEEEvEEONS0_12NativeHandleElb = __sdk_start + 0x00000000001bc0dc;
_ZNK2nn3mii15PrivateDatabase12UpdateLatestEPNS0_9StoreDataEi = __sdk_start + 0x0000000000378960;
_ZNSt3__114codecvt_bynameIDiDu11__mbstate_tED0Ev = __sdk_start + 0x0000000000531d14;
rand_r = __sdk_start + 0x00000000005a58a0;
_ZNK2nn4util8BitArray4noneEv = __sdk_start + 0x000000000007d4f0;
_ZN2nn2fs31SaveDataTransferManagerVersion229OpenSaveDataImporterByContextEPNSt3__110unique_ptrINS0_25ISaveDataDivisionImporterENS2_14default_deleteIS4_EEEERKNS4_13ImportContextE = __sdk_start + 0x00000000000f7674;
_ZN2nn2sf4hipc6client24Hipc2ClientCoreProcessorILNS1_6detail11MessageTypeE6ENS0_4cmif6detail14CoreMethodInfoINSt3__15tupleIJNS7_17InRawArgumentInfoILm6ELm1ELl0EEENSB_ILm2ELm2ELl6EEENSB_ILm2ELm2ELl8EEEEEELm10ELm0ELb0EEESF_E7ProcessEPNS2_26Hipc2ClientProxyBaseObjectENS6_6client23InRawClientArgumentTypeILm6ELm1EvEENSL_ILm2ELm2EvEESN_j = __sdk_start + 0x000000000024299c;
nncodecLibopus_silk_k2a = __sdk_start + 0x000000000027d030;
_ZN2nn3hid19GetTouchScreenStateILm8EEEvPNS0_16TouchScreenStateIXT_EEE = __sdk_start + 0x000000000049e3f0;
_ZNSt3__114codecvt_bynameIDsDu11__mbstate_tED0Ev = __sdk_start + 0x0000000000531cec;
_ZN2nn2sf4cmif6client6detail13CmifProxyImplINS_3hid10IHidServerENS0_4hipc6client18Hipc2ProxyKindBaseILNS7_6detail11MessageTypeE6EEENS0_30MemoryResourceAllocationPolicyES6_NS3_19ProcessModifierImplINS2_21DefaultProxyFilterTagEEEE29_nn_sf_sync_StopSixAxisSensorENS_6applet20AppletResourceUserIdENS5_19SixAxisSensorHandleE = __sdk_start + 0x00000000004ae974;
_ZNK2nn3mii6detail11CoreDataRaw11GetEyeScaleEv = __sdk_start + 0x000000000036904c;
_ZN2nn2sf13SharedPointerINS_8irsensor21IIrSensorSystemServerEED2Ev = __sdk_start + 0x00000000004c4a14;
_ZN2nn7friends6detail16PresenceAccessor11VerifyValueEPKcm = __sdk_start + 0x00000000003420a8;
_ZTINSt3__114codecvt_bynameIDic11__mbstate_tEE = __sdk_start + 0x0000000000d25438;
_ZN2nn5audio18EffectInfoVersion1C1Ev = __sdk_start + 0x00000000001d6104;
_ZNK2nn3mii27CharInfoVisualParamAccessor18GetFacelineWrinkleEv = __sdk_start + 0x0000000000362598;
_ZN2nn3mii6detail16Ver3StoreDataRaw15SetEyebrowColorEi = __sdk_start + 0x00000000003741cc;
_ZN2nn4time6detail4util18ToPosixTimeFromUtcERKNS0_12CalendarTimeE = __sdk_start + 0x00000000003d4130;
_ZNKSt3__112bad_weak_ptr4whatEv = __sdk_start + 0x00000000004f9f1c;
_ZN2nn7nlibsdk4heap14TlsHeapCentral7IsCleanEv = __sdk_start + 0x0000000000124800;
_ZN2nn5audio6detail25FftInitializeInternalImplERNS1_13FftWorkBufferEj = __sdk_start + 0x00000000001e8bb0;
_ZN2nn7friends13GetFriendListEPiPNS_7account23NetworkServiceAccountIdEiiRKNS0_12FriendFilterE = __sdk_start + 0x0000000000342ce0;
_ZN2nn8profiler12svcIntercept6EnableEv = __sdk_start + 0x00000000003ab6b4;
_ZN2nn2sf4hipc6client34HipcSimpleClientSessionManagerBaseINS2_29DefaultSessionResourceManagerEE4Impl18InitializeByHandleINS_7timesrv6detail7service14IStaticServiceENS0_30MemoryResourceAllocationPolicyENS0_4cmif6client6detail19ProcessModifierImplINSE_21DefaultProxyFilterTagEEEEENS_6ResultEPNS0_13SharedPointerIT_EEPNT0_9AllocatorENS_3svc6HandleE = __sdk_start + 0x00000000003d157c;
_Z42nnaudiodetail_ne10_radix_butterfly_int32_cILi4ELb0ELb1ELb1EEvP20ne10_fft_cpx_int32_tPKS0_S3_iii = __sdk_start + 0x00000000001f3400;
_ZN2nn5codec5adpcm20GetAdpcmDataSizeImplEi = __sdk_start + 0x000000000024dff0;
_ZN2nn2ec28ShowShopConsumableItemDetailENS_13ApplicationIdERKNS0_12ConsumableIdENS0_5NsUidE = __sdk_start + 0x00000000002f38e0;
LFNT_map_char = __sdk_start + 0x00000000003171d0;
_ZN2nn4npns16CreateTokenAsyncEPNS0_23CreateTokenAsyncContextERKNS_7account3UidENS_13ApplicationIdE = __sdk_start + 0x0000000000390780;
_ZNK11PulseSignal8GetPulseERfPm = __sdk_start + 0x00000000004d7790;
nnsocketConnect = __sdk_start + 0x0000000000147db0;
_ZN2nn2sf4cmif6client6detail13CmifProxyImplINS_2am7service18IHomeMenuFunctionsENS2_19CmifDomainProxyKindINS0_4hipc6client38Hipc2ClientSessionManagedProxyKindBaseINSA_18Hipc2ProxyKindBaseILNS9_6detail11MessageTypeE6EEEEEEENS0_30MemoryResourceAllocationPolicyES7_NS3_19ProcessModifierImplINS2_21DefaultProxyFilterTagEEEE35_nn_sf_sync_GetWriterLockAccessorExENS0_3OutINS0_13SharedPointerINS6_13ILockAccessorEEEvEEi = __sdk_start + 0x00000000001bc6c4;
_ZN2nn2sf4cmif6client34CmifDomainProxyClientCoreProcessorINS0_4hipc6client38Hipc2ClientSessionManagedProxyKindBaseINS5_18Hipc2ProxyKindBaseILNS4_6detail11MessageTypeE6EEEEENS1_6detail14CoreMethodInfoINSt3__15tupleIJNSC_17InRawArgumentInfoILm8ELm4ELl0EEENSG_ILm4ELm4ELl8EEENSG_ILm4ELm4ELl12EEEEEELm16ELm0ELb0EEESK_E7ProcessEPNS2_23CmifDomainClientMessageISB_E15ProxyBaseObjectENS2_23InRawClientArgumentTypeILm8ELm4EvEENSR_ILm4ELm4EvEEST_j = __sdk_start + 0x0000000000380604;
nvdcutilDpElecTestSettings = __sdk_start + 0x00000000003e7e30;
_ZNSt3__114basic_iostreamIcNS_11char_traitsIcEEED1Ev = __sdk_start + 0x000000000050fe48;
_ZN2nn2sf4cmif6client6detail13CmifProxyImplINS_2am7service21IApplicationFunctionsENS2_19CmifDomainProxyKindINS0_4hipc6client38Hipc2ClientSessionManagedProxyKindBaseINSA_18Hipc2ProxyKindBaseILNS9_6detail11MessageTypeE6EEEEEEENS0_30MemoryResourceAllocationPolicyES7_NS3_19ProcessModifierImplINS2_21DefaultProxyFilterTagEEEE49_nn_sf_sync_EnableApplicationAllThreadDumpOnCrashEb = __sdk_start + 0x00000000001c1ad4;
_ZN2nn2sf4cmif6client6detail13CmifProxyImplINS_8settings21ISystemSettingsServerENS0_4hipc6client18Hipc2ProxyKindBaseILNS7_6detail11MessageTypeE6EEENS0_30MemoryResourceAllocationPolicyES6_NS3_19ProcessModifierImplINS2_21DefaultProxyFilterTagEEEE35_nn_sf_sync_GetExternalRtcResetFlagENS0_3OutIbvEE = __sdk_start + 0x00000000003bb940;
_ZN2nn2os6detail38ExamineWholeAddressSpaceHasNoAttributeEmm = __sdk_start + 0x0000000000135b40;
get_scale_inputs = __sdk_start + 0x000000000033d2c0;
_ZN2nn8settings6detail22SetMemoryUsageRateFlagEb = __sdk_start + 0x00000000003bf360;
_ZN2nn2sf6detail38ObjectImplFactoryWithStatefulAllocatorINS0_4cmif6client6detail9CmifProxyINS_7dp2hdmi6detail18IDp2hdmiControllerENS0_4hipc6client18Hipc2ProxyKindBaseILNSA_6detail11MessageTypeE6EEENS0_30MemoryResourceAllocationPolicyENS5_19ProcessModifierImplINS4_21DefaultProxyFilterTagEEEvEESG_E6Object12AddReferenceEv = __sdk_start + 0x00000000003d91f8;
nnmem_nlib_utf32ncpy_ = __sdk_start + 0x0000000000108540;
_ZN2nn2sf4cmif6server6detail34CmifProcessFunctionTableGetterImplINS0_4hipc6detail12IHipcManagerEE28Process_CloneCurrentObjectExEPPNS1_13CmifOutHeaderEPS7_PNS2_17CmifServerMessageEONS0_6detail14PointerAndSizeE = __sdk_start + 0x0000000000143b7c;
_ZN2nn5audio21GetCaptureSampleCountEPKNS0_11CaptureTypeE = __sdk_start + 0x00000000001d53a0;
_ZN2nn5audio19SetReverbParametersEPNS0_10ReverbTypeEPKNS0_18ReverbParameterSetE = __sdk_start + 0x00000000001d7230;
_ZN2nn2sf4hipc6client24Hipc2ClientCoreProcessorILNS1_6detail11MessageTypeE6ENS0_4cmif6detail14CoreMethodInfoINSt3__15tupleIJNS7_17InRawArgumentInfoILm8ELm8ELl8EEENSB_ILm8ELm8ELl16EEENSB_ILm4ELm4ELl0EEEEEELm24ELm0ELb1EEESF_E7ProcessEPNS2_26Hipc2ClientProxyBaseObjectENS6_6client23InRawClientArgumentTypeILm8ELm8EvEESM_NSL_ILm4ELm4EvEEj = __sdk_start + 0x00000000002f96f8;
_ZN2nn2sf6detail38ObjectImplFactoryWithStatefulAllocatorINS0_4cmif6client6detail9CmifProxyINS_4npns9INpnsUserENS0_4hipc6client18Hipc2ProxyKindBaseILNS9_6detail11MessageTypeE6EEENS0_30MemoryResourceAllocationPolicyENS5_19ProcessModifierImplINS4_21DefaultProxyFilterTagEEEvEESF_E6Object7ReleaseEv = __sdk_start + 0x0000000000391c80;
_ZN2nn3hid6system6detail22GetButtonConfigStorageEPNS_9hidconfig17ButtonConfigRightEPNS3_11StorageNameEi = __sdk_start + 0x00000000004a65e0;
_ZNK2nn5audio6server17AudioRenderSystem26GetDspProcessingTimeBudgetEv = __sdk_start + 0x000000000020c2ec;
_ZN2nn7friends17NotificationQueueD2Ev = __sdk_start + 0x0000000000344884;
_ZN22nerd_gillette_internal5otete11ImageCodec213DecodeInPlaceItEEbRKNS_15StaticImageViewIT_EERNS0_14InputBitStreamEf = __sdk_start + 0x00000000004ce2c8;
_ZNK2nn2fs3dbm8PathTool10PathParser15IsDirectoryPathEv = __sdk_start + 0x000000000009d500;
_ZN2nn2sf4cmif6client6detail13CmifProxyImplINS_2am7service22ICradleFirmwareUpdaterENS2_19CmifDomainProxyKindINS0_4hipc6client38Hipc2ClientSessionManagedProxyKindBaseINSA_18Hipc2ProxyKindBaseILNS9_6detail11MessageTypeE6EEEEEEENS0_30MemoryResourceAllocationPolicyES7_NS3_19ProcessModifierImplINS2_21DefaultProxyFilterTagEEEE33_nn_sf_sync_GetLastInternalResultEv = __sdk_start + 0x00000000001bcd88;
fix_fnt = __sdk_start + 0x000000000030c0a0;
_ZN2nn2os23GetCurrentProcessHandleEv = __sdk_start + 0x000000000012fca0;
nncodecLibopus_hysteresis_decision = __sdk_start + 0x000000000024e030;
_ZN2nn3mii6detail16Ver3StoreDataRaw11SetEyeScaleEi = __sdk_start + 0x0000000000373c5c;
_ZN2nn2sf4cmif6client6detail13CmifProxyImplINS_3mii6detail21IImageDatabaseServiceENS0_4hipc6client18Hipc2ProxyKindBaseILNS8_6detail11MessageTypeE6EEENS0_30MemoryResourceAllocationPolicyES7_NS3_19ProcessModifierImplINS2_21DefaultProxyFilterTagEEEE18_nn_sf_sync_ReloadEv = __sdk_start + 0x000000000037b870;
_ZN2nn3ngc15ProfanityFilterC2EPvmb = __sdk_start + 0x0000000000385bcc;
_ZN2nn5codec12KBDWindow960E = __sdk_start + 0x0000000000b0a400;
_ZNK2nn3mii6detail16Ver3StoreDataRaw15GetEyebrowColorEv = __sdk_start + 0x000000000036e58c;
_ZN2nn2sf4hipc6client24Hipc2ClientCoreProcessorILNS1_6detail11MessageTypeE6ENS0_4cmif6detail14CoreMethodInfoINSt3__15tupleIJNS7_18OutRawArgumentInfoILm8ELm8ELl0EEENS7_17InRawArgumentInfoILm4ELm4ELl0EEEEEELm4ELm8ELb0EEESF_E7ProcessEPNS2_26Hipc2ClientProxyBaseObjectENS6_6client24OutRawClientArgumentTypeILm8ELm8EEENSK_23InRawClientArgumentTypeILm4ELm4EvEEj = __sdk_start + 0x00000000003db90c;
_ZNSt3__15mutex4lockEv = __sdk_start + 0x00000000004fa1f0;
_ZN2nn2os6detail18DebugImplByHorizon15QueryMemoryInfoEPNS0_10MemoryInfoE = __sdk_start + 0x0000000000135a80;
_ZN2nn2sf4cmif6client6detail13CmifProxyImplINS_4pctl6detail3ipc23IParentalControlServiceENS2_19CmifDomainProxyKindINS0_4hipc6client38Hipc2ClientSessionManagedProxyKindBaseINSB_18Hipc2ProxyKindBaseILNSA_6detail11MessageTypeE6EEEEEEENS0_30MemoryResourceAllocationPolicyES8_NS3_19ProcessModifierImplINS2_21DefaultProxyFilterTagEEEE26_nn_sf_sync_SetSafetyLevelEi = __sdk_start + 0x000000000039f41c;
_ZN2nn2sf4hipc6client24Hipc2ClientCoreProcessorILNS1_6detail11MessageTypeE6ENS0_4cmif6detail14CoreMethodInfoINSt3__15tupleIJNS7_18BufferArgumentInfoILi0ELi22ELm584EEEEEELm0ELm0ELb0EEESD_E7ProcessEPNS2_26Hipc2ClientProxyBaseObjectENS6_6client24BufferClientArgumentTypeEj = __sdk_start + 0x00000000003b4c78;
_ZNSt3__16localeC1ERKS0_RKNS_12basic_stringIcNS_11char_traitsIcEENS_9allocatorIcEEEEi = __sdk_start + 0x000000000053b7c0;
_ZN2nn5audio20SetCompressorOutGainEPNS0_14CompressorTypeEf = __sdk_start + 0x00000000001d2f40;
_ZN2nn2sf4cmif6client6detail13CmifProxyImplINS_8settings28IFirmwareDebugSettingsServerENS0_4hipc6client18Hipc2ProxyKindBaseILNS7_6detail11MessageTypeE6EEENS0_30MemoryResourceAllocationPolicyES6_NS3_19ProcessModifierImplINS2_21DefaultProxyFilterTagEEEE32_nn_sf_sync_SetSettingsItemValueERKNS5_12SettingsNameERKNS5_15SettingsItemKeyERKNS0_8InBufferE = __sdk_start + 0x00000000003b599c;
_ZN2nn2sf13SharedPointerINS_3hid15IHidDebugServerEED2Ev = __sdk_start + 0x00000000004b2a9c;
_ZNSt3__112future_errorC1ENS_10error_codeE = __sdk_start + 0x00000000004f8850;
_ZTINSt3__120__codecvt_utf8_utf16IDsEE = __sdk_start + 0x0000000000d23eb8;
_ZN2nn4diag29InitializeAbortObserverHolderEPNS0_19AbortObserverHolderEPFvRKNS0_9AbortInfoEE = __sdk_start + 0x0000000000097060;
_ZNK2nn2os6detail37MultiWaitHolderOfMessageQueueNotEmpty10IsSignaledEv = __sdk_start + 0x0000000000131e90;
_ZN2nn2sf4hipc6server2v16detail29HipcAllInOneServerManagerBase20ProcessInvokeRequestEPNS_2os19MultiWaitHolderTypeE = __sdk_start + 0x0000000000140cfc;
_ZN2nn2sf4cmif6client6detail13CmifProxyImplINS_2am7service30IAllSystemAppletProxiesServiceENS2_19CmifDomainProxyKindINS0_4hipc6client38Hipc2ClientSessionManagedProxyKindBaseINSA_18Hipc2ProxyKindBaseILNS9_6detail11MessageTypeE6EEEEEEENS0_30MemoryResourceAllocationPolicyES7_NS3_19ProcessModifierImplINS2_21DefaultProxyFilterTagEEEE29_nn_sf_sync_GetDebugFunctionsENS0_3OutINS0_13SharedPointerINS6_15IDebugFunctionsEEEvEE = __sdk_start + 0x00000000001b5fc8;
_ZN2nn2fs6detail30FileSystemServiceObjectAdapter17DoDeleteDirectoryERKNS0_4PathE = __sdk_start + 0x00000000000cecf0;
_ZNK2nn9bluetooth18GattCharacteristic13GetPropertiesEv = __sdk_start + 0x0000000000246918;
_ZN2nn5codec20setLimiterSampleRateEPNS0_9TDLimiterEj = __sdk_start + 0x00000000002c6ae0;
_ZN2nn2sf4cmif6client6detail13CmifProxyImplINS_5prepo6detail3ipc13IPrepoServiceENS2_19CmifDomainProxyKindINS0_4hipc6client38Hipc2ClientSessionManagedProxyKindBaseINSB_18Hipc2ProxyKindBaseILNSA_6detail11MessageTypeE6EEEEEEENS0_30MemoryResourceAllocationPolicyES8_NS3_19ProcessModifierImplINS2_21DefaultProxyFilterTagEEEE30_nn_sf_sync_GetLastUploadErrorEv = __sdk_start + 0x00000000003aa178;
_ZN2nn2sf4cmif6client6detail13CmifProxyImplINS_2am7service17IWindowControllerENS2_19CmifDomainProxyKindINS0_4hipc6client38Hipc2ClientSessionManagedProxyKindBaseINSA_18Hipc2ProxyKindBaseILNS9_6detail11MessageTypeE6EEEEEEENS0_30MemoryResourceAllocationPolicyES7_NS3_19ProcessModifierImplINS2_21DefaultProxyFilterTagEEEE12GetProxyInfoEv = __sdk_start + 0x00000000001b9408;
_ZN2nn5audio6server11InfoUpdater17CheckConsumedSizeEv = __sdk_start + 0x0000000000217de4;
unload_cmap_cache = __sdk_start + 0x00000000003105c0;
_ZN2nn2sf4hipc6client34HipcSimpleClientSessionManagerBaseINS2_29DefaultSessionResourceManagerEE4Impl18InitializeByHandleINS_7friends6detail3ipc15IServiceCreatorENS0_30MemoryResourceAllocationPolicyENS0_4cmif6client6detail19ProcessModifierImplINSE_21DefaultProxyFilterTagEEEEENS_6ResultEPNS0_13SharedPointerIT_EEPNT0_9AllocatorENS_3svc6HandleE = __sdk_start + 0x00000000003467ac;
_ZNSt3__18ios_base9showpointE = __sdk_start + 0x0000000000b781d8;
_ZN2nn5async6detail31ScopedCancellationTokenRegisterD2Ev = __sdk_start + 0x000000000008a200;
_ZN2nn2sf4cmif6client34CmifDomainProxyClientCoreProcessorINS0_4hipc6client38Hipc2ClientSessionManagedProxyKindBaseINS5_18Hipc2ProxyKindBaseILNS4_6detail11MessageTypeE6EEEEENS1_6detail14CoreMethodInfoINSt3__15tupleIJNSC_18OutRawArgumentInfoILm16ELm2ELl0EEEEEELm0ELm16ELb0EEESI_E7ProcessEPNS2_23CmifDomainClientMessageISB_E15ProxyBaseObjectENS2_24OutRawClientArgumentTypeILm16ELm2EEEj = __sdk_start + 0x00000000000ca8f8;
_ZN2nn2am12g_InterfacesE = __sdk_start + 0x0000000000cfae38;
_ZTSN2nn2sf4cmif6client6detail13CmifProxyImplINS_2ec6detail10IAsyncDataENS0_4hipc6client18Hipc2ProxyKindBaseILNS8_6detail11MessageTypeE6EEENS0_30MemoryResourceAllocationPolicyES7_NS3_19ProcessModifierImplINS2_21DefaultProxyFilterTagEEEEE = __sdk_start + 0x0000000000ae9e3e;
_ZN2nn5audio6common11SupportTags25DelayChannelMappingChangeE = __sdk_start + 0x0000000000d037f8;
_ZNK2nn3mii6detail12StoreDataRaw12GetEyeRotateEv = __sdk_start + 0x000000000036c1e8;
_ZN2nn6socket8resolver10serializer19FreeHostentContentsERNS0_7HostEntE = __sdk_start + 0x0000000000149c50;
_ZTVN2nn2sf6detail38ObjectImplFactoryWithStatefulAllocatorINS0_4cmif6client6detail9CmifProxyINS_4bcat3ipc12IBcatServiceENS4_19CmifDomainProxyKindINS0_4hipc6client38Hipc2ClientSessionManagedProxyKindBaseINSC_18Hipc2ProxyKindBaseILNSB_6detail11MessageTypeE6EEEEEEENS0_30MemoryResourceAllocationPolicyENS5_19ProcessModifierImplINS4_21DefaultProxyFilterTagEEEvEESK_E6ObjectE = __sdk_start + 0x0000000000d05e48;
_ZN2nn5codec30FDK_sbrDecoder_sbr_randomPhaseE = __sdk_start + 0x0000000000b0db54;
_ZN2nn2sf4cmif6client6detail13CmifProxyImplINS_5prepo6detail3ipc13IPrepoServiceENS2_19CmifDomainProxyKindINS0_4hipc6client38Hipc2ClientSessionManagedProxyKindBaseINSB_18Hipc2ProxyKindBaseILNSA_6detail11MessageTypeE6EEEEEEENS0_30MemoryResourceAllocationPolicyES8_NS3_19ProcessModifierImplINS2_21DefaultProxyFilterTagEEEE22_nn_sf_sync_SaveReportERKNS0_7InArrayIcEERKNS0_8InBufferEm = __sdk_start + 0x00000000003a9f8c;
_ZNKSt3__115__codecvt_utf16IwLb1EE6do_outER11__mbstate_tPKwS5_RS5_PcS7_RS7_ = __sdk_start + 0x0000000000540ff0;
_ZN2nn6crypto6detail7AesImplILm32EED2Ev = __sdk_start + 0x000000000000e1f0;
_ZN2nn4lmem6detail10HasAddressEPNS1_8HeapHeadEPv = __sdk_start + 0x00000000001018f0;
_ZN2nn2sf4cmif6client6detail13CmifProxyImplINS_2am7service15ISelfControllerENS2_19CmifDomainProxyKindINS0_4hipc6client38Hipc2ClientSessionManagedProxyKindBaseINSA_18Hipc2ProxyKindBaseILNS9_6detail11MessageTypeE6EEEEEEENS0_30MemoryResourceAllocationPolicyES7_NS3_19ProcessModifierImplINS2_21DefaultProxyFilterTagEEEE40_nn_sf_sync_IsSystemBufferSharingEnabledEv = __sdk_start + 0x00000000001b7ccc;
nncodecLibopus_ec_dec_bit_logp = __sdk_start + 0x000000000025f620;
_ZN2nn2sf4cmif6client6detail13CmifProxyImplINS_3ssl2sf14ISslConnectionENS2_19CmifDomainProxyKindINS0_4hipc6client38Hipc2ClientSessionManagedProxyKindBaseINSA_18Hipc2ProxyKindBaseILNS9_6detail11MessageTypeE6EEEEEEENS0_24StatefulAllocationPolicyINS0_16ExpHeapAllocatorEEES7_NS3_19ProcessModifierImplINS2_21DefaultProxyFilterTagEEEE21_nn_sf_sync_GetOptionENS0_3OutIbvEENS6_10OptionTypeE = __sdk_start + 0x00000000003c5e8c;
nndetailImagePng_png_read_png = __sdk_start + 0x0000000000055610;
_ZN2nn5audio26SetPerformanceDetailTargetEPNS0_19AudioRendererConfigEPKNS0_10SubMixTypeE = __sdk_start + 0x00000000001d8df0;
_ZN2nn5audio6server9VoiceInfo26UpdateForCommandGenerationEPNS1_12VoiceContextE = __sdk_start + 0x000000000021f250;
_ZNKSt3__17num_getIwNS_19istreambuf_iteratorIwNS_11char_traitsIwEEEEE6do_getES4_S4_RNS_8ios_baseERjRb = __sdk_start + 0x000000000051d294;
_ZNK2nn2fs6detail22LruFileDataCacheSystem15GetCacheOfIndexEi = __sdk_start + 0x00000000000fb488;
_ZN7android18GraphicBufferAllocD1Ev = __sdk_start + 0x000000000017c76c;
_ZN2nn2sf4hipc6client24Hipc2ClientCoreProcessorILNS1_6detail11MessageTypeE6ENS0_4cmif6detail14CoreMethodInfoINSt3__15tupleIJNS7_17InRawArgumentInfoILm6ELm1ELl0EEEEEELm6ELm0ELb0EEESD_E7ProcessEPNS2_26Hipc2ClientProxyBaseObjectENS6_6client23InRawClientArgumentTypeILm6ELm1EvEEj = __sdk_start + 0x000000000024102c;
_ZN2nn2sf4hipc6client24Hipc2ClientCoreProcessorILNS1_6detail11MessageTypeE6ENS0_4cmif6detail14CoreMethodInfoINSt3__15tupleIJNS7_18OutRawArgumentInfoILm40ELm1ELl0EEEEEELm0ELm40ELb0EEESD_E7ProcessEPNS2_26Hipc2ClientProxyBaseObjectENS6_6client24OutRawClientArgumentTypeILm40ELm1EEEj = __sdk_start + 0x0000000000392b30;
_ZNKSt3__18time_getIcNS_19istreambuf_iteratorIcNS_11char_traitsIcEEEEE18__get_day_year_numERiRS4_S4_RjRKNS_5ctypeIcEE = __sdk_start + 0x0000000000527934;
_ZN2nn3grc3dev18OpenOffscreenLayerEPim = __sdk_start + 0x00000000003515a0;
_ZNKSt3__17num_getIwNS_19istreambuf_iteratorIwNS_11char_traitsIwEEEEE6do_getES4_S4_RNS_8ios_baseERjRd = __sdk_start + 0x000000000051fe54;
_ZTIN2nn2sf4cmif6client6detail13CmifProxyImplINS_2ec6detail10IAsyncDataENS0_4hipc6client18Hipc2ProxyKindBaseILNS8_6detail11MessageTypeE6EEENS0_30MemoryResourceAllocationPolicyES7_NS3_19ProcessModifierImplINS2_21DefaultProxyFilterTagEEEEE = __sdk_start + 0x0000000000d02ad8;
_ZNSt3__113random_deviceD2Ev = __sdk_start + 0x000000000050a24c;
_ZNKSt3__17num_getIwNS_19istreambuf_iteratorIwNS_11char_traitsIwEEEEE6do_getES4_S4_RNS_8ios_baseERjRe = __sdk_start + 0x0000000000520374;
_ZN7android7String8C1EPKDi = __sdk_start + 0x00000000001933ac;
_ZN2nn7account28NetworkServiceAccountManagerC2ERKNS0_3UidEPNS0_4baas24IManagerForSystemServiceE = __sdk_start + 0x000000000019de08;
_ZNKSt3__17num_getIwNS_19istreambuf_iteratorIwNS_11char_traitsIwEEEEE6do_getES4_S4_RNS_8ios_baseERjRf = __sdk_start + 0x000000000051f938;
nndetailImageJpeg_jpeg_aritab = __sdk_start + 0x0000000000aa94b0;
_ZN2nn4util17BinaryBlockHeader12SetBlockSizeEm = __sdk_start + 0x000000000007cf08;
_ZTCN7android23BnSurfaceComposerClientE0_NS_11BnInterfaceINS_22ISurfaceComposerClientEEE = __sdk_start + 0x0000000000cf6ec8;
_ZTSN2nn2ec21IPurchaseEventManagerE = __sdk_start + 0x0000000000ae98b9;
kill_fntset = __sdk_start + 0x0000000000340ea0;
_ZN2nn2sf6detail38ObjectImplFactoryWithStatefulAllocatorINS0_4cmif6client6detail9CmifProxyINS_7friends6detail3ipc14IFriendServiceENS4_19CmifDomainProxyKindINS0_4hipc6client38Hipc2ClientSessionManagedProxyKindBaseINSD_18Hipc2ProxyKindBaseILNSC_6detail11MessageTypeE6EEEEEEENS0_30MemoryResourceAllocationPolicyENS5_19ProcessModifierImplINS4_21DefaultProxyFilterTagEEEvEESL_E6Object12AddReferenceEv = __sdk_start + 0x0000000000346ba4;
_ZN2nn2sf4cmif6client34CmifDomainProxyClientCoreProcessorINS0_4hipc6client38Hipc2ClientSessionManagedProxyKindBaseINS5_18Hipc2ProxyKindBaseILNS4_6detail11MessageTypeE6EEEEENS1_6detail14CoreMethodInfoINSt3__15tupleIJNSC_18OutRawArgumentInfoILm4ELm4ELl0EEENSC_18BufferArgumentInfoILi0ELi9ELm0EEENSI_ILi1ELi6ELm0EEEEEELm0ELm4ELb0EEESL_E7ProcessEPNS2_23CmifDomainClientMessageISB_E15ProxyBaseObjectENS2_24OutRawClientArgumentTypeILm4ELm4EEENS2_24BufferClientArgumentTypeESU_j = __sdk_start + 0x000000000034b360;
_ZN2nn6hidbus6detail30UnregisterAppletResourceUserIdERKNS_6applet20AppletResourceUserIdE = __sdk_start + 0x00000000004bb8d0;
_ZTSN10__cxxabiv129__pointer_to_member_type_infoE = __sdk_start + 0x0000000000b7ac8e;
_ZN2nn2sf4cmif6client34CmifDomainProxyClientCoreProcessorINS0_4hipc6client38Hipc2ClientSessionManagedProxyKindBaseINS5_18Hipc2ProxyKindBaseILNS4_6detail11MessageTypeE6EEEEENS1_6detail14CoreMethodInfoINSt3__15tupleIJNSC_18OutRawArgumentInfoILm4ELm4ELl0EEENSC_21OutHandleArgumentInfoILi0ELi1EEENSC_18BufferArgumentInfoILi0ELi33ELm0EEENSC_17InRawArgumentInfoILm4ELm4ELl0EEEEEELm4ELm4ELb0EEESO_E7ProcessEPNS2_23CmifDomainClientMessageISB_E15ProxyBaseObjectENS2_24OutRawClientArgumentTypeILm4ELm4EEENS2_27OutHandleClientArgumentTypeENS2_24BufferClientArgumentTypeENS2_23InRawClientArgumentTypeILm4ELm4EvEEj = __sdk_start + 0x0000000000357438;
_ZN2nn5swkbd30InlineKeyboardForLibraryApplet10InitializeEPvmbi = __sdk_start + 0x00000000003cc818;
_ZN2nn5audio3dsp14ApplyDepopMix1EPiiii = __sdk_start + 0x0000000000224d10;
_ZN2nn8settings6detail27GetBluetoothDevicesSettingsEPiPNS0_6system24BluetoothDevicesSettingsEi = __sdk_start + 0x00000000003b1aa0;
_ZN2nn5image11ExifBuilderD1Ev = __sdk_start + 0x000000000004ae3c;
_ZN2nn2sf4cmif6client34CmifDomainProxyClientCoreProcessorINS0_4hipc6client38Hipc2ClientSessionManagedProxyKindBaseINS5_18Hipc2ProxyKindBaseILNS4_6detail11MessageTypeE6EEEEENS1_6detail14CoreMethodInfoINSt3__15tupleIJNSC_21OutObjectArgumentInfoILi0ELi0EEEEEELm0ELm0ELb0EEESI_E21ProcessWithOutObjectsEPNS2_23CmifDomainClientMessageISB_E15ProxyBaseObjectENS2_27OutObjectClientArgumentTypeEjPNS0_13SharedPointerINS0_14IServiceObjectEEE = __sdk_start + 0x00000000000bd56c;
_ZN2nn3nsd33IsForcedGlobalServerAccessEnabledEv = __sdk_start + 0x00000000003946f0;
_nnmusl_socket_TranslateFileDescriptorFromNnmuslToNative = __sdk_start + 0x0000000000090d60;
_ZN2nn6socket6detail7EventFdEmi = __sdk_start + 0x00000000001515a0;
_ZN2nn5swkbd6detail18InlineKeyboardImpl6AppearERKNS0_9AppearArgENS0_7TriggerE = __sdk_start + 0x00000000003cac40;
_ZThn8_NK2nn2fs4save18ExclusiveDirectory7GetModeEv = __sdk_start + 0x00000000000a9230;
_ZN2nn5codec8FDKfopenEPKcS2_ = __sdk_start + 0x00000000002eab50;
_ZN2nn4time26StandardNetworkSystemClock11from_time_tEl = __sdk_start + 0x00000000003cef08;
_ZN2nn3hid6detail22GetAppletFooterUiTypesEPNS0_6system18AppletFooterUiTypeERKj = __sdk_start + 0x0000000000494360;
_ZNKSt3__17num_getIwNS_19istreambuf_iteratorIwNS_11char_traitsIwEEEEE6do_getES4_S4_RNS_8ios_baseERjRl = __sdk_start + 0x000000000051da14;
_ZN2nn2fs14PathNormalizer9NormalizeEPcPmPKcmbbb = __sdk_start + 0x00000000000f1b50;
_ZN2nn4lmem6detail23CheckExpHeapMemoryBlockEPKvPNS1_8HeapHeadEj = __sdk_start + 0x0000000000102360;
nnmem_nlib_fd_truncate = __sdk_start + 0x00000000001195e0;
_ZN2nn5codec22FDKhybridAnalysisApplyEPNS0_18FDK_ANA_HYB_FILTEREPKiS4_PiS5_ = __sdk_start + 0x00000000002b2790;
_ZN2nn4nifm6detail13RequestClient11SetPriorityEh = __sdk_start + 0x0000000000387b00;
_ZNKSt3__17num_getIwNS_19istreambuf_iteratorIwNS_11char_traitsIwEEEEE6do_getES4_S4_RNS_8ios_baseERjRm = __sdk_start + 0x000000000051eed8;
_ZN2nn8fssystem6detail35IterateDirectoryRecursivelyInternalIZNS_2fs21WritableRomFileSystem17InitializeByRomFsEvEUlRKNS3_4PathERKNS3_14DirectoryEntryEE_ZNS4_17InitializeByRomFsEvEUlS7_E_ZNS4_17InitializeByRomFsEvEUlS7_SA_E0_EENS_6ResultEPNS3_3fsa11IFileSystemEPS5_PS8_T_T0_T1_ = __sdk_start + 0x00000000000b8e70;
_ZNK7android22ISurfaceComposerClient22getInterfaceDescriptorEv = __sdk_start + 0x00000000001834b4;
_ZN7android7String87formatVEPKcSt9__va_list = __sdk_start + 0x0000000000193618;
_ZZN2nn2sf40SimpleAllInOneHipcSubDomainClientManagerILm17EE27InitializeShimLibraryHolderINS_7account24IBaasAccessTokenAccessorENS0_4cmif6client6detail19ProcessModifierImplINS7_21DefaultProxyFilterTagEEEEENS_6ResultEPNS0_23ShimLibraryObjectHolderIT_EEPKcPNS_14MemoryResourceEENUlPNS0_13SharedPointerIS5_EEE_clESN_ = __sdk_start + 0x000000000019c384;
_ZTIN2nn2sf4cmif6client6detail13CmifProxyImplINS_8settings15ISettingsServerENS0_4hipc6client18Hipc2ProxyKindBaseILNS7_6detail11MessageTypeE6EEENS0_30MemoryResourceAllocationPolicyES6_NS3_19ProcessModifierImplINS2_21DefaultProxyFilterTagEEEEE = __sdk_start + 0x0000000000d12c28;
_ZN2nn2sf4cmif6client6detail13CmifProxyImplINS_7timesrv6detail7service14IStaticServiceENS2_19CmifDomainProxyKindINS0_4hipc6client38Hipc2ClientSessionManagedProxyKindBaseINSB_18Hipc2ProxyKindBaseILNSA_6detail11MessageTypeE6EEEEEEENS0_30MemoryResourceAllocationPolicyES8_NS3_19ProcessModifierImplINS2_21DefaultProxyFilterTagEEEE64_nn_sf_sync_SetStandardUserSystemClockAutomaticCorrectionEnabledEb = __sdk_start + 0x00000000003d1a94;
_ZN2nn5audio18GetDelayParametersEPKNS0_9DelayTypeE = __sdk_start + 0x00000000001d3d10;
_ZN2nn2vi6buffer12GetSlotIndexEPNS1_14BufferResourceEj = __sdk_start + 0x00000000003e2f40;
_ZTINSt3__115basic_streambufIcNS_11char_traitsIcEEEE = __sdk_start + 0x0000000000d225a8;
_ZN7android7String8C1EPKDs = __sdk_start + 0x0000000000193318;
_ZN2nn2sf4cmif6client6detail13CmifProxyImplINS_2am7service15IDebugFunctionsENS2_19CmifDomainProxyKindINS0_4hipc6client38Hipc2ClientSessionManagedProxyKindBaseINSA_18Hipc2ProxyKindBaseILNS9_6detail11MessageTypeE6EEEEEEENS0_30MemoryResourceAllocationPolicyES7_NS3_19ProcessModifierImplINS2_21DefaultProxyFilterTagEEEE17GetCmifBaseObjectEv = __sdk_start + 0x00000000001ba8d8;
_ZN2nn3hid6system6detail22StartUsbFirmwareUpdateEv = __sdk_start + 0x00000000004a5e90;
_ZTISt12bad_any_cast = __sdk_start + 0x0000000000d214b8;
_ZN2nn2fs14CloseDirectoryENS0_15DirectoryHandleE = __sdk_start + 0x00000000000a1f50;
_ZN2nn2fs11FileStorage5FlushEv = __sdk_start + 0x00000000000ee5a0;
_ZN2nn2sf4cmif6client6detail13CmifProxyImplINS_2am7service15IAppletAccessorENS2_19CmifDomainProxyKindINS0_4hipc6client38Hipc2ClientSessionManagedProxyKindBaseINSA_18Hipc2ProxyKindBaseILNS9_6detail11MessageTypeE6EEEEEEENS0_30MemoryResourceAllocationPolicyENS6_20IApplicationAccessorENS3_19ProcessModifierImplINS2_21DefaultProxyFilterTagEEEE38_nn_sf_sync_GetAppletStateChangedEventENS0_3OutINS0_12NativeHandleEvEE = __sdk_start + 0x00000000001bd258;
_ZTIN2nn5audio6detail8IAudioInE = __sdk_start + 0x0000000000d03d68;
NvMemoryProfilerEndFree = __sdk_start + 0x00000000003e8df0;
_ZN2nn2sf4cmif6client6detail13CmifProxyImplINS_8irsensor15IIrSensorServerENS0_4hipc6client18Hipc2ProxyKindBaseILNS7_6detail11MessageTypeE6EEENS0_25StatelessAllocationPolicyINS0_22ExpHeapStaticAllocatorILm16384ENS5_6detail14IrSensorServerEEEEES6_NS3_19ProcessModifierImplINS2_21DefaultProxyFilterTagEEEE33_nn_sf_sync_GetNpadIrCameraHandleENS0_3OutINS5_14IrCameraHandleEvEEj = __sdk_start + 0x00000000004c3b1c;
_ZN2nn9bluetooth3hal14CircularBuffer17DiscardOldPacketsEhi = __sdk_start + 0x000000000023faf0;
_ZN2nn2sf4cmif6client6detail13CmifProxyImplINS_7friends6detail3ipc14IFriendServiceENS2_19CmifDomainProxyKindINS0_4hipc6client38Hipc2ClientSessionManagedProxyKindBaseINSB_18Hipc2ProxyKindBaseILNSA_6detail11MessageTypeE6EEEEEEENS0_30MemoryResourceAllocationPolicyES8_NS3_19ProcessModifierImplINS2_21DefaultProxyFilterTagEEEE33_nn_sf_sync_GetFriendProfileImageENS0_3OutIivEERKNS_7account3UidENSQ_23NetworkServiceAccountIdERKNS0_9OutBufferE = __sdk_start + 0x0000000000346ce0;
_ZTIN2nn2sf4cmif6client6detail9CmifProxyINS_3ntc6detail7service38IEnsureNetworkClockAvailabilityServiceENS0_4hipc6client18Hipc2ProxyKindBaseILNS9_6detail11MessageTypeE6EEENS0_30MemoryResourceAllocationPolicyENS3_19ProcessModifierImplINS2_21DefaultProxyFilterTagEEEvEE = __sdk_start + 0x0000000000d14948;
NvRmChannelClose = __sdk_start + 0x0000000000403ca0;
_ZN2nn2fs13PathFormatter20ParseWindowsPathImplEPPKcPmPcmS3_b = __sdk_start + 0x00000000000f0bb0;
_ZN2nn5audio19SplitterInfoManager10InitializeEiiiPvmS2_m = __sdk_start + 0x00000000001d9f40;
_ZN2nn5audio6server38CommandProcessingTimeEstimatorVersion58EstimateERKNS0_10AuxCommandE = __sdk_start + 0x00000000002160ac;
_ZN2nn6fontll18ScalableFontEngine15CheckGlyphExistEj = __sdk_start + 0x0000000000309390;
_ZN2nn3mii13AppletManager30SetResultSuccessAppendMiiImageEi = __sdk_start + 0x000000000037c93c;
_ZN2nn2sf4cmif6client6detail13CmifProxyImplINS_3ssl2sf14ISslConnectionENS2_19CmifDomainProxyKindINS0_4hipc6client38Hipc2ClientSessionManagedProxyKindBaseINSA_18Hipc2ProxyKindBaseILNS9_6detail11MessageTypeE6EEEEEEENS0_24StatefulAllocationPolicyINS0_16ExpHeapAllocatorEEES7_NS3_19ProcessModifierImplINS2_21DefaultProxyFilterTagEEEE23_nn_sf_sync_SetHostNameERKNS0_8InBufferE = __sdk_start + 0x00000000003c5d30;
_ZN2nn3hid6system42CancelSixAxisSensorAccurateUserCalibrationERKNS1_25UniqueSixAxisSensorHandleE = __sdk_start + 0x00000000004abdb0;
_ZTIN2nn5image11ExifBuilderE = __sdk_start + 0x0000000000ce44d0;
_ZN2nn2fs6detail24IsEnabledHandleAccessLogEPKv = __sdk_start + 0x00000000000e80d0;
_ZTSN2nn7account4baas18IGuestLoginRequestE = __sdk_start + 0x0000000000ad7fbb;
_ZZN3nne9rapidjson13GenericReaderINS0_4UTF8IcEES3_N2nn4http4json23NoAllocatorForRapidJsonEE19ParseStringToStreamILj11ES3_S3_NS4_2ec4json29MemoryInputStreamForRapidJsonESC_EEvRT2_RT3_E6escape = __sdk_start + 0x0000000000b0f8fa;
_ZNKSt3__17num_getIwNS_19istreambuf_iteratorIwNS_11char_traitsIwEEEEE6do_getES4_S4_RNS_8ios_baseERjRt = __sdk_start + 0x000000000051e478;
nnutilZlib_crc32_combine64 = __sdk_start + 0x0000000000070b10;
_ZNK2nn4util9UriParser8GetPartsEv = __sdk_start + 0x00000000000829cc;
_ZN2nn2sf4cmif6client6detail13CmifProxyImplINS_2am7service18IDisplayControllerENS2_19CmifDomainProxyKindINS0_4hipc6client38Hipc2ClientSessionManagedProxyKindBaseINSA_18Hipc2ProxyKindBaseILNS9_6detail11MessageTypeE6EEEEEEENS0_30MemoryResourceAllocationPolicyES7_NS3_19ProcessModifierImplINS2_21DefaultProxyFilterTagEEEE17GetCmifBaseObjectEv = __sdk_start + 0x00000000001b9ba4;
_ZN2nn5audio6server16CommandGenerator20GenerateSinkCommandsEv = __sdk_start + 0x0000000000211560;
_ZN2nn5audio6server11EntryAspectD1Ev = __sdk_start + 0x000000000020e03c;
_ZN2nn5codec20CJointStereo_ApplyMSEPPNS0_22CAacDecoderChannelInfoEPKsPKhiii = __sdk_start + 0x00000000002afe60;
silk_uniform8_iCDF = __sdk_start + 0x0000000000afeab0;
_ZN2nn3mii6detail22RandomMiiHairTypeTableE = __sdk_start + 0x0000000000b22ad8;
NvRmGpuDeviceThermalAlertSetLimit = __sdk_start + 0x00000000004362c0;
nncryptoAes256CtrEncryptorBlockSize = __sdk_start + 0x0000000000aa5e28;
_ZN7android7RefBase12weakref_type7decWeakEPKv = __sdk_start + 0x00000000001917c0;
swap_hhea = __sdk_start + 0x000000000033fee0;
_ZN2nn2vi13ObjectManager13m_DisplayLockE = __sdk_start + 0x0000000000dcce80;
_ZN2nn3ldn6detail30CreateUserServiceCreatorByHipcEv = __sdk_start + 0x00000000004daf30;
_ZNKSt3__17num_getIwNS_19istreambuf_iteratorIwNS_11char_traitsIwEEEEE6do_getES4_S4_RNS_8ios_baseERjRx = __sdk_start + 0x000000000051df48;
_ZN2nn4diag6detail22InvokeSdkAbortObserverERKNS0_12SdkAbortInfoE = __sdk_start + 0x00000000000974e0;
_ZN2nn5codec17sbrDecoder_HeaderEPNS0_20SBR_DECODER_INSTANCEEPNS0_13FDK_BITSTREAMEiii17AUDIO_OBJECT_TYPE14MP4_ELEMENT_IDi = __sdk_start + 0x00000000002e7df0;
_ZNKSt3__17num_getIwNS_19istreambuf_iteratorIwNS_11char_traitsIwEEEEE6do_getES4_S4_RNS_8ios_baseERjRy = __sdk_start + 0x000000000051f408;
_ZNSt3__112strstreambuf9pbackfailEi = __sdk_start + 0x000000000054f478;
_ZTIN2nn2sf6detail38ObjectImplFactoryWithStatefulAllocatorINS0_4cmif6client6detail9CmifProxyINS_2am7service11IMovieMakerENS4_19CmifDomainProxyKindINS0_4hipc6client38Hipc2ClientSessionManagedProxyKindBaseINSC_18Hipc2ProxyKindBaseILNSB_6detail11MessageTypeE6EEEEEEENS0_30MemoryResourceAllocationPolicyENS5_19ProcessModifierImplINS4_21DefaultProxyFilterTagEEEvEESK_E6ObjectE = __sdk_start + 0x0000000000d01cf8;
_ZN2nn9bluetooth3hal25GetAudioControlInputStateEPNS0_6system23AudioControlButtonStateEi = __sdk_start + 0x000000000023b510;
FS_set_bold_pct = __sdk_start + 0x000000000030b4b0;
_ZN2nn3hid6detail15InitializeMouseEv = __sdk_start + 0x000000000048fac0;
__isprint_l = __sdk_start + 0x000000000059f490;
wcschr = __sdk_start + 0x00000000005af250;
_ZN2nn4util12CompressZlibEPmPvmPKvmS2_m = __sdk_start + 0x000000000007dbd0;
_ZN2nn5audio6server9DelayInfo6UpdateEPNS0_6common17BehaviorParameter9ErrorInfoEPKNS0_18EffectInfoVersion211InParameterERNS1_10PoolMapperE = __sdk_start + 0x0000000000219914;
_ZN2nn2sf4hipc6client24Hipc2ClientCoreProcessorILNS1_6detail11MessageTypeE6ENS0_4cmif6detail14CoreMethodInfoINSt3__15tupleIJNS7_18BufferArgumentInfoILi0ELi25ELm512EEEEEELm0ELm0ELb0EEESD_E7ProcessEPNS2_26Hipc2ClientProxyBaseObjectENS6_6client24BufferClientArgumentTypeEj = __sdk_start + 0x0000000000241e1c;
__term_heap = __sdk_start + 0x0000000000311180;
_ZN2nn2os14IsMemoryLockedEmm = __sdk_start + 0x00000000001320e0;
_ZTIN2nn2sf4cmif6client6detail13CmifProxyImplINS_2ec21IPurchaseEventManagerENS0_4hipc6client18Hipc2ProxyKindBaseILNS7_6detail11MessageTypeE6EEENS0_30MemoryResourceAllocationPolicyES6_NS3_19ProcessModifierImplINS2_21DefaultProxyFilterTagEEEEE = __sdk_start + 0x0000000000d028b0;
_ZN2nn5audio14SetDelayInGainEPNS0_9DelayTypeEf = __sdk_start + 0x00000000001d3b60;
nncodecLibopus_get_right_channel = __sdk_start + 0x000000000028e450;
_ZNK2nn3mii6detail12StoreDataRaw15GetEyebrowColorEv = __sdk_start + 0x000000000036c1f8;
_ZN2nn4nifm7RequestD2Ev = __sdk_start + 0x000000000038eea4;
_ZN2nn3kpr15KeyCodeComposer7SetModeENS0_19KeyCodeComposerModeE = __sdk_start + 0x00000000004d8d2c;
_ZN2nn6crypto6detail10Sha512ImplD2Ev = __sdk_start + 0x000000000000bc30;
_ZN2nn7friends12AsyncContext7HasDoneEPb = __sdk_start + 0x00000000003445fc;
_ZN2nn3mii6detail16Ver3StoreDataRaw11SetPadding2Ei = __sdk_start + 0x0000000000375ecc;
isxdigit = __sdk_start + 0x000000000059fd70;
_ZTSSt10bad_typeid = __sdk_start + 0x0000000000b7abd1;
_ZNK2nn3err19ApplicationErrorArg15GetLanguageCodeEv = __sdk_start + 0x00000000002fcaf8;
_ZN2nn3err6detail12UnitHeapBaseD1Ev = __sdk_start + 0x00000000002fe0f8;
_ZN2nn2sf4cmif6client6detail13CmifProxyImplINS_3mii6detail16IDatabaseServiceENS2_19CmifDomainProxyKindINS0_4hipc6client38Hipc2ClientSessionManagedProxyKindBaseINSA_18Hipc2ProxyKindBaseILNS9_6detail11MessageTypeE6EEEEEEENS0_30MemoryResourceAllocationPolicyES7_NS3_19ProcessModifierImplINS2_21DefaultProxyFilterTagEEEE25_nn_sf_sync_UpdateLatest1ENS0_3OutINS5_9StoreDataEvEERKSO_i = __sdk_start + 0x0000000000379f10;
_ZN2nn8settings6detail16GetPtmBatteryLotEPNS0_10BatteryLotE = __sdk_start + 0x00000000003b8920;
_ZN2nn2sf4hipc6client24Hipc2ClientCoreProcessorILNS1_6detail11MessageTypeE6ENS0_4cmif6detail14CoreMethodInfoINSt3__15tupleIJNS7_17InRawArgumentInfoILm8ELm8ELl8EEENSB_ILm4ELm4ELl0EEENSB_ILm32ELm8ELl16EEENS7_20InHandleArgumentInfoILi0ELi1EEENSB_ILm8ELm8ELl48EEEEEELm56ELm0ELb1EEESI_E7ProcessEPNS2_26Hipc2ClientProxyBaseObjectENS6_6client23InRawClientArgumentTypeILm8ELm8EvEENSO_ILm4ELm4EvEENSO_ILm32ELm8EvEENSN_26InHandleClientArgumentTypeESP_j = __sdk_start + 0x00000000004c45b4;
_ZNSt13exception_ptrC1ERKS_ = __sdk_start + 0x00000000004f845c;
_ZN2nn5album17ConvertAlbumEntry14ConvertToAlbumERKNS_6capsrv21ApplicationAlbumEntryE = __sdk_start + 0x00000000001aef5c;
_ZN2nn5audio7capture6detail32SystemAudioCaptureServerImplBase31ProcessVolumeCurveEditorServiceEv = __sdk_start + 0x00000000001e665c;
silk_nb_cbk_searchs_stage3 = __sdk_start + 0x0000000000afd7fa;
_ZN2nn8settings6detail19SetFieldTestingFlagEb = __sdk_start + 0x00000000003baaa0;
_ZN2nn3web16ShowSharePageArgC1ENS0_14ShareStartPageE = __sdk_start + 0x00000000004df3a0;
_ZN2nn2oe20NotifyRunningForTestEv = __sdk_start + 0x0000000000397480;
_ZN2nn5codec17pcmDmx_GetLibInfoEP8LIB_INFO = __sdk_start + 0x00000000002cdb30;
_ZN7android7String87toLowerEv = __sdk_start + 0x0000000000194420;
_ZN2nn5audio24GetLightLimiterInputGainEPKNS0_16LightLimiterTypeE = __sdk_start + 0x00000000001d5d20;
_ZN2nn5audio6common10NodeStates5Stack4pushEi = __sdk_start + 0x00000000001dc93c;
_ZN2nn2sf4cmif6client34CmifDomainProxyClientCoreProcessorINS0_4hipc6client38Hipc2ClientSessionManagedProxyKindBaseINS5_18Hipc2ProxyKindBaseILNS4_6detail11MessageTypeE6EEEEENS1_6detail14CoreMethodInfoINSt3__15tupleIJNSC_17InRawArgumentInfoILm8ELm4ELl0EEENSC_18BufferArgumentInfoILi0ELi5ELm0EEENSG_ILm4ELm4ELl8EEEEEELm12ELm0ELb0EEESL_E7ProcessEPNS2_23CmifDomainClientMessageISB_E15ProxyBaseObjectENS2_23InRawClientArgumentTypeILm8ELm4EvEENS2_24BufferClientArgumentTypeENSS_ILm4ELm4EvEEj = __sdk_start + 0x00000000003817cc;
_ZN2nn4pctl22GetSafetyLevelSettingsEPNS0_19RestrictionSettingsENS0_11SafetyLevelE = __sdk_start + 0x000000000039ca40;
_ZThn16_N2nn2sf4cmif6client6detail13CmifProxyImplIN3nns9hosbinder16IHOSBinderDriverENS0_4hipc6client18Hipc2ProxyKindBaseILNS8_6detail11MessageTypeE6EEENS0_30MemoryResourceAllocationPolicyES7_NS3_19ProcessModifierImplINS2_21DefaultProxyFilterTagEEEE17GetCmifBaseObjectEv = __sdk_start + 0x00000000003d7588;
__cxa_guard_abort = __sdk_start + 0x000000000056663c;
_ZN2nn14MemoryResourceD2Ev = __sdk_start + 0x000000000007c344;
_ZN2nn6applet21CreateTransferStorageEPNS0_13StorageHandleEPvm = __sdk_start + 0x00000000001cdee0;
_ZN2nn2sf4cmif6client6detail13CmifProxyImplINS_3hid10IHidServerENS0_4hipc6client18Hipc2ProxyKindBaseILNS7_6detail11MessageTypeE6EEENS0_30MemoryResourceAllocationPolicyES6_NS3_19ProcessModifierImplINS2_21DefaultProxyFilterTagEEEE36_nn_sf_sync_GetNpadCommunicationModeENS0_3OutIlvEE = __sdk_start + 0x00000000004af0e8;
_ZN2nn7account27ShowUserSelectorForLauncherEPNS0_3UidERKNS0_21UserSelectionSettingsERKNS_13ApplicationIdE = __sdk_start + 0x0000000000198020;
_ZN2nn5codec19aacDecoder_SetParamEPNS0_20AAC_DECODER_INSTANCEENS0_12AACDEC_PARAMEi = __sdk_start + 0x00000000002a5e20;
_ZNK2nn7friends14FriendPresence17GetLastUpdateTimeEv = __sdk_start + 0x0000000000344e90;
_ZN2nn2lm6detail24LogPacketTransmitterBase17PushDataChunkImplENS1_15LogDataChunkKeyEPKvmb = __sdk_start + 0x0000000000360500;
_ZN2nn2fs6detail26EventNotifierObjectAdapterC1EONS_2sf13SharedPointerINS_5fssrv2sf14IEventNotifierEEE = __sdk_start + 0x00000000000b987c;
_ZTSN2nn2sf6detail19InterfaceInfoBottomINS0_14IServiceObjectEE4_tABINS0_13InterfaceInfoINS_5audio6detail14IAudioRendererEE5_tO2NINS7_6server24AudioRendererManagerImpl17AudioRendererImplEE4typeES9_E4typeE = __sdk_start + 0x0000000000aefe6d;
nncodecLibopus_silk_shell_decoder = __sdk_start + 0x0000000000277db0;
_ZN2nn4util15FileInputStream5CloseEv = __sdk_start + 0x0000000000160c3c;
_ZN2nn2fs3dbm24FileSystemObjectTemplateINS1_13DirectoryNameENS1_8FileNameEE10DeleteFileEPKc = __sdk_start + 0x00000000000ab824;
_ZN2nn2sf4cmif6client6detail13CmifProxyImplINS_6hidbus13IHidbusServerENS0_4hipc6client18Hipc2ProxyKindBaseILNS7_6detail11MessageTypeE6EEENS0_25StatelessAllocationPolicyINS0_22ExpHeapStaticAllocatorILm16384ENS5_6server12HidbusServerEEEEES6_NS3_19ProcessModifierImplINS2_21DefaultProxyFilterTagEEEE17GetCmifBaseObjectEv = __sdk_start + 0x00000000004bc038;
_ZN2nn8irsensor48GetHandAnalysisSilhouetteStateWithFullFrameShapeEPNS0_45HandAnalysisSilhouetteStateWithFullFrameShapeEPiilRKNS0_14IrCameraHandleE = __sdk_start + 0x00000000004c2a40;
_ZNKSt3__112basic_stringIwNS_11char_traitsIwEENS_9allocatorIwEEE13find_first_ofEPKwmm = __sdk_start + 0x0000000000501e90;
_ZN2nn2fs13EraseGameCardENS0_12GameCardSizeEm = __sdk_start + 0x00000000000cffb0;
_ZN2nn2fs17RamDiskFileSystem12DoDeleteFileERKNS0_4PathE = __sdk_start + 0x00000000000d5c48;
_ZN2nn5album14g_LibraryStateE = __sdk_start + 0x0000000000d62b50;
_ZN2nn3mii6detail11CharInfoRaw13SetDefaultMiiEiNS0_8CreateIdENS0_13FavoriteColorENS0_8NicknameE = __sdk_start + 0x00000000003656c0;
_ZN2nn4time37GetStandardUserSystemClockInitialYearEv = __sdk_start + 0x00000000003cdde0;
_ZN2nn2vi23SetDisplayMagnificationEPNS0_7DisplayEiiii = __sdk_start + 0x00000000003dd490;
setlinebuf = __sdk_start + 0x00000000005aa350;
_ZNK2nn3mii8CreateId5IsNilEv = __sdk_start + 0x0000000000364784;
_ZN2nn8settings6detail42GetConsoleSixAxisSensorAngularVelocityBiasEPNS0_6system39ConsoleSixAxisSensorAngularVelocityBiasE = __sdk_start + 0x00000000003b9c20;
_ZTSN2nn7timesrv6detail7service14IStaticServiceE = __sdk_start + 0x0000000000b377dd;
_ZN2nn3hid13GetNpadStatesEPNS0_11NpadGcStateEiRKj = __sdk_start + 0x000000000049d3f0;
__exp_dd = __sdk_start + 0x00000000005b2690;
_ZNK7android6Region4dumpEPKcj = __sdk_start + 0x0000000000190920;
_ZN2nn2sf4cmif6client6detail13CmifProxyImplINS_2am7service18IAppletProxyCommonENS2_19CmifDomainProxyKindINS0_4hipc6client38Hipc2ClientSessionManagedProxyKindBaseINSA_18Hipc2ProxyKindBaseILNS9_6detail11MessageTypeE6EEEEEEENS0_30MemoryResourceAllocationPolicyENS6_19IOverlayAppletProxyENS3_19ProcessModifierImplINS2_21DefaultProxyFilterTagEEEE12GetProxyInfoEv = __sdk_start + 0x00000000001c0680;
_ZN2nn3hid6system6detail32EnableAssigningSingleOnSlSrPressEv = __sdk_start + 0x00000000004a7850;
_ZN2nn5image6detail8CheckSoiEPKhm = __sdk_start + 0x00000000000484d0;
_ZTIN2nn5audio6server14EffectInfoBaseE = __sdk_start + 0x0000000000d05778;
_ZTIN2nn3ldn6detail26ILocalCommunicationServiceE = __sdk_start + 0x0000000000d20760;
_ZNSt3__112strstreambuf6__initEPclS1_ = __sdk_start + 0x000000000054edf8;
nndetailImagePng_png_get_palette_max = __sdk_start + 0x0000000000053eb0;
_ZN2nn2sf4cmif6client6detail13CmifProxyImplINS_2am7service18IHomeMenuFunctionsENS2_19CmifDomainProxyKindINS0_4hipc6client38Hipc2ClientSessionManagedProxyKindBaseINSA_18Hipc2ProxyKindBaseILNS9_6detail11MessageTypeE6EEEEEEENS0_30MemoryResourceAllocationPolicyES7_NS3_19ProcessModifierImplINS2_21DefaultProxyFilterTagEEEE25_nn_sf_sync_LaunchDevMenuEv = __sdk_start + 0x00000000001bc7bc;
_ZTSN2nn5audio6server31ICommandProcessingTimeEstimatorE = __sdk_start + 0x0000000000af03d7;
FS_get_heap_used = __sdk_start + 0x0000000000310340;
_ZN2nn5audio6server12VoiceContextC1Ev = __sdk_start + 0x000000000021f488;
_ZTIN2nn2sf6detail38ObjectImplFactoryWithStatefulAllocatorINS0_4cmif6client6detail9CmifProxyINS_4bcat3ipc29IDeliveryCacheProgressServiceENS4_19CmifDomainProxyKindINS0_4hipc6client38Hipc2ClientSessionManagedProxyKindBaseINSC_18Hipc2ProxyKindBaseILNSB_6detail11MessageTypeE6EEEEEEENS0_30MemoryResourceAllocationPolicyENS5_19ProcessModifierImplINS4_21DefaultProxyFilterTagEEEvEESK_E6ObjectE = __sdk_start + 0x0000000000d060e0;
_ZN2nn2fs6detail15OutputAccessLogENS_6ResultENS0_11PriorityRawENS_2os4TickES5_PKcPKvS7_z = __sdk_start + 0x00000000000e7660;
_ZN2nn5audio28SetAuxI3dl2ReverbInputOutputEPNS0_18AuxI3dl2ReverbTypeEPKaS4_i = __sdk_start + 0x00000000001cf390;
_ZN2nn2ec27ShowShopSubscriptionDetailsERKNS0_8CourseIdENS0_5NsUidE = __sdk_start + 0x00000000002f3390;
_ZN2nn4nifm6detail13RequestClient31SetConnectionConfirmationOptionENS0_28ConnectionConfirmationOptionE = __sdk_start + 0x0000000000387b60;
_ZN2nn8settings6system46SetConsoleSixAxisSensorAngularVelocityTimeBiasERKNS1_43ConsoleSixAxisSensorAngularVelocityTimeBiasE = __sdk_start + 0x00000000003af9e0;
nnsslConnectionSetVerifyOption = __sdk_start + 0x00000000003c0770;
_ZN2nn9hidconfig15SetButtonConfigERKNS0_16ButtonConfigLeftERKNS_3hid6system11UniquePadIdE = __sdk_start + 0x00000000004aa810;
_ZTIN2nn2ro6detail12IRoInterfaceE = __sdk_start + 0x0000000000ceaf28;
_ZN2nn6socket8resolver11GetAddrInfoEPKcS3_PKNS0_8AddrInfoEPPS4_PKNS0_14ResolverOptionEm = __sdk_start + 0x000000000015bfa0;
_ZTSN2nn5audio6server22CircularBufferSinkInfoE = __sdk_start + 0x0000000000af15dd;
_ZN2nn5codec6FDKexpEd = __sdk_start + 0x00000000002eaab0;
freopen64 = __sdk_start + 0x000000000057f5f0;
nndetailImagePng_png_read_filter_row = __sdk_start + 0x0000000000064140;
_ZNK2nn3err18ErrorResultVariantcvNS0_9ErrorCodeEEv = __sdk_start + 0x00000000002fcb68;
_ZN2nn3nfp18SetApplicationAreaERKNS0_12DeviceHandleEPKvm = __sdk_start + 0x0000000000384d20;
_ZN2nn2sf4cmif6client34CmifDomainProxyClientCoreProcessorINS0_4hipc6client38Hipc2ClientSessionManagedProxyKindBaseINS5_18Hipc2ProxyKindBaseILNS4_6detail11MessageTypeE6EEEEENS1_6detail14CoreMethodInfoINSt3__15tupleIJNSC_17InRawArgumentInfoILm16ELm8ELl0EEENSG_ILm8ELm8ELl16EEENSC_18BufferArgumentInfoILi0ELi5ELm0EEEEEELm24ELm0ELb0EEESL_E7ProcessEPNS2_23CmifDomainClientMessageISB_E15ProxyBaseObjectENS2_23InRawClientArgumentTypeILm16ELm8EvEENSS_ILm8ELm8EvEENS2_24BufferClientArgumentTypeEj = __sdk_start + 0x00000000001a7454;
_ZN2nn9bluetooth3hal14CircularBuffer4ReadEv = __sdk_start + 0x000000000023f8a0;
_ZN2nn2la26LibraryAppletCreateHookArg10InitializeENS_6applet8AppletIdENS2_17LibraryAppletModeEb = __sdk_start + 0x000000000035f244;
_ZN2nn2vi16SetLayerPositionEPNS0_5LayerEff = __sdk_start + 0x00000000003e09f0;
NvRmChannelSetModuleBandwidth = __sdk_start + 0x00000000004051b0;
nndetailImagePng_png_write_bKGD = __sdk_start + 0x000000000006cd90;
_ZTIN2nn4util17IntrusiveListNodeE = __sdk_start + 0x0000000000ce4840;
_ZN7android22ISurfaceComposerClientD1Ev = __sdk_start + 0x000000000018366c;
_ZN2nn7account28NetworkServiceAccountManager20GetNintendoAccountIdEPNS0_17NintendoAccountIdE = __sdk_start + 0x000000000019df98;
_ZN2nn5audio6server16BiquadFilterInfo21InitializeResultStateEPNS0_17EffectResultStateE = __sdk_start + 0x000000000021a730;
_ZN2nn2sf4hipc6client24Hipc2ClientCoreProcessorILNS1_6detail11MessageTypeE6ENS0_4cmif6detail14CoreMethodInfoINSt3__15tupleIJNS7_18OutRawArgumentInfoILm32ELm8ELl0EEENS7_18BufferArgumentInfoILi1ELi69ELm0EEENS7_17InRawArgumentInfoILm64ELm4ELl0EEENSD_ILi0ELi21ELm136EEENSF_ILm8ELm8ELl72EEENSF_ILm4ELm4ELl64EEEEEELm80ELm32ELb0EEESK_E7ProcessEPNS2_26Hipc2ClientProxyBaseObjectENS6_6client24OutRawClientArgumentTypeILm32ELm8EEENSP_24BufferClientArgumentTypeENSP_23InRawClientArgumentTypeILm64ELm4EvEESS_NST_ILm8ELm8EvEENST_ILm4ELm4EvEEj = __sdk_start + 0x000000000024ada0;
_ZN2nn3hid13GetNpadStatesEPNS0_13NpadLarkStateEiRKj = __sdk_start + 0x000000000049d620;
_ZNK2nn3hid23VibrationNodeConnection13GetModulationEv = __sdk_start + 0x000000000049fc64;
_ZN2nn3hid6system30SetForceHandheldStyleVibrationEb = __sdk_start + 0x00000000004adf00;
_ZN2nn2sf4cmif6client6detail13CmifProxyImplINS_2am7service18ICommonStateGetterENS2_19CmifDomainProxyKindINS0_4hipc6client38Hipc2ClientSessionManagedProxyKindBaseINSA_18Hipc2ProxyKindBaseILNS9_6detail11MessageTypeE6EEEEEEENS0_30MemoryResourceAllocationPolicyES7_NS3_19ProcessModifierImplINS2_21DefaultProxyFilterTagEEEE35_nn_sf_sync_GetWriterLockAccessorExENS0_3OutINS0_13SharedPointerINS6_13ILockAccessorEEEvEEi = __sdk_start + 0x00000000001b6dc4;
_ZN2nn7friends6detail17ShimLibraryGlobal10InitializeEv = __sdk_start + 0x0000000000345c28;
_ZN2nn2sf4cmif6client34CmifDomainProxyClientCoreProcessorINS0_4hipc6client38Hipc2ClientSessionManagedProxyKindBaseINS5_18Hipc2ProxyKindBaseILNS4_6detail11MessageTypeE6EEEEENS1_6detail14CoreMethodInfoINSt3__15tupleIJNSC_17InRawArgumentInfoILm8ELm4ELl4EEENSG_ILm1ELm1ELl0EEEEEELm12ELm0ELb0EEESJ_E7ProcessEPNS2_23CmifDomainClientMessageISB_E15ProxyBaseObjectENS2_23InRawClientArgumentTypeILm8ELm4EvEENSQ_ILm1ELm1EvEEj = __sdk_start + 0x00000000003a0d7c;
_ZN2nn6crypto6detail10Sha256Impl21InitializeWithContextEPKNS0_13Sha256ContextE = __sdk_start + 0x0000000000010c2c;
_ZN7android12MemoryDealerC1EmPKcj = __sdk_start + 0x0000000000165fa0;
_ZN2nn2sf6detail38ObjectImplFactoryWithStatefulAllocatorINS0_4cmif6client6detail9CmifProxyINS_3nim6detail17IShopServiceAsyncENS0_4hipc6client18Hipc2ProxyKindBaseILNSA_6detail11MessageTypeE6EEENS0_30MemoryResourceAllocationPolicyENS5_19ProcessModifierImplINS4_21DefaultProxyFilterTagEEEvEESG_E6Object12AddReferenceEv = __sdk_start + 0x00000000002f8f8c;
_ZN2nn2sf4hipc6client24Hipc2ClientCoreProcessorILNS1_6detail11MessageTypeE6ENS0_4cmif6detail14CoreMethodInfoINSt3__15tupleIJNS7_18OutRawArgumentInfoILm4ELm4ELl0EEENSB_ILm4ELm4ELl4EEENS7_18BufferArgumentInfoILi0ELi33ELm0EEENSE_ILi1ELi34ELm0EEENS7_17InRawArgumentInfoILm4ELm4ELl0EEENSH_ILm4ELm4ELl4EEEEEELm8ELm8ELb0EEESK_E7ProcessEPNS2_26Hipc2ClientProxyBaseObjectENS6_6client24OutRawClientArgumentTypeILm4ELm4EEESR_NSP_24BufferClientArgumentTypeESS_NSP_23InRawClientArgumentTypeILm4ELm4EvEESU_j = __sdk_start + 0x0000000000153844;
_ZTIN2nn2sf4cmif6client6detail13CmifProxyImplINS_2am7service16IStorageAccessorENS2_19CmifDomainProxyKindINS0_4hipc6client38Hipc2ClientSessionManagedProxyKindBaseINSA_18Hipc2ProxyKindBaseILNS9_6detail11MessageTypeE6EEEEEEENS0_30MemoryResourceAllocationPolicyES7_NS3_19ProcessModifierImplINS2_21DefaultProxyFilterTagEEEEE = __sdk_start + 0x0000000000cff840;
nncodecLibopus_silk_encode_frame_FIX = __sdk_start + 0x000000000027b520;
_ZN2nn2sf4cmif6client6detail13CmifProxyImplINS_4olsc3srv12IAsyncResultENS2_19CmifDomainProxyKindINS0_4hipc6client38Hipc2ClientSessionManagedProxyKindBaseINSA_18Hipc2ProxyKindBaseILNS9_6detail11MessageTypeE6EEEEEEENS0_25StatelessAllocationPolicyINS0_22ExpHeapStaticAllocatorILm2048ENS5_6detail12ObjectHolder24ObjectHolderAllocatorTagEEEEES7_NS3_19ProcessModifierImplINS2_21DefaultProxyFilterTagEEEE23_nn_sf_sync_IsAvailableENS0_3OutIbvEE = __sdk_start + 0x000000000039ab68;
_ZTSN2nn2sf4cmif6client6detail9CmifProxyINS_8settings22IFactorySettingsServerENS0_4hipc6client18Hipc2ProxyKindBaseILNS7_6detail11MessageTypeE6EEENS0_30MemoryResourceAllocationPolicyENS3_19ProcessModifierImplINS2_21DefaultProxyFilterTagEEEvEE = __sdk_start + 0x0000000000b34aee;
_ZTINSt3__110__time_getE = __sdk_start + 0x0000000000d246f0;
_ZN2nn2fs26FileStorageBasedFileSystemC1Ev = __sdk_start + 0x00000000000ee758;
_ZN7android6Parcel17writeNativeHandleEPK13native_handle = __sdk_start + 0x00000000001698e0;
_ZN2nn6fontll18ScalableFontEngine11SetAutoHintEb = __sdk_start + 0x00000000003093b0;
_ZNSt3__115recursive_mutexD1Ev = __sdk_start + 0x00000000004fa2e8;
_ZN2nn5codec44FDK_sbrDecoder_sbr_limiterBandsPerOctaveDiv4E = __sdk_start + 0x0000000000b0db34;
_ZTIN2nn2sf4cmif6client6detail9CmifProxyINS_3ssl2sf11ISslContextENS2_19CmifDomainProxyKindINS0_4hipc6client38Hipc2ClientSessionManagedProxyKindBaseINSA_18Hipc2ProxyKindBaseILNS9_6detail11MessageTypeE6EEEEEEENS0_24StatefulAllocationPolicyINS0_16ExpHeapAllocatorEEENS3_19ProcessModifierImplINS2_21DefaultProxyFilterTagEEEvEE = __sdk_start + 0x0000000000d138c0;
_ZTIN2nn2sf6detail38ObjectImplFactoryWithStatefulAllocatorINS0_4cmif6client6detail9CmifProxyINS_3ssl2sf14ISslConnectionENS4_19CmifDomainProxyKindINS0_4hipc6client38Hipc2ClientSessionManagedProxyKindBaseINSC_18Hipc2ProxyKindBaseILNSB_6detail11MessageTypeE6EEEEEEENS0_24StatefulAllocationPolicyINS0_16ExpHeapAllocatorEEENS5_19ProcessModifierImplINS4_21DefaultProxyFilterTagEEEvEESM_E6ObjectE = __sdk_start + 0x0000000000d13af8;
_ZNKSt3__120__codecvt_utf8_utf16IDsE11do_encodingEv = __sdk_start + 0x00000000005424ec;
_ZTSNSt3__110__time_getE = __sdk_start + 0x0000000000b79230;
_ZN2nn4util9UriParser5ParseEPKcmNS1_6OptionE = __sdk_start + 0x0000000000081f00;
_ZN7android19GraphicBufferMapper10apiVersionEv = __sdk_start + 0x000000000018ee08;
nncodecLibopus_opus_multistream_decoder_destroy = __sdk_start + 0x000000000028f280;
_ZN2nn5codec10FDK_putBwdEPNS0_10FDK_BITBUFEjj = __sdk_start + 0x00000000002b07a0;
_ZN2nn4npns23CreateTokenAsyncContext8GetEventEv = __sdk_start + 0x00000000003905dc;
_ZN2nn4olsc25UploadSaveDataBackupAsyncERKNS_7account10UserHandleE = __sdk_start + 0x000000000039bca0;
_ZN2nn3ssl10Connection19SetServerCertBufferEPcj = __sdk_start + 0x00000000003c13a8;
_ZN2nn3hid6detail27BeginPermitVibrationSessionEv = __sdk_start + 0x000000000049b230;
_ZN2nn2sf4cmif6client6detail36GetClientProcessorImplWithObjectBaseINS0_4hipc6client18Hipc2ProxyKindBaseILNS5_6detail11MessageTypeE6EEENS3_19ProcessModifierImplINS2_21DefaultProxyFilterTagEEEE14ObjectAssignerINS0_30MemoryResourceAllocationPolicyENS_14MemoryResourceEE14AllocateObjectINS_6hidbus19IHidbusSystemServerEEEvi = __sdk_start + 0x00000000004b7764;
__aarch64_swp4_acq_rel = __sdk_start + 0x000000000057c960;
_ZN2nn2sf4cmif6client6detail13CmifProxyImplINS_4pctl6detail3ipc23IParentalControlServiceENS2_19CmifDomainProxyKindINS0_4hipc6client38Hipc2ClientSessionManagedProxyKindBaseINSB_18Hipc2ProxyKindBaseILNSA_6detail11MessageTypeE6EEEEEEENS0_30MemoryResourceAllocationPolicyES8_NS3_19ProcessModifierImplINS2_21DefaultProxyFilterTagEEEE33_nn_sf_sync_GetRestrictedFeaturesENS0_3OutIivEE = __sdk_start + 0x000000000039f398;
nvdcAllocLut = __sdk_start + 0x00000000003e6260;
_ZN2nn2sf4cmif6client6detail13CmifProxyImplINS_3hid15IHidDebugServerENS0_4hipc6client18Hipc2ProxyKindBaseILNS7_6detail11MessageTypeE6EEENS0_30MemoryResourceAllocationPolicyES6_NS3_19ProcessModifierImplINS2_21DefaultProxyFilterTagEEEE44_nn_sf_sync_SetUsbFirmwareForceUpdateEnabledEb = __sdk_start + 0x00000000004b2ed8;
_ZNK2nn3web6detail22ShowLobbyPageArgWriter15PushToInChannelENS_6applet19LibraryAppletHandleE = __sdk_start + 0x00000000004dd5f0;
_ZN2nn3nfp6client17GetDebugInterfaceEv = __sdk_start + 0x0000000000380080;
_ZN2nn6hidbus6detail14SendAndReceiveEPmPvmRKNS0_9BusHandleEPKvm = __sdk_start + 0x00000000004bab20;
_ZTVN7android14SurfaceControlE = __sdk_start + 0x0000000000cf7ce8;
_ZN2nn7account8NotifierC2EOS1_ = __sdk_start + 0x00000000001a0454;
_ZN2nn2sf4cmif6client6detail13CmifProxyImplINS_3hid10IHidServerENS0_4hipc6client18Hipc2ProxyKindBaseILNS7_6detail11MessageTypeE6EEENS0_30MemoryResourceAllocationPolicyES6_NS3_19ProcessModifierImplINS2_21DefaultProxyFilterTagEEEE39_nn_sf_sync_ResetGyroscopeZeroDriftModeENS_6applet20AppletResourceUserIdENS5_19SixAxisSensorHandleE = __sdk_start + 0x00000000004aea70;
_ZN2nn2sf4hipc6client24Hipc2ClientCoreProcessorILNS1_6detail11MessageTypeE6ENS0_4cmif6detail14CoreMethodInfoINSt3__15tupleIJNS7_18OutRawArgumentInfoILm8ELm8ELl0EEENS7_18BufferArgumentInfoILi0ELi10ELm0EEENS7_17InRawArgumentInfoILm8ELm8ELl0EEEEEELm8ELm8ELb0EEESH_E7ProcessEPNS2_26Hipc2ClientProxyBaseObjectENS6_6client24OutRawClientArgumentTypeILm8ELm8EEENSM_24BufferClientArgumentTypeENSM_23InRawClientArgumentTypeILm8ELm8EvEEj = __sdk_start + 0x00000000004b6c4c;
nnmem_nlib_compiler_version = __sdk_start + 0x0000000000103a30;
_ZN7android18BufferItemConsumer20setDefaultBufferSizeEjj = __sdk_start + 0x0000000000174040;
_ZN2nn2sf4cmif6client6detail13CmifProxyImplINS_8settings21ISystemSettingsServerENS0_4hipc6client18Hipc2ProxyKindBaseILNS7_6detail11MessageTypeE6EEENS0_30MemoryResourceAllocationPolicyES6_NS3_19ProcessModifierImplINS2_21DefaultProxyFilterTagEEEE39_nn_sf_sync_SetPtmCycleCountReliabilityEi = __sdk_start + 0x00000000003bbd2c;
__cxa_vec_ctor = __sdk_start + 0x0000000000566980;
_ZN2nn5image10PngDecoder6DecodeEPvmm = __sdk_start + 0x000000000006f8bc;
_ZN2nn5codec28GetOpusEncoderWorkBufferSizeEii = __sdk_start + 0x00000000002960b0;
_ZNK2nn3mii8CoreDataeqERKS1_ = __sdk_start + 0x0000000000364a54;
_ZN2nn5swkbd30InlineKeyboardForLibraryAppletC1Ev = __sdk_start + 0x00000000003cc774;
_ZN2nn3hid6system15GetButtonConfigEPNS1_20ButtonConfigEmbeddedE = __sdk_start + 0x00000000004a9f50;
_ZNSt3__18ios_base4leftE = __sdk_start + 0x0000000000b781c4;
_ZNK2nn2os6detail34MultiWaitHolderOfInterProcessEvent15GetNativeHandleEPj = __sdk_start + 0x0000000000131d6c;
_ZN2nn7account6detail18OAuthProcedureBase4SwapERS2_ = __sdk_start + 0x0000000000198b08;
nncodecLibopus_silk_biquad_alt_stride2_neon = __sdk_start + 0x0000000000292690;
_ZN2nn2la23CreateLibraryAppletEasyEPNS_6applet19LibraryAppletHandleENS1_8AppletIdENS1_17LibraryAppletModeEb = __sdk_start + 0x000000000035f3a0;
_ZNK2nn4time6detail20MonotonicSystemClock18GetCurrentTimespecEP8timespec = __sdk_start + 0x00000000003d0170;
_ZN4nerd16VibrationEncoder4InitEjffffj = __sdk_start + 0x00000000004a3488;
_ZN2nn3hid6system6detail28GetUniquePadBluetoothAddressEPNS_9bluetooth7AddressENS1_11UniquePadIdE = __sdk_start + 0x00000000004a8dc0;
_ZN2nn2sf4cmif6client34CmifDomainProxyClientCoreProcessorINS0_4hipc6client38Hipc2ClientSessionManagedProxyKindBaseINS5_18Hipc2ProxyKindBaseILNS4_6detail11MessageTypeE6EEEEENS1_6detail14CoreMethodInfoINSt3__15tupleIJNSC_17InRawArgumentInfoILm36ELm4ELl0EEEEEELm36ELm0ELb0EEESI_E7ProcessEPNS2_23CmifDomainClientMessageISB_E15ProxyBaseObjectENS2_23InRawClientArgumentTypeILm36ELm4EvEEj = __sdk_start + 0x0000000000389a7c;
_ZN2nn2sf6detail38ObjectImplFactoryWithStatefulAllocatorINS0_4cmif6client6detail9CmifProxyINS_2am7service18IHomeMenuFunctionsENS4_19CmifDomainProxyKindINS0_4hipc6client38Hipc2ClientSessionManagedProxyKindBaseINSC_18Hipc2ProxyKindBaseILNSB_6detail11MessageTypeE6EEEEEEENS0_30MemoryResourceAllocationPolicyENS5_19ProcessModifierImplINS4_21DefaultProxyFilterTagEEEvEESK_E6Object12AddReferenceEv = __sdk_start + 0x00000000001bc504;
nncodecLibopus_silk_init_encoder = __sdk_start + 0x0000000000275fa0;
_ZN2nn4npns9AttachJidEPKcS2_ = __sdk_start + 0x0000000000391140;
_ZN2nn2sf4cmif6client6detail13CmifProxyImplINS_3hid15IHidDebugServerENS0_4hipc6client18Hipc2ProxyKindBaseILNS7_6detail11MessageTypeE6EEENS0_30MemoryResourceAllocationPolicyES6_NS3_19ProcessModifierImplINS2_21DefaultProxyFilterTagEEEE37_nn_sf_sync_GetAnalogStickModuleParamENS0_3OutINS_8hidtypes22AnalogStickModuleParamEvEENS5_6system11UniquePadIdENSJ_21AnalogStickDeviceTypeE = __sdk_start + 0x00000000004b30ac;
nnmem_nlib_utf16nlen_generic = __sdk_start + 0x0000000000108280;
NvOsMkdir = __sdk_start + 0x00000000003e9f60;
_ZN2nn3hid6system19AbortFirmwareUpdateEv = __sdk_start + 0x00000000004a9fd0;
_ZN2nn6crypto16DecryptAes128CcmEPvmS1_mPKvmS3_mS3_mS3_mm = __sdk_start + 0x0000000000000630;
_ZNK2nn3mii6detail12StoreDataRaw14GetEyebrowTypeEv = __sdk_start + 0x000000000036c1f4;
_ZN2nn3hid6detail24NpadSharedMemoryAccessor6AttachEPNS0_6server18SharedMemoryFormatE = __sdk_start + 0x00000000004915e8;
_ZNSt3__118condition_variable4waitERNS_11unique_lockINS_5mutexEEE = __sdk_start + 0x00000000004f82b0;
nexttowardf = __sdk_start + 0x00000000005c1830;
_ZN2nn2os13ConvertToTickENS_8TimeSpanE = __sdk_start + 0x000000000012fc10;
_ZNK2nn3mii21ParamCharInfoAccessor13GetMouthScaleEv = __sdk_start + 0x000000000036466c;
_ZNSt13exception_ptrD2Ev = __sdk_start + 0x00000000004f8454;
_ZNKSt3__120__codecvt_utf8_utf16IDiE11do_encodingEv = __sdk_start + 0x000000000054260c;
_ZTSN2nn2sf4cmif6client6detail9CmifProxyINS_2am7service21ILibraryAppletCreatorENS2_19CmifDomainProxyKindINS0_4hipc6client38Hipc2ClientSessionManagedProxyKindBaseINSA_18Hipc2ProxyKindBaseILNS9_6detail11MessageTypeE6EEEEEEENS0_30MemoryResourceAllocationPolicyENS3_19ProcessModifierImplINS2_21DefaultProxyFilterTagEEEvEE = __sdk_start + 0x0000000000ae27af;
_ZN2nn2sf4hipc6client24Hipc2ClientCoreProcessorILNS1_6detail11MessageTypeE6ENS0_4cmif6detail14CoreMethodInfoINSt3__15tupleIJNS7_18OutRawArgumentInfoILm4ELm4ELl0EEENS7_17InRawArgumentInfoILm8ELm8ELl0EEEEEELm8ELm4ELb0EEESF_E7ProcessEPNS2_26Hipc2ClientProxyBaseObjectENS6_6client24OutRawClientArgumentTypeILm4ELm4EEENSK_23InRawClientArgumentTypeILm8ELm8EvEEj = __sdk_start + 0x00000000001e5768;
_ZTIN2nn2sf4cmif6client6detail13CmifProxyImplINS_2am7service22ICradleFirmwareUpdaterENS2_19CmifDomainProxyKindINS0_4hipc6client38Hipc2ClientSessionManagedProxyKindBaseINSA_18Hipc2ProxyKindBaseILNS9_6detail11MessageTypeE6EEEEEEENS0_30MemoryResourceAllocationPolicyES7_NS3_19ProcessModifierImplINS2_21DefaultProxyFilterTagEEEEE = __sdk_start + 0x0000000000d00998;
_ZN2nn2ec19ShopServiceAccessor13AsyncResponseD2Ev = __sdk_start + 0x00000000002f45f0;
_ZN2nn3hid13GetNpadStatesEPNS0_16NpadFullKeyStateEiRKj = __sdk_start + 0x000000000049c9b0;
_ZThn16_N2nn2sf4cmif6client6detail13CmifProxyImplINS_3hid16IHidSystemServerENS0_4hipc6client18Hipc2ProxyKindBaseILNS7_6detail11MessageTypeE6EEENS0_30MemoryResourceAllocationPolicyES6_NS3_19ProcessModifierImplINS2_21DefaultProxyFilterTagEEEE17GetCmifBaseObjectEv = __sdk_start + 0x00000000004b651c;
_ZN2nn6crypto6detail11GcmModeImplINS0_12AesEncryptorILm32EEEE6GetMacEPvm = __sdk_start + 0x0000000000003bb0;
_ZTSN2nn2sf4cmif6server23CmifServerDomainManagerE = __sdk_start + 0x0000000000ad04f8;
_ZN2nn2sf6detail38ObjectImplFactoryWithStatefulAllocatorINS0_4cmif6client6detail9CmifProxyINS_2am7service15IDebugFunctionsENS4_19CmifDomainProxyKindINS0_4hipc6client38Hipc2ClientSessionManagedProxyKindBaseINSC_18Hipc2ProxyKindBaseILNSB_6detail11MessageTypeE6EEEEEEENS0_30MemoryResourceAllocationPolicyENS5_19ProcessModifierImplINS4_21DefaultProxyFilterTagEEEvEESK_E6Object12AddReferenceEv = __sdk_start + 0x00000000001ba4a4;
_ZTIN2nn2sf4cmif6client6detail13CmifProxyImplINS_7timesrv6detail7service14IStaticServiceENS2_19CmifDomainProxyKindINS0_4hipc6client38Hipc2ClientSessionManagedProxyKindBaseINSB_18Hipc2ProxyKindBaseILNSA_6detail11MessageTypeE6EEEEEEENS0_30MemoryResourceAllocationPolicyES8_NS3_19ProcessModifierImplINS2_21DefaultProxyFilterTagEEEEE = __sdk_start + 0x0000000000d13ef8;
_ZN2nn3hid6system21GetAudioControlStatesEPNS1_17AudioControlStateEi = __sdk_start + 0x00000000004add50;
_ZN22nerd_gillette_internal5otete7jaimev113DecodeHandROKERNS1_12HandInPacketEPKhmPmRKNS1_17IntensityInPacketE = __sdk_start + 0x00000000004c5260;
_ZN2nn2fs24HierarchicalRomFileTable17FindFileRecursiveEPNS1_8EntryKeyEPNS1_17DirectoryRomEntryEPKc = __sdk_start + 0x00000000000ebdd0;
_ZNK2nn3mem19NumberLineAllocator4DumpEmi = __sdk_start + 0x000000000012a0a0;
_Z42nnaudiodetail_ne10_radix_butterfly_int32_cILi3ELb0ELb0ELb0EEvP20ne10_fft_cpx_int32_tPKS0_S3_iii = __sdk_start + 0x00000000001f2710;
_ZNK2nn3web21ShowSystemDataPageArg15PushToInChannelENS_6applet19LibraryAppletHandleE = __sdk_start + 0x00000000004e2820;
__extendsfdf2 = __sdk_start + 0x0000000000573d40;
nnmem_nlib_memchr_mb_simd = __sdk_start + 0x000000000011ab60;
_ZN7android21SurfaceComposerClient11setRGBRangeERKNS_2spINS_7IBinderEEEi = __sdk_start + 0x000000000018b070;
_ZTIN2nn2am7service15IStorageChannelE = __sdk_start + 0x0000000000cff5f8;
_ZTSN2nn2sf6detail19InterfaceInfoBottomINS0_14IServiceObjectEE4_tABINS0_13InterfaceInfoINS_5audio6detail12IAudioDeviceEE5_tO2NINS7_6server24AudioRendererManagerImpl15AudioDeviceImplEE4typeES9_E4typeE = __sdk_start + 0x0000000000af016e;
map_font = __sdk_start + 0x0000000000316b30;
_ZN2nn8settings7factory15GetEciDeviceKeyEPNS1_16Rsa2048DeviceKeyE = __sdk_start + 0x00000000003ae030;
nexttowardl = __sdk_start + 0x00000000005c1980;
_ZN2nn5codec21tns_max_bands_tbl_480E = __sdk_start + 0x0000000000b06d3e;
_ZN2nn2sf4cmif6client6detail13CmifProxyImplINS_3hid16IHidSystemServerENS0_4hipc6client18Hipc2ProxyKindBaseILNS7_6detail11MessageTypeE6EEENS0_30MemoryResourceAllocationPolicyES6_NS3_19ProcessModifierImplINS2_21DefaultProxyFilterTagEEEE52_nn_sf_sync_InitializeUsbFirmwareUpdateWithoutMemoryENS_6applet20AppletResourceUserIdE = __sdk_start + 0x00000000004b60cc;
__nedf2 = __sdk_start + 0x00000000005729b0;
_ZN2nn6crypto15Sha256Generator20Asn1ObjectIdentifierE = __sdk_start + 0x0000000000aa5ef7;
_ZN2nn5codec24GetRequiredMemRam_ps_decEv = __sdk_start + 0x00000000002e4720;
_ZN2nn8settings6detail23SetUsbFullKeyEnableFlagEb = __sdk_start + 0x00000000003b69c0;
_ZN2nn6crypto6detail8Sha3ImplILm64EE7GetHashEPvm = __sdk_start + 0x000000000000bb3c;
_ZN2nn8settings6system18GetAudioOutputModeENS1_21AudioOutputModeTargetE = __sdk_start + 0x00000000003acea0;
_ZN2nn8settings6detail27SetPtmCycleCountReliabilityENS0_6system24PtmCycleCountReliabilityE = __sdk_start + 0x00000000003b8cd0;
_ZN2nn2fs3dbm21FileSystemControlArea16WriteStorageInfoEljj = __sdk_start + 0x000000000009da68;
_ZN2nn2fs6detail21SaveDataChunkExporter18GetRestRawDataSizeEv = __sdk_start + 0x00000000000f56ec;
_ZTIN2nn2sf4hipc6server2v124HipcServerSessionManagerE = __sdk_start + 0x0000000000ceb358;
_ZN2nn9bluetooth3hal22MoveToSecondaryPiconetERKNS0_7AddressE = __sdk_start + 0x000000000023a5e0;
_ZN2nn4time26StandardNetworkSystemClock14GetCurrentTimeEPNS0_9PosixTimeE = __sdk_start + 0x00000000003cede4;
_ZN2nn4time51IsStandardUserSystemClockAutomaticCorrectionEnabledEv = __sdk_start + 0x00000000003cf590;
_ZTv0_n24_NSt3__113basic_ostreamIwNS_11char_traitsIwEEED0Ev = __sdk_start + 0x0000000000513188;
_ZN2nn2fs9CheckUtf8EPKc = __sdk_start + 0x00000000000f2720;
_ZN2nn2os6detail13IsApplicationEv = __sdk_start + 0x0000000000137f30;
_ZNSt3__115__thread_structD2Ev = __sdk_start + 0x0000000000507ff8;
_ZN2nn4util43GetLengthOfConvertedStringUtf16NativeToUtf8EPiPKt = __sdk_start + 0x0000000000085fb0;
_ZN2nn3grc23CompleteFinishMovieFileEPNS_6capsrv21ApplicationAlbumEntryEPNS0_10MovieLayerERKNS_2sf8InBufferES9_NS_5album9ImageSizeE = __sdk_start + 0x0000000000351c80;
_ZTIN2nn2am7service18IAppletProxyCommonE = __sdk_start + 0x0000000000cfed18;
_ZTIN2nn2sf4cmif6client6detail13CmifProxyImplINS_2am7service11IMovieMakerENS2_19CmifDomainProxyKindINS0_4hipc6client38Hipc2ClientSessionManagedProxyKindBaseINSA_18Hipc2ProxyKindBaseILNS9_6detail11MessageTypeE6EEEEEEENS0_30MemoryResourceAllocationPolicyES7_NS3_19ProcessModifierImplINS2_21DefaultProxyFilterTagEEEEE = __sdk_start + 0x0000000000d01c98;
_ZN2nn2fs6detail15OutputAccessLogENS_6ResultENS_2os4TickES4_PKcNS0_10FileHandleES6_z = __sdk_start + 0x00000000000e7760;
nnmem_nlib_strchrnul = __sdk_start + 0x000000000011a140;
_ZN2nn6socket8RecvMMsgEiP7mmsghdrmiPNS_8TimeSpanE = __sdk_start + 0x0000000000147980;
_ZN7android9SingletonINS_15ComposerServiceEE9sInstanceE = __sdk_start + 0x0000000000d60b50;
_ZN2nn3hid6system6detail15SetButtonConfigERKNS1_17ButtonConfigRightERKNS_9bluetooth7AddressE = __sdk_start + 0x00000000004a5750;
_ZNSt3__115basic_streambufIwNS_11char_traitsIwEEE6snextcEv = __sdk_start + 0x00000000005100d0;
_ZN2nn2sf4cmif6client6detail13CmifProxyImplINS_2am7service15ISelfControllerENS2_19CmifDomainProxyKindINS0_4hipc6client38Hipc2ClientSessionManagedProxyKindBaseINSA_18Hipc2ProxyKindBaseILNS9_6detail11MessageTypeE6EEEEEEENS0_30MemoryResourceAllocationPolicyES7_NS3_19ProcessModifierImplINS2_21DefaultProxyFilterTagEEEE37_nn_sf_sync_CreateManagedDisplayLayerENS0_3OutImvEE = __sdk_start + 0x00000000001b7cc0;
_ZTSN2nn2am7service11IMovieMakerE = __sdk_start + 0x0000000000ae7177;
_ZN2nn3nfp6client24IsCreatedSystemInterfaceEv = __sdk_start + 0x0000000000381da0;
_ZN2nn2sf6detail38ObjectImplFactoryWithStatefulAllocatorINS0_4cmif6client6detail9CmifProxyINS_4nifm6detail15INetworkProfileENS4_19CmifDomainProxyKindINS0_4hipc6client38Hipc2ClientSessionManagedProxyKindBaseINSC_18Hipc2ProxyKindBaseILNSB_6detail11MessageTypeE6EEEEEEENS0_30MemoryResourceAllocationPolicyENS5_19ProcessModifierImplINS4_21DefaultProxyFilterTagEEEvEESK_E6Object12AddReferenceEv = __sdk_start + 0x000000000038b10c;
_ZN2nn8settings23SetFullKeyGenericPadMapERKNS0_20FullKeyGenericPadMapENS0_12FullKeyIndexE = __sdk_start + 0x00000000003ae640;
_ZN2nn6socket8resolver22RefCountHelperFinalizeEv = __sdk_start + 0x000000000015e950;
_ZN2nn5codec32InitializeOpusMultiStreamDecoderEPNS0_26OpusMultiStreamDecoderTypeEiiiiPKhPvm = __sdk_start + 0x0000000000296760;
_ZN2nn8settings6detail18GetUsb30EnableFlagEPb = __sdk_start + 0x00000000003bee60;
_ZN2nn2sf4cmif6client6detail13CmifProxyImplINS_8irsensor15IIrSensorServerENS0_4hipc6client18Hipc2ProxyKindBaseILNS7_6detail11MessageTypeE6EEENS0_25StatelessAllocationPolicyINS0_22ExpHeapStaticAllocatorILm16384ENS5_6detail14IrSensorServerEEEEES6_NS3_19ProcessModifierImplINS2_21DefaultProxyFilterTagEEEE41_nn_sf_sync_GetIrsensorSharedMemoryHandleENS0_3OutINS0_12NativeHandleEvEENS_6applet20AppletResourceUserIdE = __sdk_start + 0x00000000004c3aa4;
_ZN2nn2os17GetMemoryHeapSizeEv = __sdk_start + 0x0000000000132810;
_ZN2nn4npns12DestroyTokenERKNS_7account3UidE = __sdk_start + 0x0000000000391030;
_ZN2nn2sf4cmif6client34CmifDomainProxyClientCoreProcessorINS0_4hipc6client38Hipc2ClientSessionManagedProxyKindBaseINS5_18Hipc2ProxyKindBaseILNS4_6detail11MessageTypeE6EEEEENS1_6detail14CoreMethodInfoINSt3__15tupleIJNSC_18OutRawArgumentInfoILm8ELm8ELl0EEENSC_18BufferArgumentInfoILi0ELi5ELm0EEENSI_ILi1ELi5ELm0EEEEEELm0ELm8ELb0EEESL_E7ProcessEPNS2_23CmifDomainClientMessageISB_E15ProxyBaseObjectENS2_24OutRawClientArgumentTypeILm8ELm8EEENS2_24BufferClientArgumentTypeESU_j = __sdk_start + 0x00000000003c7340;
nvdcGetModeDB = __sdk_start + 0x00000000003e6530;
_ZN2nn2sf4hipc6client24Hipc2ClientCoreProcessorILNS1_6detail11MessageTypeE6ENS0_4cmif6detail14CoreMethodInfoINSt3__15tupleIJNS7_18OutRawArgumentInfoILm24ELm8ELl0EEENS7_17InRawArgumentInfoILm8ELm8ELl0EEEEEELm8ELm24ELb0EEESF_E7ProcessEPNS2_26Hipc2ClientProxyBaseObjectENS6_6client24OutRawClientArgumentTypeILm24ELm8EEENSK_23InRawClientArgumentTypeILm8ELm8EvEEj = __sdk_start + 0x00000000004b3fe8;
_ZN2nn6applet16UnpopToInChannelENS0_23LibraryAppletSelfHandleENS0_13StorageHandleE = __sdk_start + 0x00000000001cae20;
cff_GridFit = __sdk_start + 0x0000000000315130;
_ZN2nn2sm17UnregisterServiceEPKcm = __sdk_start + 0x0000000000147070;
_ZTIN2nn7friends6detail13AsyncFunctionIJPNS1_3ipc14IFriendServiceEPNS1_11ProfileImplENS_7account3UidENS1_4util10FixedArrayINS8_23NetworkServiceAccountIdELm100EEEEEE = __sdk_start + 0x0000000000d0aa78;
_ZN2nn2sf4cmif6client6detail13CmifProxyImplINS_3hid16IHidSystemServerENS0_4hipc6client18Hipc2ProxyKindBaseILNS7_6detail11MessageTypeE6EEENS0_30MemoryResourceAllocationPolicyES6_NS3_19ProcessModifierImplINS2_21DefaultProxyFilterTagEEEE32_nn_sf_sync_SetJoyConRailEnabledEb = __sdk_start + 0x00000000004b5c60;
_ZTVNSt3__18time_putIwNS_19ostreambuf_iteratorIwNS_11char_traitsIwEEEEEE = __sdk_start + 0x0000000000d248f8;
nnutilZlib_inflateInit2_ = __sdk_start + 0x0000000000076e50;
nndetailImagePng_png_set_gAMA_fixed = __sdk_start + 0x00000000000655b0;
_ZN2nn5audio6server13EffectContext10InitializeEPNS1_14EffectInfoBaseEiPNS0_17EffectResultStateES6_i = __sdk_start + 0x000000000021a9d8;
_ZTSN2nn2sf6detail38ObjectImplFactoryWithStatefulAllocatorINS0_4cmif6client6detail9CmifProxyINS_7timesrv6detail7service16ITimeZoneServiceENS4_19CmifDomainProxyKindINS0_4hipc6client38Hipc2ClientSessionManagedProxyKindBaseINSD_18Hipc2ProxyKindBaseILNSC_6detail11MessageTypeE6EEEEEEENS0_30MemoryResourceAllocationPolicyENS5_19ProcessModifierImplINS4_21DefaultProxyFilterTagEEEvEESL_E6ObjectE = __sdk_start + 0x0000000000b3805c;
_ZN2nn3hid6system6detail15SetButtonConfigERKNS_9hidconfig16ButtonConfigFullERKNS1_11UniquePadIdE = __sdk_start + 0x00000000004a6c30;
_ZN2nn7nlibsdk4heap18NotNMallocPtrErrorEPKv = __sdk_start + 0x0000000000124960;
_ZN2nn3nsd33EnableChangeEnvironmentIdentifierEv = __sdk_start + 0x0000000000394600;
_ZN2nn2vi29InitializeForIndirectProducerEv = __sdk_start + 0x00000000003e0050;
_ZN2nn3hid6detail11GetGyroBiasEPNS_4util6Float3E = __sdk_start + 0x000000000048dc70;
_ZN2nn2sf4cmif6client6detail13CmifProxyImplINS_3hid10IHidServerENS0_4hipc6client18Hipc2ProxyKindBaseILNS7_6detail11MessageTypeE6EEENS0_30MemoryResourceAllocationPolicyES6_NS3_19ProcessModifierImplINS2_21DefaultProxyFilterTagEEEE36_nn_sf_sync_ActivateNpadWithRevisionENS_6applet20AppletResourceUserIdEi = __sdk_start + 0x00000000004aeb9c;
_ZN2nn2sf4cmif6client6detail13CmifProxyImplINS_3hid15IHidDebugServerENS0_4hipc6client18Hipc2ProxyKindBaseILNS7_6detail11MessageTypeE6EEENS0_30MemoryResourceAllocationPolicyES6_NS3_19ProcessModifierImplINS2_21DefaultProxyFilterTagEEEE39_nn_sf_sync_SetDebugMouseAutoPilotStateERKNS5_5debug19MouseAutoPilotStateE = __sdk_start + 0x00000000004b2c30;
_ZN2nn5image10PngEncoderD2Ev = __sdk_start + 0x000000000006faec;
_ZN2nn2fs6detail30FileSystemServiceObjectAdapter28DoDeleteDirectoryRecursivelyERKNS0_4PathE = __sdk_start + 0x00000000000cedb0;
_ZN2nn2sf4hipc6server2v121HipcServerSessionBase5ReplyEPvm = __sdk_start + 0x0000000000141304;
_ZN2nn3mii15PrivateDatabaseC1Ev = __sdk_start + 0x00000000003786a8;
_ZN2nn2sf4cmif6client6detail13CmifProxyImplINS_8settings22IFactorySettingsServerENS0_4hipc6client18Hipc2ProxyKindBaseILNS7_6detail11MessageTypeE6EEENS0_30MemoryResourceAllocationPolicyES6_NS3_19ProcessModifierImplINS2_21DefaultProxyFilterTagEEEE44_nn_sf_sync_GetConsoleSixAxisSensorMountTypeENS0_3OutIhvEE = __sdk_start + 0x00000000003b3fb4;
fegetenv = __sdk_start + 0x00000000005c3e94;
_ZN7android7RefBaseD0Ev = __sdk_start + 0x0000000000191c40;
_ZN2nn2sf4cmif6client6detail13CmifProxyImplINS_3nim6detail33IShopServiceAccessServerInterfaceENS0_4hipc6client18Hipc2ProxyKindBaseILNS8_6detail11MessageTypeE6EEENS0_30MemoryResourceAllocationPolicyES7_NS3_19ProcessModifierImplINS2_21DefaultProxyFilterTagEEEE36_nn_sf_sync_RefreshDebugAvailabilityEv = __sdk_start + 0x00000000002f8530;
_ZNK2nn3err6detail12UnitHeapBase11do_is_equalERKNS_14MemoryResourceE = __sdk_start + 0x00000000002fe0e4;
_ZN2nn2sf13SharedPointerINS_3nsd6detail8IManagerEED2Ev = __sdk_start + 0x0000000000394878;
_ZN2nn7account12AsyncContext6CancelEv = __sdk_start + 0x000000000019bef0;
_ZN2nn2sf4cmif6client6detail13CmifProxyImplINS_2am7service18IAppletProxyCommonENS2_19CmifDomainProxyKindINS0_4hipc6client38Hipc2ClientSessionManagedProxyKindBaseINSA_18Hipc2ProxyKindBaseILNS9_6detail11MessageTypeE6EEEEEEENS0_30MemoryResourceAllocationPolicyENS6_19ILibraryAppletProxyENS3_19ProcessModifierImplINS2_21DefaultProxyFilterTagEEEE12GetProxyInfoEv = __sdk_start + 0x00000000001be4a8;
_ZN2nn3hid6detail28WritePalmaRgbLedPatternEntryERKNS0_21PalmaConnectionHandleERKtPKvm = __sdk_start + 0x0000000000494cb0;
_ZN2nn5album22SaveAndShareScreenshotEPKvmNS0_9ImageSizeENS0_17AlbumReportOptionERKNS_7account3UidE = __sdk_start + 0x00000000001b0910;
_ZN2nn2sf13InterfaceInfoINS_5audio6detail14IAudioRendererEE4_tABINS5_5_tO2NINS2_6server24AudioRendererManagerImpl17AudioRendererImplEE4typeES4_E4type41_nn_sf_sync_ExecuteAudioRendererRenderingEv = __sdk_start + 0x000000000020d638;
_ZN2nn3mii6detail11CoreDataRaw12SetEyeAspectEi = __sdk_start + 0x0000000000368438;
_ZNSt3__115__get_classnameEPKcb = __sdk_start + 0x000000000054ebe0;
FS_set_cmap_variant = __sdk_start + 0x000000000030b460;
_ZNKSt3__18time_getIcNS_19istreambuf_iteratorIcNS_11char_traitsIcEEEEE17__get_weekdaynameERiRS4_S4_RjRKNS_5ctypeIcEE = __sdk_start + 0x0000000000526da0;
_ZNKSt3__117moneypunct_bynameIwLb1EE16do_positive_signEv = __sdk_start + 0x000000000052b5ec;
_ZN2nn3htc13ServiceHolder25GetHostDisconnectionEventENS_2sf3OutINS2_12NativeHandleEvEE = __sdk_start + 0x00000000000ff674;
_ZN7android14SurfaceControl7destroyEv = __sdk_start + 0x0000000000188484;
_ZN2nn2la15PushToInChannelENS_6applet19LibraryAppletHandleEPKvm = __sdk_start + 0x000000000035f280;
_ZTSN2nn2sf6detail38ObjectImplFactoryWithStatefulAllocatorINS0_4cmif6client6detail9CmifProxyINS_2am7service13ILockAccessorENS4_19CmifDomainProxyKindINS0_4hipc6client38Hipc2ClientSessionManagedProxyKindBaseINSC_18Hipc2ProxyKindBaseILNSB_6detail11MessageTypeE6EEEEEEENS0_30MemoryResourceAllocationPolicyENS5_19ProcessModifierImplINS4_21DefaultProxyFilterTagEEEvEESK_E6ObjectE = __sdk_start + 0x0000000000ade74e;
_ZNK2nn5audio6server12BehaviorInfo29IsReverbChannelMappingChangedEv = __sdk_start + 0x00000000002193e4;
_ZN2nn2ec6detail15ShowShopPageArg8DataSizeE = __sdk_start + 0x0000000000b117a8;
_ZTIN2nn3ngc15ProfanityFilterE = __sdk_start + 0x0000000000d0e348;
_ZN2nn2sf4cmif6client6detail13CmifProxyImplINS_8settings21ISystemSettingsServerENS0_4hipc6client18Hipc2ProxyKindBaseILNS7_6detail11MessageTypeE6EEENS0_30MemoryResourceAllocationPolicyES6_NS3_19ProcessModifierImplINS2_21DefaultProxyFilterTagEEEE16_nn_sf_sync_SetTEb = __sdk_start + 0x00000000003bbda0;
nncryptoDecryptAes192CtrPartial = __sdk_start + 0x00000000000028a0;
_ZN2nn2fs16SuspendMmcPatrolEv = __sdk_start + 0x00000000000d4050;
_ZN2nn3err6detail10RawContextC1ENS0_16ContextTypeValueEtNSt3__110unique_ptrIvNS1_21MemoryResourceDeleterEEE = __sdk_start + 0x00000000002fe5c8;
_ZN2nn7friends32CheckBlockedUserListAvailabilityEPb = __sdk_start + 0x0000000000342810;
_ZTv0_n24_NSt3__113basic_istreamIcNS_11char_traitsIcEEED1Ev = __sdk_start + 0x000000000050b758;
_ZN2nn2sf4hipc10CreatePortEPNS_3svc6HandleES4_i = __sdk_start + 0x0000000000145cb0;
_ZNK7android6Parcel9readInt64Ev = __sdk_start + 0x000000000016ab50;
_ZN2nn5audio24PerformanceBufferManager15UpdateOutStatusEPKv = __sdk_start + 0x00000000001d8cc0;
_ZTSN2nn2sf4cmif6client6detail9CmifProxyINS_5visrv2sf21ISystemDisplayServiceENS0_4hipc6client18Hipc2ProxyKindBaseILNS8_6detail11MessageTypeE6EEENS0_30MemoryResourceAllocationPolicyENS3_19ProcessModifierImplINS2_21DefaultProxyFilterTagEEEvEE = __sdk_start + 0x0000000000b397a5;
_ZTSNSt3__117__assoc_sub_stateE = __sdk_start + 0x0000000000b5b8cf;
_ZN2nn6crypto6detail9GhashImpl20ProcessRemainingDataEPKhm = __sdk_start + 0x0000000000011de0;
_ZN2nn5image6detail15PngStreamWriter10InitializeEPvm = __sdk_start + 0x0000000000070080;
_ZN2nn3nfp15SetRegisterInfoERKNS0_12DeviceHandleERKNS0_19RegisterInfoPrivateE = __sdk_start + 0x00000000003840c0;
_ZN2nn2sf4cmif6client6detail13CmifProxyImplINS_7timesrv6detail7service16ITimeZoneServiceENS2_19CmifDomainProxyKindINS0_4hipc6client38Hipc2ClientSessionManagedProxyKindBaseINSB_18Hipc2ProxyKindBaseILNSA_6detail11MessageTypeE6EEEEEEENS0_30MemoryResourceAllocationPolicyES8_NS3_19ProcessModifierImplINS2_21DefaultProxyFilterTagEEEE47_nn_sf_sync_GetDeviceLocationNameAndUpdatedTimeENS0_3OutINS_4time12LocationNameEvEENSO_INSP_20SteadyClockTimePointEvEE = __sdk_start + 0x00000000003d2204;
nvdcGetCapabilities = __sdk_start + 0x00000000003e4a70;
_ZN2nn3hid19GetTouchScreenStateILm5EEEvPNS0_16TouchScreenStateIXT_EEE = __sdk_start + 0x000000000049e360;
_ZN7android16SortedVectorImpl6removeEPKv = __sdk_start + 0x0000000000197dd0;
_ZN2nn5album22SaveAndShareScreenshotEPNS0_7ShareIdEPKvmNS0_9ImageSizeENS0_16ImageOrientationENS0_17AlbumReportOptionERKNS_7account3UidE = __sdk_start + 0x00000000001b1100;
_ZN2nn4util16BinaryFileHeader11SetFileSizeEm = __sdk_start + 0x000000000007ccdc;
_ZTSN2nn5audio6server11CaptureInfoE = __sdk_start + 0x0000000000af14a2;
NvRmGpuProfilerV2PmaStreamAlloc = __sdk_start + 0x0000000000435e50;
_ZN2nn6crypto13Sha3GeneratorILm28EE20Asn1ObjectIdentifierE = __sdk_start + 0x0000000000aa5f0a;
_ZN2nn2fs12OpenBisWiperEPNSt3__110unique_ptrINS0_6IWiperENS1_14default_deleteIS3_EEEEONS_2sf12NativeHandleEm = __sdk_start + 0x00000000000b1ad0;
_ZN2nn2fs34CheckGameCardPartitionAvailabilityEjNS0_17GameCardPartitionE = __sdk_start + 0x00000000000d1540;
_ZNK7android6Parcel17readExceptionCodeEv = __sdk_start + 0x000000000016b2f0;
_ZN2nn7friends6detail17ShimLibraryGlobal14GetSyncSessionEv = __sdk_start + 0x0000000000345cb4;
_ZTIN2nn2fs3dbm30BufferedAllocationTableStorageE = __sdk_start + 0x0000000000ce66f0;
nnosSetMultiWaitHolderUserData = __sdk_start + 0x0000000000130360;
_ZN2nn2sf4cmif6client6detail13CmifProxyImplINS_2am7service21IApplicationFunctionsENS2_19CmifDomainProxyKindINS0_4hipc6client38Hipc2ClientSessionManagedProxyKindBaseINSA_18Hipc2ProxyKindBaseILNS9_6detail11MessageTypeE6EEEEEEENS0_30MemoryResourceAllocationPolicyES7_NS3_19ProcessModifierImplINS2_21DefaultProxyFilterTagEEEE52_nn_sf_sync_TryPopFromFriendInvitationStorageChannelENS0_3OutINS0_13SharedPointerINS6_8IStorageEEEvEE = __sdk_start + 0x00000000001c1b08;
_ZNK2nn3err6detail10RawContext7GetDataEv = __sdk_start + 0x00000000002fe6a4;
sin = __sdk_start + 0x00000000005c2bb0;
nvcecSetLAddr = __sdk_start + 0x00000000003e41e0;
_ZN2nn2sf4cmif6client6detail13CmifProxyImplINS_3hid10IHidServerENS0_4hipc6client18Hipc2ProxyKindBaseILNS7_6detail11MessageTypeE6EEENS0_30MemoryResourceAllocationPolicyES6_NS3_19ProcessModifierImplINS2_21DefaultProxyFilterTagEEEE36_nn_sf_sync_SetAccelerometerPlayModeENS_6applet20AppletResourceUserIdENS5_19SixAxisSensorHandleEj = __sdk_start + 0x00000000004aea18;
_ZN7android12ProcessState4selfEv = __sdk_start + 0x000000000016c014;
_ZN2nn5audio26SetLightLimiterInputOutputEPNS0_16LightLimiterTypeEPKaS4_i = __sdk_start + 0x00000000001d5960;
_ZN2nn3kpr6detail20ClearKeyCodeComposerEPNS1_22KeyCodeComposerStorageE = __sdk_start + 0x00000000004d8ef0;
_ZNK2nn5audio6server12BehaviorInfo26IsAdpcmLoopContextBugFixedEv = __sdk_start + 0x0000000000219158;
_ZN2nn5audio14MemoryPoolInfo5StoreEPKNS1_9OutStatusE = __sdk_start + 0x00000000001d79f4;
_ZN2nn8settings6detail9GetSslKeyEPNS0_7factory6SslKeyE = __sdk_start + 0x00000000003ba2a0;
_ZTSN2nn2sf6detail38ObjectImplFactoryWithStatefulAllocatorINS0_4cmif6client6detail9CmifProxyINS_3ssl2sf20ISslServiceForSystemENS4_19CmifDomainProxyKindINS0_4hipc6client38Hipc2ClientSessionManagedProxyKindBaseINSC_18Hipc2ProxyKindBaseILNSB_6detail11MessageTypeE6EEEEEEENS0_24StatefulAllocationPolicyINS0_16ExpHeapAllocatorEEENS5_19ProcessModifierImplINS4_21DefaultProxyFilterTagEEEvEESM_E6ObjectE = __sdk_start + 0x0000000000b35af0;
_ZN2nn2sf4hipc6client24Hipc2ClientCoreProcessorILNS1_6detail11MessageTypeE6ENS0_4cmif6detail14CoreMethodInfoINSt3__15tupleIJNS7_17InRawArgumentInfoILm8ELm8ELl8EEENSB_ILm2ELm2ELl0EEEEEELm16ELm0ELb0EEESE_E7ProcessEPNS2_26Hipc2ClientProxyBaseObjectENS6_6client23InRawClientArgumentTypeILm8ELm8EvEENSK_ILm2ELm2EvEEj = __sdk_start + 0x00000000004b18bc;
_ZN2nn6socket6detail5CloseEi = __sdk_start + 0x00000000001511e0;
_ZN2nn3mii6detail11CoreDataRaw8SetMoleXEi = __sdk_start + 0x0000000000368c9c;
_ZN2nn3hid5debug20GetSensorFusionErrorEv = __sdk_start + 0x000000000049bee0;
_ZN2nn6socket8resolver3tls6Client10InitializeEv = __sdk_start + 0x000000000015c3d0;
_ZN2nn2ec4json7adaptor37ConsumableServiceItemRightDataAdaptor21NotifyObjectBeginImplERKNS_4http4json8JsonPathILi8ELi128ELb0EEE = __sdk_start + 0x00000000002fb628;
_ZN2nn2sf4hipc6client24Hipc2ClientCoreProcessorILNS1_6detail11MessageTypeE6ENS0_4cmif6detail14CoreMethodInfoINSt3__15tupleIJNS7_20InHandleArgumentInfoILi0ELi1EEENS7_17InRawArgumentInfoILm4ELm4ELl0EEEEEELm4ELm0ELb0EEESF_E7ProcessEPNS2_26Hipc2ClientProxyBaseObjectENS6_6client26InHandleClientArgumentTypeENSK_23InRawClientArgumentTypeILm4ELm4EvEEj = __sdk_start + 0x00000000003d933c;
_ZN2nn7account8NotifierD0Ev = __sdk_start + 0x00000000001a049c;
_ZN2nn3apm18GetPerformanceModeEv = __sdk_start + 0x00000000001c94c0;
_ZN22nerd_gillette_internal5otete7jaimev119DecodeSilhouetteROKEPNS0_11OteteFloat2ERmmPKhmPm = __sdk_start + 0x00000000004c66b0;
_ZN2nn2fs14CreateSaveDataENS_3ncm13ApplicationIdENS0_6UserIdEmllRKNS0_8HashSaltEj = __sdk_start + 0x00000000000dcf90;
_ZNK2nn2lm6detail24LogPacketTransmitterBase13GetRemainSizeEv = __sdk_start + 0x0000000000360830;
_ZN2nn5audio26GetReleasedMemoryPoolCountEPKNS0_19AudioRendererConfigE = __sdk_start + 0x00000000001d7710;
nncodecLibopus_silk_InitDecoder = __sdk_start + 0x0000000000270fb0;
_ZN2nn3err14SystemErrorArg12SetErrorCodeENS0_9ErrorCodeE = __sdk_start + 0x00000000002fd01c;
_ZN2nn3mii6detail17PantsSpecialColorE = __sdk_start + 0x0000000000b21000;
_ZN2nn2sf4cmif6client34CmifDomainProxyClientCoreProcessorINS0_4hipc6client38Hipc2ClientSessionManagedProxyKindBaseINS5_18Hipc2ProxyKindBaseILNS4_6detail11MessageTypeE6EEEEENS1_6detail14CoreMethodInfoINSt3__15tupleIJNSC_18OutRawArgumentInfoILm4ELm4ELl0EEENSC_18BufferArgumentInfoILi0ELi6ELm0EEENSC_17InRawArgumentInfoILm2ELm2ELl0EEEEEELm2ELm4ELb0EEESM_E7ProcessEPNS2_23CmifDomainClientMessageISB_E15ProxyBaseObjectENS2_24OutRawClientArgumentTypeILm4ELm4EEENS2_24BufferClientArgumentTypeENS2_23InRawClientArgumentTypeILm2ELm2EvEEj = __sdk_start + 0x000000000038fea8;
NvRmGpuDropObject = __sdk_start + 0x0000000000436430;
_ZNSt3__115basic_streambufIwNS_11char_traitsIwEEE7pubsyncEv = __sdk_start + 0x00000000005100a0;
towlower = __sdk_start + 0x000000000059fe40;
_ZN2nn5codec6AlphasE = __sdk_start + 0x0000000000b0ef50;
_ZN2nn2ec6detail15ShowShopPageArg14SetCallbackUrlEPKc = __sdk_start + 0x00000000002f9e00;
_ZN2nn2sf4cmif6client6detail13CmifProxyImplINS_5visrv2sf22IManagerDisplayServiceENS0_4hipc6client18Hipc2ProxyKindBaseILNS8_6detail11MessageTypeE6EEENS0_30MemoryResourceAllocationPolicyES7_NS3_19ProcessModifierImplINS2_21DefaultProxyFilterTagEEEE28_nn_sf_sync_CreateStrayLayerENS0_3OutImvEENSJ_IlvEERKNS0_9OutBufferEmj = __sdk_start + 0x00000000003d9600;
pthread_getaffinity_np = __sdk_start + 0x000000000013a170;
_ZN2nn5audio6server14DeviceSinkInfoC1Ev = __sdk_start + 0x000000000021ccf8;
_ZN2nn3err6detail14MixinAllocator13do_deallocateEPvmm = __sdk_start + 0x00000000002fe1d8;
_ZN2nn2sf4cmif6client6detail13CmifProxyImplINS_8settings21ISystemSettingsServerENS0_4hipc6client18Hipc2ProxyKindBaseILNS7_6detail11MessageTypeE6EEENS0_30MemoryResourceAllocationPolicyES6_NS3_19ProcessModifierImplINS2_21DefaultProxyFilterTagEEEE39_nn_sf_sync_SetButtonConfigSettingsFullERKNS0_7InArrayINS5_6system20ButtonConfigSettingsEEE = __sdk_start + 0x00000000003bbe1c;
_ZN2nn2vi20GetDp2hdmiControllerEPNS_2sf13SharedPointerINS_7dp2hdmi6detail18IDp2hdmiControllerEEE = __sdk_start + 0x00000000003dd530;
_ZTIN2nn2sf4cmif6client6detail9CmifProxyINS_3ngc1t6detail25IServiceWithManagementApiENS0_4hipc6client18Hipc2ProxyKindBaseILNS9_6detail11MessageTypeE6EEENS0_30MemoryResourceAllocationPolicyENS3_19ProcessModifierImplINS2_21DefaultProxyFilterTagEEEvEE = __sdk_start + 0x0000000000d20f10;
nndetailImagePng_png_read_data = __sdk_start + 0x0000000000059e80;
_ZN2nn2sf4cmif6client6detail13CmifProxyImplINS_2am7service18IDisplayControllerENS2_19CmifDomainProxyKindINS0_4hipc6client38Hipc2ClientSessionManagedProxyKindBaseINSA_18Hipc2ProxyKindBaseILNS9_6detail11MessageTypeE6EEEEEEENS0_30MemoryResourceAllocationPolicyES7_NS3_19ProcessModifierImplINS2_21DefaultProxyFilterTagEEEE52_nn_sf_sync_AcquireLastForegroundCaptureSharedBufferENS0_3OutIbvEENSN_IivEE = __sdk_start + 0x00000000001b9b5c;
_ZN2nn5audio18IsCaptureRemovableEPKNS0_11CaptureTypeE = __sdk_start + 0x00000000001d50e0;
_ZN2nn3hid14KeyboardLayout19EnglishUnitedStatesE = __sdk_start + 0x0000000000b440a4;
_ZNK7android6Region4dumpERNS_7String8EPKcj = __sdk_start + 0x0000000000191180;
_ZTSN2nn2sf4cmif6client6detail13CmifProxyImplINS_2am7service21ILibraryAppletCreatorENS2_19CmifDomainProxyKindINS0_4hipc6client38Hipc2ClientSessionManagedProxyKindBaseINSA_18Hipc2ProxyKindBaseILNS9_6detail11MessageTypeE6EEEEEEENS0_30MemoryResourceAllocationPolicyES7_NS3_19ProcessModifierImplINS2_21DefaultProxyFilterTagEEEEE = __sdk_start + 0x0000000000ae28e9;
nncodecLibopus_opus_packet_parse_impl = __sdk_start + 0x0000000000281e90;
_ZTSN2nn5codec10AacDecoderE = __sdk_start + 0x0000000000b0f7d9;
_ZN2nn5codec19sbrDecoder_GetDelayEPNS0_20SBR_DECODER_INSTANCEE = __sdk_start + 0x00000000002ea6c0;
_ZN2nn3mii16GetEyeGreenColorENS0_9GammaTypeE = __sdk_start + 0x00000000003649f0;
_ZN2nn2sf4cmif6client6detail13CmifProxyImplINS_3mii6detail16IDatabaseServiceENS2_19CmifDomainProxyKindINS0_4hipc6client38Hipc2ClientSessionManagedProxyKindBaseINSA_18Hipc2ProxyKindBaseILNS9_6detail11MessageTypeE6EEEEEEENS0_30MemoryResourceAllocationPolicyES7_NS3_19ProcessModifierImplINS2_21DefaultProxyFilterTagEEEE31_nn_sf_sync_SetInterfaceVersionEi = __sdk_start + 0x0000000000379fbc;
_ZN2nn5audio18GetSubMixMixVolumeEPKNS0_10SubMixTypeEPKNS0_12FinalMixTypeEii = __sdk_start + 0x00000000001dad10;
_ZN2nn2sf4hipc6client24Hipc2ClientCoreProcessorILNS1_6detail11MessageTypeE6ENS0_4cmif6detail14CoreMethodInfoINSt3__15tupleIJNS7_18OutRawArgumentInfoILm8ELm4ELl0EEENS7_17InRawArgumentInfoILm4ELm4ELl0EEENSD_ILm8ELm8ELl8EEEEEELm16ELm8ELb1EEESG_E7ProcessEPNS2_26Hipc2ClientProxyBaseObjectENS6_6client24OutRawClientArgumentTypeILm8ELm4EEENSL_23InRawClientArgumentTypeILm4ELm4EvEENSO_ILm8ELm8EvEEj = __sdk_start + 0x00000000004b765c;
_ZN2nn4util6detail7FloatPiE = __sdk_start + 0x0000000000ac3d44;
_ZN2nn6applet19GetGpuErrorInfoSizeEv = __sdk_start + 0x00000000001cbee0;
_ZTSN2nn2sf6detail38ObjectImplFactoryWithStatefulAllocatorINS0_4cmif6client6detail9CmifProxyINS_7timesrv6detail7service12ISystemClockENS4_19CmifDomainProxyKindINS0_4hipc6client38Hipc2ClientSessionManagedProxyKindBaseINSD_18Hipc2ProxyKindBaseILNSC_6detail11MessageTypeE6EEEEEEENS0_30MemoryResourceAllocationPolicyENS5_19ProcessModifierImplINS4_21DefaultProxyFilterTagEEEvEESL_E6ObjectE = __sdk_start + 0x0000000000b3780a;
__aarch64_ldclr1_relax = __sdk_start + 0x000000000057cd50;
nncryptoEncryptAes128CtrPartial = __sdk_start + 0x0000000000002870;
nncryptoAes256GcmDecryptorBlockSize = __sdk_start + 0x0000000000aa5eb8;
_ZN2nn7nlibsdk4heap11CentralHeap7ReallocEPvmPS3_ = __sdk_start + 0x0000000000125244;
_ZN2nn2am20GetDisplayControllerEv = __sdk_start + 0x00000000001b1f30;
_ZN2nn5audio3dsp5StartEv = __sdk_start + 0x0000000000225bf0;
_ZN2nn2sf4hipc6client24Hipc2ClientCoreProcessorILNS1_6detail11MessageTypeE6ENS0_4cmif6detail14CoreMethodInfoINSt3__15tupleIJNS7_18BufferArgumentInfoILi0ELi6ELm0EEENS7_17InRawArgumentInfoILm4ELm4ELl0EEEEEELm4ELm0ELb0EEESF_E7ProcessEPNS2_26Hipc2ClientProxyBaseObjectENS6_6client24BufferClientArgumentTypeENSK_23InRawClientArgumentTypeILm4ELm4EvEEj = __sdk_start + 0x00000000000ffeb0;
nnmem_nlib_strto_int64_fallback = __sdk_start + 0x0000000000111d20;
_ZTIN2nn2sf22UnitHeapMemoryResourceE = __sdk_start + 0x0000000000cebad8;
_ZN2nn2sf4cmif6client34CmifDomainProxyClientCoreProcessorINS0_4hipc6client38Hipc2ClientSessionManagedProxyKindBaseINS5_18Hipc2ProxyKindBaseILNS4_6detail11MessageTypeE6EEEEENS1_6detail14CoreMethodInfoINSt3__15tupleIJNSC_18OutRawArgumentInfoILm32ELm4ELl0EEEEEELm0ELm32ELb0EEESI_E7ProcessEPNS2_23CmifDomainClientMessageISB_E15ProxyBaseObjectENS2_24OutRawClientArgumentTypeILm32ELm4EEEj = __sdk_start + 0x00000000001bad44;
_ZN2nn2ec28ConsumableServiceItemManager20GetProvidableItemIdsEPiPNS0_23ConsumableServiceItemIdEi = __sdk_start + 0x00000000002ec8f0;
_ZN2nn2la31NifmToNetConnectArgumentsWriterC1ENS_6ResultERKNS_4util4UuidEb = __sdk_start + 0x000000000035fc38;
_ZN2nn3mii6detail16GetMouthRedColorENS0_11CommonColorENS0_9GammaTypeE = __sdk_start + 0x0000000000365cb0;
_ZN2nn2sf4cmif6client6detail13CmifProxyImplINS_3mii6detail16IDatabaseServiceENS2_19CmifDomainProxyKindINS0_4hipc6client38Hipc2ClientSessionManagedProxyKindBaseINSA_18Hipc2ProxyKindBaseILNS9_6detail11MessageTypeE6EEEEEEENS0_30MemoryResourceAllocationPolicyES7_NS3_19ProcessModifierImplINS2_21DefaultProxyFilterTagEEEE24_nn_sf_sync_BuildDefaultENS0_3OutINS5_8CharInfoEvEEi = __sdk_start + 0x0000000000379eb8;
_ZTIN2nn2sf4cmif6client6detail9CmifProxyINS_4olsc3srv21IAsyncTransferRequestENS2_19CmifDomainProxyKindINS0_4hipc6client38Hipc2ClientSessionManagedProxyKindBaseINSA_18Hipc2ProxyKindBaseILNS9_6detail11MessageTypeE6EEEEEEENS0_25StatelessAllocationPolicyINS0_22ExpHeapStaticAllocatorILm2048ENS5_6detail12ObjectHolder24ObjectHolderAllocatorTagEEEEENS3_19ProcessModifierImplINS2_21DefaultProxyFilterTagEEEvEE = __sdk_start + 0x0000000000d10718;
_ZN2nn2sf4cmif6client6detail13CmifProxyImplINS_5visrv2sf21ISystemDisplayServiceENS0_4hipc6client18Hipc2ProxyKindBaseILNS8_6detail11MessageTypeE6EEENS0_30MemoryResourceAllocationPolicyES7_NS3_19ProcessModifierImplINS2_21DefaultProxyFilterTagEEEE31_nn_sf_sync_GetDisplayUnderscanENS0_3OutIlvEEm = __sdk_start + 0x00000000003d7de4;
_ZN2nn3hid26EnableUsbFullKeyControllerEb = __sdk_start + 0x000000000049e9d0;
_ZN2nn7nlibsdk4heap14TlsHeapCentral4InitEPvmb = __sdk_start + 0x000000000011fa8c;
_ZN2nn5codec29FDK_sbrDecoder_sbr_limGains_mE = __sdk_start + 0x0000000000b0db28;
_ZN2nn2sf4cmif6client6detail13CmifProxyImplINS_3hid16IHidSystemServerENS0_4hipc6client18Hipc2ProxyKindBaseILNS7_6detail11MessageTypeE6EEENS0_30MemoryResourceAllocationPolicyES6_NS3_19ProcessModifierImplINS2_21DefaultProxyFilterTagEEEE40_nn_sf_sync_EnableAppletToGetTouchScreenENS_6applet20AppletResourceUserIdEb = __sdk_start + 0x00000000004b5bf0;
_ZN3nne4nlib11InputStream12CheckBuffer_Ev = __sdk_start + 0x000000000015f3b0;
_ZN2nn3apm17FinalizeForSystemEv = __sdk_start + 0x00000000001c9fc0;
_ZN2nn5audio23OpenFinalOutputRecorderEPNS0_19FinalOutputRecorderERKNS0_28FinalOutputRecorderParameterE = __sdk_start + 0x00000000001eac10;
_ZNK2nn5audio6server14EffectInfoBase13GetWorkBufferENS2_5IndexE = __sdk_start + 0x0000000000219680;
_ZTIN2nn2sf13InterfaceInfoINS_5audio6detail21IAudioRendererManagerEE4_tABINS5_5_tO2NINS2_6server24AudioRendererManagerImplEE4typeES4_E4typeE = __sdk_start + 0x0000000000d05ca8;
_ZN2nn5codec7BitMaskE = __sdk_start + 0x0000000000b0716c;
_ZNK2nn3mii6detail16Ver3StoreDataRaw17GetPositionInRoomEv = __sdk_start + 0x000000000036da2c;
_ZNSt3__113basic_istreamIwNS_11char_traitsIwEEE4readEPwl = __sdk_start + 0x00000000005127f4;
inet_pton = __sdk_start + 0x000000000008d900;
_ZN2nn6socket30RegisterResourceStatisticsNameEPKcm = __sdk_start + 0x0000000000147c60;
_ZN2nn2sf4cmif6client6detail13CmifProxyImplINS_2am7service26ILibraryAppletSelfAccessorENS2_19CmifDomainProxyKindINS0_4hipc6client38Hipc2ClientSessionManagedProxyKindBaseINSA_18Hipc2ProxyKindBaseILNS9_6detail11MessageTypeE6EEEEEEENS0_30MemoryResourceAllocationPolicyES7_NS3_19ProcessModifierImplINS2_21DefaultProxyFilterTagEEEE39_nn_sf_sync_GetCallerAppletIdentityInfoENS0_3OutINS6_18AppletIdentityInfoEvEE = __sdk_start + 0x00000000001beecc;
swap_maxp = __sdk_start + 0x000000000033fcf0;
nnosTryWaitSystemEvent = __sdk_start + 0x0000000000130080;
_ZNK2nn5audio6server23SplitterDestinationData5GetIdEv = __sdk_start + 0x000000000021d0bc;
_ZN2nn2sf4cmif6client6detail13CmifProxyImplINS_5codec6detail27IHardwareOpusDecoderManagerENS2_19CmifDomainProxyKindINS0_4hipc6client38Hipc2ClientSessionManagedProxyKindBaseINSA_18Hipc2ProxyKindBaseILNS9_6detail11MessageTypeE6EEEEEEENS0_30MemoryResourceAllocationPolicyES7_NS3_19ProcessModifierImplINS2_21DefaultProxyFilterTagEEEE29_nn_sf_sync_GetWorkBufferSizeENS0_3OutIivEENS6_36HardwareOpusDecoderParameterInternalE = __sdk_start + 0x000000000029778c;
NvOsConditionWaitTimeout = __sdk_start + 0x00000000003f0d50;
_ZN2nn3nfp13StartRestorerEPNS0_7TagInfoEPNS0_12DeviceHandleERKNS0_24AmiiboSettingsStartParamE = __sdk_start + 0x0000000000384580;
_ZN2nn3nsd6detail3ipc13GetSettingUrlEPNS0_3UrlE = __sdk_start + 0x0000000000394890;
NvRmGpuRegOpsSessionSetMmuDebugMode = __sdk_start + 0x00000000004359d0;
nndetailImagePng_png_build_gamma_table = __sdk_start + 0x00000000000508e0;
_ZTIN2nn5fssrv2sf27ISaveDataTransferProhibiterE = __sdk_start + 0x0000000000ce8aa8;
_ZN2nn4bcat21DeliveryCacheProgressD1Ev = __sdk_start + 0x0000000000236658;
_ZN2nn9bluetooth3hal49AcquireAudioSinkVolumeUpdateRequestCompletedEventEPNS_2os15SystemEventTypeENS2_14EventClearModeERKj = __sdk_start + 0x000000000023b150;
_ZN2nn9bluetooth3hal12WriteHidDataERKNS0_7AddressEPKvm = __sdk_start + 0x000000000023bda0;
_ZN2nn2sf4cmif6client6detail13CmifProxyImplINS_3mii6detail21IImageDatabaseServiceENS0_4hipc6client18Hipc2ProxyKindBaseILNS8_6detail11MessageTypeE6EEENS0_30MemoryResourceAllocationPolicyES7_NS3_19ProcessModifierImplINS2_21DefaultProxyFilterTagEEEE22_nn_sf_sync_ImportFileERKNS0_8InBufferE = __sdk_start + 0x000000000037b944;
nndetailImagePng_png_reset_crc = __sdk_start + 0x000000000004c4b0;
_ZN2nn2sf4cmif6client6detail13CmifProxyImplINS_2am7service15IStorageChannelENS2_19CmifDomainProxyKindINS0_4hipc6client38Hipc2ClientSessionManagedProxyKindBaseINSA_18Hipc2ProxyKindBaseILNS9_6detail11MessageTypeE6EEEEEEENS0_30MemoryResourceAllocationPolicyES7_NS3_19ProcessModifierImplINS2_21DefaultProxyFilterTagEEEE29_nn_sf_sync_GetPopEventHandleENS0_3OutINS0_12NativeHandleEvEE = __sdk_start + 0x00000000001b88cc;
_ZN2nn2sf4cmif6client6detail13CmifProxyImplINS_2am7service18IDisplayControllerENS2_19CmifDomainProxyKindINS0_4hipc6client38Hipc2ClientSessionManagedProxyKindBaseINSA_18Hipc2ProxyKindBaseILNS9_6detail11MessageTypeE6EEEEEEENS0_30MemoryResourceAllocationPolicyES7_NS3_19ProcessModifierImplINS2_21DefaultProxyFilterTagEEEE48_nn_sf_sync_AcquireLastForegroundCaptureBufferExENS0_3OutIbvEENSN_INS0_12NativeHandleEvEE = __sdk_start + 0x00000000001b9b04;
_ZN2nn9bluetooth3hal40SendAudioControlSetAbsoluteVolumeCommandERKNS0_7AddressEi = __sdk_start + 0x000000000023b770;
_ZN2nn7account22GetProfileSyncNotifierEPNS0_8NotifierE = __sdk_start + 0x000000000019ac70;
_ZN2nn9bluetooth3hal6detail24DestroyBtdrvServiceProxyEv = __sdk_start + 0x000000000023fe10;
_ZN2nn2sf4cmif6client6detail13CmifProxyImplINS_3hid10IHidServerENS0_4hipc6client18Hipc2ProxyKindBaseILNS7_6detail11MessageTypeE6EEENS0_30MemoryResourceAllocationPolicyES6_NS3_19ProcessModifierImplINS2_21DefaultProxyFilterTagEEEE57_nn_sf_sync_SetNpadJoyAssignmentModeSingleWithDestinationENS0_3OutIbvEENSI_IjvEENS_6applet20AppletResourceUserIdEjl = __sdk_start + 0x00000000004aec70;
nndetailImagePng_png_write_info_before_PLTE = __sdk_start + 0x0000000000067da0;
_ZN2nn4util18MatrixRowMajor4x4f12ConstantZeroE = __sdk_start + 0x0000000000ac4820;
_ZN7android18BufferItemConsumer13releaseBufferERKNS_22IGraphicBufferConsumer10BufferItemERKNS_2spINS_5FenceEEE = __sdk_start + 0x0000000000173f58;
_ZN2nn2sf4cmif6client6detail13CmifProxyImplINS_4nifm6detail15IGeneralServiceENS2_19CmifDomainProxyKindINS0_4hipc6client38Hipc2ClientSessionManagedProxyKindBaseINSA_18Hipc2ProxyKindBaseILNS9_6detail11MessageTypeE6EEEEEEENS0_30MemoryResourceAllocationPolicyES7_NS3_19ProcessModifierImplINS2_21DefaultProxyFilterTagEEEE17GetCmifBaseObjectEv = __sdk_start + 0x0000000000389314;
_ZN2nn2sf4cmif6client6detail13CmifProxyImplINS_7timesrv6detail7service16ITimeZoneServiceENS2_19CmifDomainProxyKindINS0_4hipc6client38Hipc2ClientSessionManagedProxyKindBaseINSB_18Hipc2ProxyKindBaseILNSA_6detail11MessageTypeE6EEEEEEENS0_30MemoryResourceAllocationPolicyES8_NS3_19ProcessModifierImplINS2_21DefaultProxyFilterTagEEEE23_nn_sf_sync_ToPosixTimeENS0_3OutIivEERKNS0_8OutArrayINS_4time9PosixTimeEEENSR_12CalendarTimeERKNSR_12TimeZoneRuleE = __sdk_start + 0x00000000003d2260;
nnmem_nlib_vsnprintf_fallback = __sdk_start + 0x000000000010bd00;
_ZN7android6Region12subtractSelfERKNS_4RectE = __sdk_start + 0x000000000018fa00;
nncodecLibopus_downmix_int = __sdk_start + 0x00000000002847e0;
_ZNSt3__15ctypeIcE2idE = __sdk_start + 0x0000000000e01570;
nnmem_nlib_malloc_size = __sdk_start + 0x0000000000119dd0;
_ZN2nn5audio14GetAudioInNameEPKNS0_7AudioInE = __sdk_start + 0x00000000001e8440;
_ZNK2nn3mii6detail16Ver3StoreDataRaw12GetMouthTypeEv = __sdk_start + 0x000000000036e97c;
_ZN2nn3web20SharePageReturnValue16LastUrlMaxLengthE = __sdk_start + 0x0000000000b5a3e8;
strtok_r = __sdk_start + 0x0000000000594c90;
_ZN2nn2fs21MountTemporaryStorageEPKc = __sdk_start + 0x00000000000da830;
_ZN2nn6socket6detail6ListenEii = __sdk_start + 0x000000000014ef20;
_ZTIN2nn2sf4cmif6client6detail13CmifProxyImplIN3nns9hosbinder16IHOSBinderDriverENS0_4hipc6client18Hipc2ProxyKindBaseILNS8_6detail11MessageTypeE6EEENS0_30MemoryResourceAllocationPolicyES7_NS3_19ProcessModifierImplINS2_21DefaultProxyFilterTagEEEEE = __sdk_start + 0x0000000000d14ef8;
_ZN2nn2sf4hipc6client24Hipc2ClientCoreProcessorILNS1_6detail11MessageTypeE6ENS0_4cmif6detail14CoreMethodInfoINSt3__15tupleIJNS7_17InRawArgumentInfoILm104ELm8ELl0EEENSB_ILm8ELm8ELl104EEEEEELm112ELm0ELb0EEESE_E7ProcessEPNS2_26Hipc2ClientProxyBaseObjectENS6_6client23InRawClientArgumentTypeILm104ELm8EvEENSK_ILm8ELm8EvEEj = __sdk_start + 0x00000000004b5320;
_ZNSt3__112system_errorD2Ev = __sdk_start + 0x0000000000507bf0;
_ZN2nn2fs8MountBisENS0_14BisPartitionIdEPKc = __sdk_start + 0x00000000000b1620;
_ZN2nn7nlibsdk4heap11CentralHeap6ShrinkEPvm = __sdk_start + 0x00000000001254d0;
_ZN2nn5audio3dsp9ApplyMix1ILi23EEEvPiPKiii = __sdk_start + 0x000000000022f170;
_ZN2nn2oe20SwitchLcdBacklightOnEv = __sdk_start + 0x00000000003994c0;
NvRmSyncIsSemaphores = __sdk_start + 0x00000000003f7830;
_ZN2nn3hid14DisconnectNpadERKj = __sdk_start + 0x000000000049c540;
_ZN7android6ParcelC2Ev = __sdk_start + 0x0000000000167b6c;
_ZTVNSt3__18ios_baseE = __sdk_start + 0x0000000000d220d8;
_ZTVN2nn5audio6server13CommandBufferE = __sdk_start + 0x0000000000d04880;
_ZTIN2nn3err6detail17UnitHeapAllocatorILi64EEE = __sdk_start + 0x0000000000d09e20;
_ZN2nn3hid14GetMouseStatesEPNS0_10MouseStateEi = __sdk_start + 0x000000000049c240;
_ZTVN2nn2sf6detail38ObjectImplFactoryWithStatefulAllocatorINS0_4cmif6client6detail9CmifProxyINS_3ssl2sf14ISslConnectionENS4_19CmifDomainProxyKindINS0_4hipc6client38Hipc2ClientSessionManagedProxyKindBaseINSC_18Hipc2ProxyKindBaseILNSB_6detail11MessageTypeE6EEEEEEENS0_24StatefulAllocationPolicyINS0_16ExpHeapAllocatorEEENS5_19ProcessModifierImplINS4_21DefaultProxyFilterTagEEEvEESM_E6ObjectE = __sdk_start + 0x0000000000d13910;
_ZN2nn2sf4hipc6server2v16detail29HipcAllInOneServerManagerBase11ProcessAutoEPNS_2os19MultiWaitHolderTypeE = __sdk_start + 0x0000000000141044;
_ZNK2nn2sf13SharedPointerINS_3nfp6detail7ISystemEE19FunctionForBoolTypeEv = __sdk_start + 0x00000000003821a0;
_ZTSN2nn2sf6detail38ObjectImplFactoryWithStatefulAllocatorINS0_4cmif6client6detail9CmifProxyINS_3ngc1t6detail9INotifierENS0_4hipc6client18Hipc2ProxyKindBaseILNSB_6detail11MessageTypeE6EEENS0_30MemoryResourceAllocationPolicyENS5_19ProcessModifierImplINS4_21DefaultProxyFilterTagEEEvEESH_E6ObjectE = __sdk_start + 0x0000000000b59ab8;
nncodecLibopus_silk_decode_parameters = __sdk_start + 0x0000000000272c40;
_ZN2nn3hid6detail27EnableControlPadRestrictionERKNS_4util10BitFlagSetILi32ENS0_12NpadStyleTagEEEb = __sdk_start + 0x0000000000494290;
__aarch64_ldeor8_acq = __sdk_start + 0x000000000057d2c0;
_ZN2nn5image6detail8WriteIfdEPhtPKNS1_12ValuedIfdTagERKNS1_9IfdHeaderERKNS1_8BinaryIoE = __sdk_start + 0x0000000000047ff0;
_ZN2nn2fs22GetDirectoryEntryCountEPlNS0_15DirectoryHandleE = __sdk_start + 0x00000000000a2100;
_ZN2nn6socket6detail11GAIStrErrorEi = __sdk_start + 0x0000000000151e50;
_ZN2nn4bcat37GetDeliveryCacheStorageUpdateNotifierEPNS0_8NotifierENS_13ApplicationIdE = __sdk_start + 0x00000000002349c0;
lrint = __sdk_start + 0x00000000005bbb40;
_ZNK2nn5image13ExifExtractor15ExtractSoftwareEPm = __sdk_start + 0x000000000004b7a0;
nnutilZlib_deflateInit_ = __sdk_start + 0x0000000000070e40;
nnutilZlib_inflatePrime = __sdk_start + 0x0000000000077020;
nnosSetTlsValue = __sdk_start + 0x00000000001333e0;
pthread_mutex_destroy = __sdk_start + 0x0000000000139ab0;
_ZN2nn2os15ReleaseReadLockEPNS0_20ReaderWriterLockTypeE = __sdk_start + 0x000000000012e540;
_ZN2nn2fs21WritableRomFileSystem12DoRenameFileERKNS0_4PathES4_ = __sdk_start + 0x00000000000b5160;
_ZN2nn5audio14DelayParameter15ChannelCountMaxE = __sdk_start + 0x0000000000aea9f4;
_ZN2nn5audio6server14DeviceSinkInfo6UpdateEPNS0_6common17BehaviorParameter9ErrorInfoEPNS3_13SinkOutStatusEPKNS3_15SinkInParameterERNS1_10PoolMapperE = __sdk_start + 0x000000000021cd48;
_ZN2nn8settings6system28SetButtonConfigSettingsRightEPKNS1_20ButtonConfigSettingsEi = __sdk_start + 0x00000000003ad8a0;
_ZN2nn8settings6detail38CreateFactorySettingsServerProxyForIpcEPNS_2sf13SharedPointerINS0_22IFactorySettingsServerEEE = __sdk_start + 0x00000000003b3b50;
_ZN2nn2sf4cmif6client6detail13CmifProxyImplINS_7timesrv6detail7service14IStaticServiceENS2_19CmifDomainProxyKindINS0_4hipc6client38Hipc2ClientSessionManagedProxyKindBaseINSB_18Hipc2ProxyKindBaseILNSA_6detail11MessageTypeE6EEEEEEENS0_30MemoryResourceAllocationPolicyES8_NS3_19ProcessModifierImplINS2_21DefaultProxyFilterTagEEEE12GetProxyInfoEv = __sdk_start + 0x00000000003d16e4;
_ZN2nn2ec33InitializePermanentPurchasedEventEv = __sdk_start + 0x00000000002f2a10;
_ZN2nn3err6detail27MakeErrorInfoCommonFilePathEPcmNS0_9ErrorCodeE = __sdk_start + 0x00000000002fde20;
_ZN2nn8settings6system17GetDeviceNickNameEPNS1_14DeviceNickNameE = __sdk_start + 0x00000000003afd50;
nndetailImagePng_png_get_chunk_malloc_max = __sdk_start + 0x0000000000053e80;
_ZNKSt3__120__time_get_c_storageIcE3__rEv = __sdk_start + 0x0000000000545a44;
_ZN2nn2sf4hipc6server2v124HipcServerSessionManager29AllocatePointerTransferBufferEPmPNS3_17HipcServerSessionE = __sdk_start + 0x0000000000141254;
__aarch64_swp1_acq_rel = __sdk_start + 0x000000000057c7e0;
_ZN2nn6crypto6detail11GcmModeImplINS0_12AesEncryptorILm16EEEE5ResetEPKvm = __sdk_start + 0x0000000000003894;
_ZN2nn6applet14ExecuteProgramEhNS0_13StorageHandleE = __sdk_start + 0x00000000001cb670;
_ZNK2nn3mii16CharInfoAccessor13GetFontRegionEv = __sdk_start + 0x00000000003623a8;
_Unwind_GetIPInfo = __sdk_start + 0x000000000056eb00;
_ZN2nn2fs20GetSaveDataTimeStampEPNS_4time9PosixTimeENS0_15SaveDataSpaceIdEm = __sdk_start + 0x00000000000dfb90;
_ZN2nn5audio22GetAudioInSampleFormatEPKNS0_7AudioInE = __sdk_start + 0x00000000001e8470;
_ZN2nn5audio6server12BehaviorInfo11UpdateFlagsERKNS_4util10BitFlagSetILi64EvEE = __sdk_start + 0x000000000021909c;
_ZTSN2nn2sf6detail39ObjectImplFactoryWithStatelessAllocatorINS0_4cmif6client6detail9CmifProxyINS_8irsensor21IIrSensorSystemServerENS0_4hipc6client18Hipc2ProxyKindBaseILNS9_6detail11MessageTypeE6EEENS0_25StatelessAllocationPolicyINS0_22ExpHeapStaticAllocatorILm16384ENS7_6detail20IrSensorSystemServerEEEEENS5_19ProcessModifierImplINS4_21DefaultProxyFilterTagEEEvEESK_E6ObjectE = __sdk_start + 0x0000000000b54040;
_ZN2nn5swkbd6detail18InlineKeyboardImpl17UnsetUserWordInfoEv = __sdk_start + 0x00000000003caea0;
_ZNSt3__113basic_istreamIcNS_11char_traitsIcEEE4swapERS3_ = __sdk_start + 0x000000000050b7c4;
_ZN2nn6crypto6detail8Sha3ImplILm32EE6UpdateEPKvm = __sdk_start + 0x000000000000a980;
_nnmusl_socket_IsNnmuslFileDescriptor = __sdk_start + 0x0000000000090ce0;
_ZN2nn4lmem6detail30GetAllocatableSizeForFrameHeapEPNS1_8HeapHeadEi = __sdk_start + 0x00000000001028e0;
_ZN2nn6socket6detail6AcceptEiPNS0_8SockAddrEPj = __sdk_start + 0x000000000014de30;
_ZN2nn6socket8resolver32DecrementSocketAndSignalIfNeededEv = __sdk_start + 0x000000000015ea20;
_ZN2nn5codec20aacDecoder_ConfigRawEPNS0_20AAC_DECODER_INSTANCEEPPhPKj = __sdk_start + 0x00000000002a5d40;
_ZN2nn3hid6detail19GetDebugMouseStatesEPiPNS0_10MouseStateEi = __sdk_start + 0x000000000048e1b0;
nndetailImagePng_png_set_background_fixed = __sdk_start + 0x000000000005a040;
_ZN2nn6socket8resolver10serializer13DNSSerializer10FromBufferINS0_6InAddrEEElRT_PKhm = __sdk_start + 0x000000000014a590;
_ZTSN2nn2sf4cmif6client6detail13CmifProxyImplINS_3ntc6detail7service14IStaticServiceENS0_4hipc6client18Hipc2ProxyKindBaseILNS9_6detail11MessageTypeE6EEENS0_30MemoryResourceAllocationPolicyES8_NS3_19ProcessModifierImplINS2_21DefaultProxyFilterTagEEEEE = __sdk_start + 0x0000000000b387c0;
nvdcFlipProposeIMP = __sdk_start + 0x00000000003e5fb0;
__ffsdi2 = __sdk_start + 0x0000000000573e80;
_ZN2nn5async5AwaitEPNS_2os16MessageQueueTypeENS1_20MessageQueueWaitTypeE = __sdk_start + 0x000000000008ad10;
_ZNK2nn8irsensor6detail13StatusManager17GetIrCameraStatusERKNS0_14IrCameraHandleE = __sdk_start + 0x00000000004bfe18;
_ZNSt3__112basic_stringIcNS_11char_traitsIcEENS_9allocatorIcEEE6__initEmc = __sdk_start + 0x0000000000500150;
isascii = __sdk_start + 0x000000000059f3b0;
_ZN2nn2sf4cmif6client6detail13CmifProxyImplINS_5codec6detail27IHardwareOpusDecoderManagerENS2_19CmifDomainProxyKindINS0_4hipc6client38Hipc2ClientSessionManagedProxyKindBaseINSA_18Hipc2ProxyKindBaseILNS9_6detail11MessageTypeE6EEEEEEENS0_30MemoryResourceAllocationPolicyES7_NS3_19ProcessModifierImplINS2_21DefaultProxyFilterTagEEEE47_nn_sf_sync_GetWorkBufferSizeForMultiStreamExExENS0_3OutIivEERKNS6_49HardwareOpusMultiStreamDecoderParameterInternalExE = __sdk_start + 0x0000000000297a0c;
_ZN2nn3nfc14FinalizeSystemEv = __sdk_start + 0x000000000037faf0;
_ZNSt3__112__next_primeEm = __sdk_start + 0x00000000004f94e0;
_ZNKSt3__115__codecvt_utf16IwLb1EE9do_lengthER11__mbstate_tPKcS5_m = __sdk_start + 0x0000000000541230;
nndetailImagePng_png_do_check_palette_indexes = __sdk_start + 0x0000000000067970;
_ZN2nn2sf4cmif6client6detail13CmifProxyImplINS_2am7service25IProcessWindingControllerENS2_19CmifDomainProxyKindINS0_4hipc6client38Hipc2ClientSessionManagedProxyKindBaseINSA_18Hipc2ProxyKindBaseILNS9_6detail11MessageTypeE6EEEEEEENS0_30MemoryResourceAllocationPolicyES7_NS3_19ProcessModifierImplINS2_21DefaultProxyFilterTagEEEE22_nn_sf_sync_PopContextENS0_3OutINS0_13SharedPointerINS6_8IStorageEEEvEE = __sdk_start + 0x00000000001bb6b4;
_ZN2nn2sf4cmif6client6detail13CmifProxyImplINS_7friends6detail3ipc15IServiceCreatorENS2_19CmifDomainProxyKindINS0_4hipc6client38Hipc2ClientSessionManagedProxyKindBaseINSB_18Hipc2ProxyKindBaseILNSA_6detail11MessageTypeE6EEEEEEENS0_30MemoryResourceAllocationPolicyES8_NS3_19ProcessModifierImplINS2_21DefaultProxyFilterTagEEEE37_nn_sf_sync_CreateNotificationServiceENS0_3OutINS0_13SharedPointerINS7_20INotificationServiceEEEvEERKNS_7account3UidE = __sdk_start + 0x00000000003469b0;
_ZN2nn3mii6detail11CoreDataRaw8SetNoseYEi = __sdk_start + 0x00000000003687dc;
_ZTSN2nn2sf4cmif6client6detail9CmifProxyINS_6grcsrv17IGameMovieTrimmerENS2_19CmifDomainProxyKindINS0_4hipc6client38Hipc2ClientSessionManagedProxyKindBaseINS9_18Hipc2ProxyKindBaseILNS8_6detail11MessageTypeE6EEEEEEENS0_30MemoryResourceAllocationPolicyENS3_19ProcessModifierImplINS2_21DefaultProxyFilterTagEEEvEE = __sdk_start + 0x0000000000ae54c9;
_Z42nnaudiodetail_ne10_radix_butterfly_int32_cILi5ELb1ELb1ELb1EEvP20ne10_fft_cpx_int32_tPKS0_S3_iii = __sdk_start + 0x00000000001f2e80;
_ZThn32_N2nn2sf4cmif6client6detail13CmifProxyImplINS_3mii6detail16IDatabaseServiceENS2_19CmifDomainProxyKindINS0_4hipc6client38Hipc2ClientSessionManagedProxyKindBaseINSA_18Hipc2ProxyKindBaseILNS9_6detail11MessageTypeE6EEEEEEENS0_30MemoryResourceAllocationPolicyES7_NS3_19ProcessModifierImplINS2_21DefaultProxyFilterTagEEEE17GetCmifBaseObjectEv = __sdk_start + 0x000000000037a004;
_ZN22nerd_gillette_internal5otete7jaimev226GetReverseSymmetricSegmentERKNS_15NumericalVectorIsLm2EEES5_ = __sdk_start + 0x00000000004d3c70;
_ZN7android12ConsumerBaseD1Ev = __sdk_start + 0x000000000017b998;
_ZN2nn2sf4cmif6client6detail13CmifProxyImplINS_2am7service18IDisplayControllerENS2_19CmifDomainProxyKindINS0_4hipc6client38Hipc2ClientSessionManagedProxyKindBaseINSA_18Hipc2ProxyKindBaseILNS9_6detail11MessageTypeE6EEEEEEENS0_30MemoryResourceAllocationPolicyES7_NS3_19ProcessModifierImplINS2_21DefaultProxyFilterTagEEEE43_nn_sf_sync_GetLastForegroundCaptureImageExENS0_3OutIbvEERKNS0_9OutBufferE = __sdk_start + 0x00000000001b9a4c;
_ZN2nn2sf4cmif6client6detail36GetClientProcessorImplWithObjectBaseINS2_19CmifDomainProxyKindINS0_4hipc6client38Hipc2ClientSessionManagedProxyKindBaseINS7_18Hipc2ProxyKindBaseILNS6_6detail11MessageTypeE6EEEEEEENS3_19ProcessModifierImplINS2_21DefaultProxyFilterTagEEEE14ObjectAssignerINS0_30MemoryResourceAllocationPolicyENS_14MemoryResourceEE14AllocateObjectINS_4nifm6detail15IGeneralServiceEEEvi = __sdk_start + 0x0000000000388d4c;
_ZN2nn2fs6detail12FileAccessor7GetSizeEPl = __sdk_start + 0x000000000009f2f0;
_ZN2nn2sf4cmif6client6detail13CmifProxyImplINS_8settings21ISystemSettingsServerENS0_4hipc6client18Hipc2ProxyKindBaseILNS7_6detail11MessageTypeE6EEENS0_30MemoryResourceAllocationPolicyES6_NS3_19ProcessModifierImplINS2_21DefaultProxyFilterTagEEEE35_nn_sf_sync_SetDataDeletionSettingsENS5_6system20DataDeletionSettingsE = __sdk_start + 0x00000000003bb684;
_ZN2nn2sf4cmif6client6detail13CmifProxyImplINS_5visrv2sf21ISystemDisplayServiceENS0_4hipc6client18Hipc2ProxyKindBaseILNS8_6detail11MessageTypeE6EEENS0_30MemoryResourceAllocationPolicyES7_NS3_19ProcessModifierImplINS2_21DefaultProxyFilterTagEEEE36_nn_sf_sync_AcquireSharedFrameBufferENS0_3OutIlvEENSJ_INS_2vi6native10NativeSyncEvEENSJ_INSL_7fbshare27SharedLayerTextureIndexListEvEENSP_17SharedLayerHandleE = __sdk_start + 0x00000000003d7f18;
_ZN2nn2pl9EndVrModeEv = __sdk_start + 0x00000000003a28f0;
_ZN2nn3hid30InitializeConsoleSixAxisSensorEv = __sdk_start + 0x000000000049bcb0;
_ZN2nn2sf4cmif6client6detail13CmifProxyImplINS_3hid16IHidSystemServerENS0_4hipc6client18Hipc2ProxyKindBaseILNS7_6detail11MessageTypeE6EEENS0_30MemoryResourceAllocationPolicyES6_NS3_19ProcessModifierImplINS2_21DefaultProxyFilterTagEEEE41_nn_sf_sync_DeleteButtonConfigStorageLeftEi = __sdk_start + 0x00000000004b6300;
_ZNSt3__110moneypunctIcLb0EE2idE = __sdk_start + 0x0000000000e014b8;
_ZN2nn3mem17StandardAllocator10InitializeEPvm = __sdk_start + 0x0000000000126358;
_ZNK2nn3mii21ParamCharInfoAccessor11GetNicknameEPNS0_8NicknameEi = __sdk_start + 0x0000000000364530;
_ZNKSt3__18numpunctIwE11do_groupingEv = __sdk_start + 0x00000000005428bc;
_ZN2nn6crypto21GenerateHmacSha256MacEPvmPKvmS3_m = __sdk_start + 0x0000000000004160;
_ZN2nn5image13ExifExtractorC1EPvm = __sdk_start + 0x000000000004b3b8;
_ZN2nn2sf6detail38ObjectImplFactoryWithStatefulAllocatorINS0_4cmif6client6detail9CmifProxyINS_2am7service24IApplicationProxyServiceENS4_19CmifDomainProxyKindINS0_4hipc6client38Hipc2ClientSessionManagedProxyKindBaseINSC_18Hipc2ProxyKindBaseILNSB_6detail11MessageTypeE6EEEEEEENS0_30MemoryResourceAllocationPolicyENS5_19ProcessModifierImplINS4_21DefaultProxyFilterTagEEEvEESK_E6Object7ReleaseEv = __sdk_start + 0x00000000001c5e04;
_ZN2nn5audio34SetAudioRendererRenderingTimeLimitENS0_19AudioRendererHandleEi = __sdk_start + 0x00000000001e1330;
_ZN2nn3hid25DisableAnyPalmaConnectionEv = __sdk_start + 0x000000000049dbf0;
_ZN2nn3ngc15ProfanityFilterD0Ev = __sdk_start + 0x0000000000385eac;
_ZNSt3__110ctype_base5alnumE = __sdk_start + 0x0000000000b788e0;
_ZN2nn2fs11FileStorageD2Ev = __sdk_start + 0x00000000000eec30;
_ZN2nn3apm20CheckPerformanceListENS0_15PerformanceModeENS0_24PerformanceConfigurationE = __sdk_start + 0x00000000001caaa0;
_ZN2nn5codec25Hcr_State_BODY_SIGN__BODYEPNS0_13FDK_BITSTREAMEPv = __sdk_start + 0x00000000002a0650;
_ZN2nn4nifm6detail13RequestClientD1Ev = __sdk_start + 0x0000000000387658;
_ZN2nn5srepo6detail15ReportGenerator16GetKeyValueCountEPKhm = __sdk_start + 0x00000000003a4588;
unlink = __sdk_start + 0x000000000008dbf0;
_ZN2nn2os30IsWriteLockHeldByCurrentThreadEPKNS0_20ReaderWriterLockTypeE = __sdk_start + 0x000000000012e5b0;
_ZN2nn3err40ShowUnacceptableAddOnContentVersionErrorEv = __sdk_start + 0x00000000002fbd60;
_ZN2nn2fs27ConvertAccountUidToFsUserIdERKNS_7account3UidE = __sdk_start + 0x0000000000350f50;
_ZTSN2nn2sf4cmif6client6detail13CmifProxyImplINS_2lm10ILogGetterENS2_19CmifDomainProxyKindINS0_4hipc6client38Hipc2ClientSessionManagedProxyKindBaseINS9_18Hipc2ProxyKindBaseILNS8_6detail11MessageTypeE6EEEEEEENS0_30MemoryResourceAllocationPolicyES6_NS3_19ProcessModifierImplINS2_21DefaultProxyFilterTagEEEEE = __sdk_start + 0x0000000000b15c0e;
_ZN2nn5swkbd6detail18InlineKeyboardImpl26SetAlphaEnabledInInputModeEb = __sdk_start + 0x00000000003cb388;
_ZN2nn2vi3dev26g_ExternalNativeWindowListE = __sdk_start + 0x0000000000dccee0;
_ZN2nn2fs4save22SaveDataFileSystemCore17DoCreateDirectoryERKNS0_4PathE = __sdk_start + 0x00000000000a9958;
_ZN2nn6applet49TakeScreenShotOfOwnLayerIntoLastApplicationBufferEb = __sdk_start + 0x00000000001cd6b0;
_ZN2nn5audio22AudioRendererParameter14SubMixCountMaxE = __sdk_start + 0x0000000000aea9d4;
_ZN2nn2ec17GetPurchasedEventEv = __sdk_start + 0x00000000002f2b70;
_ZN2nn2sf4cmif6client6detail13CmifProxyImplINS_3hid10IHidServerENS0_4hipc6client18Hipc2ProxyKindBaseILNS7_6detail11MessageTypeE6EEENS0_30MemoryResourceAllocationPolicyES6_NS3_19ProcessModifierImplINS2_21DefaultProxyFilterTagEEEE36_nn_sf_sync_StopConsoleSixAxisSensorENS_6applet20AppletResourceUserIdENS5_26ConsoleSixAxisSensorHandleE = __sdk_start + 0x00000000004aee28;
_ZN2nn2ec24ShowShopAddOnContentListENS_13ApplicationIdE = __sdk_start + 0x00000000002f3060;
_ZNK2nn3mii21ParamCharInfoAccessor10GetEyeTypeEv = __sdk_start + 0x00000000003645d4;
_ZN22nerd_gillette_internal5otete11ImageCodec212QuantizationERiim = __sdk_start + 0x00000000004cc208;
nndetailImageJpeg_jpeg_fdct_12x6 = __sdk_start + 0x00000000000380a0;
nndetailImageJpeg_jpeg_fdct_6x3 = __sdk_start + 0x0000000000038d10;
_ZN2nn2sf4cmif6client6detail13CmifProxyImplINS_2am7service26ILibraryAppletSelfAccessorENS2_19CmifDomainProxyKindINS0_4hipc6client38Hipc2ClientSessionManagedProxyKindBaseINSA_18Hipc2ProxyKindBaseILNS9_6detail11MessageTypeE6EEEEEEENS0_30MemoryResourceAllocationPolicyES7_NS3_19ProcessModifierImplINS2_21DefaultProxyFilterTagEEEE42_nn_sf_sync_GetGpuErrorDetectedSystemEventENS0_3OutINS0_12NativeHandleEvEE = __sdk_start + 0x00000000001bf1dc;
_ZTSN2nn2sf4cmif6client6detail13CmifProxyImplINS_2am7service16IGpuErrorHandlerENS2_19CmifDomainProxyKindINS0_4hipc6client38Hipc2ClientSessionManagedProxyKindBaseINSA_18Hipc2ProxyKindBaseILNS9_6detail11MessageTypeE6EEEEEEENS0_30MemoryResourceAllocationPolicyES7_NS3_19ProcessModifierImplINS2_21DefaultProxyFilterTagEEEEE = __sdk_start + 0x0000000000adedf5;
_ZN2nn5audio6server12SinkInfoBase6UpdateEPNS0_6common17BehaviorParameter9ErrorInfoEPNS3_13SinkOutStatusEPKNS3_15SinkInParameterERNS1_10PoolMapperE = __sdk_start + 0x000000000021cca0;
_ZN2nn2sf4hipc6client24Hipc2ClientCoreProcessorILNS1_6detail11MessageTypeE6ENS0_4cmif6detail14CoreMethodInfoINSt3__15tupleIJNS7_18OutRawArgumentInfoILm8ELm8ELl0EEENSB_ILm8ELm8ELl8EEENS7_18BufferArgumentInfoILi0ELi70ELm0EEENS7_17InRawArgumentInfoILm8ELm8ELl0EEENSG_ILm8ELm8ELl8EEENSG_ILm8ELm8ELl16EEENSG_ILm8ELm8ELl24EEEEEELm32ELm16ELb1EEESL_E7ProcessEPNS2_26Hipc2ClientProxyBaseObjectENS6_6client24OutRawClientArgumentTypeILm8ELm8EEESS_NSQ_24BufferClientArgumentTypeENSQ_23InRawClientArgumentTypeILm8ELm8EvEESV_SV_SV_j = __sdk_start + 0x00000000003dba00;
_ZN2nn3web10WebSession21TrySendContentMessageEPKcm = __sdk_start + 0x00000000004e4674;
__isoc99_fwscanf = __sdk_start + 0x00000000005a9a30;
_ZN7android6Parcel12writeString8ERKNS_7String8E = __sdk_start + 0x0000000000169410;
_ZNSt3__119declare_no_pointersEPcm = __sdk_start + 0x00000000004f9ed0;
_ZTSN2nn2sf13ISharedObjectE = __sdk_start + 0x0000000000ac5a33;
_ZN2nn2fs6detail22PathBasedFileDataCacheD1Ev = __sdk_start + 0x00000000000fbed0;
_ZN2nn5srepo6detail15StructGenerator11AddKeyValueEPmPKcfPhmm = __sdk_start + 0x00000000003a6ac4;
nndetailImageJpeg_jpeg_fdct_6x6 = __sdk_start + 0x00000000000344b0;
_ZN7android8String16C1EPKDs = __sdk_start + 0x000000000019234c;
_ZN2nn5audio30ResampleOutputGetNextFrameSizeEPNS0_16DownSamplerStateEiiiPi = __sdk_start + 0x0000000000225b50;
_ZZN2nn3hid7utility12StaticObjectINS0_6detail18NpadSessionManagerINS3_24NpadSharedMemoryAccessorEEEvE3GetEvE15s_IsInitialized = __sdk_start + 0x0000000000deb618;
_ZN2nn3hid18VibrationConverter12ProcessChunkEPNS0_14VibrationValueEPKsi = __sdk_start + 0x000000000049ed54;
_ZN2nn6socket12EventFdWriteEim = __sdk_start + 0x0000000000147800;
_ZNK2nn3mii8Database8GetIndexEPiRKNS0_8CharInfoE = __sdk_start + 0x00000000003784ac;
_ZN2nn4time15UtcLocationNameE = __sdk_start + 0x0000000000b37391;
_ZZN2nn3hid7utility12StaticObjectINS0_6detail18NpadSessionManagerINS3_24NpadSharedMemoryAccessorEEEvE3GetEvE7s_Mutex = __sdk_start + 0x0000000000deb61c;
_ZTSN2nn3hid15VibrationPlayerE = __sdk_start + 0x0000000000b43a02;
_ZN2nn2sf4cmif6client34CmifDomainProxyClientCoreProcessorINS0_4hipc6client38Hipc2ClientSessionManagedProxyKindBaseINS5_18Hipc2ProxyKindBaseILNS4_6detail11MessageTypeE6EEEEENS1_6detail14CoreMethodInfoINSt3__15tupleIJNSC_17InRawArgumentInfoILm8ELm8ELl8EEENSG_ILm1ELm1ELl0EEENSC_18BufferArgumentInfoILi0ELi5ELm0EEEEEELm16ELm0ELb0EEESL_E7ProcessEPNS2_23CmifDomainClientMessageISB_E15ProxyBaseObjectENS2_23InRawClientArgumentTypeILm8ELm8EvEENSS_ILm1ELm1EvEENS2_24BufferClientArgumentTypeEj = __sdk_start + 0x00000000000c2780;
_ZN2nn5audio3dsp24ApplyLinearEnvelopeGain1ILi23EEEvPiPKiiii = __sdk_start + 0x0000000000230bf0;
_ZN2nn2ec6detail19ShowShopPageWrapperERNS1_15ShowShopPageArgERKNS_7account3UidE = __sdk_start + 0x00000000002f55b0;
_ZN2nn2sf4cmif6client6detail13CmifProxyImplINS_5visrv2sf22IManagerDisplayServiceENS0_4hipc6client18Hipc2ProxyKindBaseILNS8_6detail11MessageTypeE6EEENS0_30MemoryResourceAllocationPolicyES7_NS3_19ProcessModifierImplINS2_21DefaultProxyFilterTagEEEE41_nn_sf_sync_SetIndirectProducerFlipOffsetEmmNS_8TimeSpanE = __sdk_start + 0x00000000003d9890;
_ZThn16_N2nn2sf4cmif6client6detail13CmifProxyImplINS_5visrv2sf23IApplicationRootServiceENS0_4hipc6client18Hipc2ProxyKindBaseILNS8_6detail11MessageTypeE6EEENS0_30MemoryResourceAllocationPolicyES7_NS3_19ProcessModifierImplINS2_21DefaultProxyFilterTagEEEE17GetCmifBaseObjectEv = __sdk_start + 0x00000000003dc450;
NvRmGpuDeviceClearSmErrors = __sdk_start + 0x00000000004352b0;
_ZNK2nn8irsensor6detail13StatusManager13GetMomentLifoERKNS0_14IrCameraHandleE = __sdk_start + 0x00000000004c0358;
_ZN2nn2fs6detail18IsEnabledAccessLogEj = __sdk_start + 0x00000000000e7010;
_ZN2nn3hid18VibrationConverterD1Ev = __sdk_start + 0x000000000049ed2c;
_ZThn32_N2nn2sf4cmif6client6detail13CmifProxyImplINS_7account24IBaasAccessTokenAccessorENS2_19CmifDomainProxyKindINS0_4hipc6client38Hipc2ClientSessionManagedProxyKindBaseINS9_18Hipc2ProxyKindBaseILNS8_6detail11MessageTypeE6EEEEEEENS0_30MemoryResourceAllocationPolicyES6_NS3_19ProcessModifierImplINS2_21DefaultProxyFilterTagEEEE17GetCmifBaseObjectEv = __sdk_start + 0x000000000019c918;
_ZN2nn3mii6detail16Ver3StoreDataRaw15SetEyebrowScaleEi = __sdk_start + 0x00000000003742b4;
_ZN2nn3nfp6client23IsCreatedDebugInterfaceEv = __sdk_start + 0x0000000000380100;
_ZN2nn3ssl14BuiltInManager28GetBuiltInCertificateBufSizeEPjPNS0_15CaCertificateIdEj = __sdk_start + 0x00000000003c0e38;
_ZN2nn5async6detail20ImmediateFutureStateIvE4WaitEv = __sdk_start + 0x000000000008b66c;
_ZTSN2nn2sf4cmif6client6detail13CmifProxyImplINS_2am7service22IAppletCommonFunctionsENS2_19CmifDomainProxyKindINS0_4hipc6client38Hipc2ClientSessionManagedProxyKindBaseINSA_18Hipc2ProxyKindBaseILNS9_6detail11MessageTypeE6EEEEEEENS0_30MemoryResourceAllocationPolicyES7_NS3_19ProcessModifierImplINS2_21DefaultProxyFilterTagEEEEE = __sdk_start + 0x0000000000ae46bf;
_ZN2nn2oe30InitializeCopyrightFrameBufferEPvm = __sdk_start + 0x0000000000399270;
_ZN2nn5audio15PerformanceInfoC1Ev = __sdk_start + 0x00000000001d89b0;
_ZN2nn3hid6system25GetUsbFirmwareUpdateStateEPNS1_19FirmwareUpdateStateEPiS4_ = __sdk_start + 0x00000000004aa0e0;
_ZN2nn2sf4hipc6client24Hipc2ClientCoreProcessorILNS1_6detail11MessageTypeE6ENS0_4cmif6detail14CoreMethodInfoINSt3__15tupleIJNS7_18OutRawArgumentInfoILm8ELm4ELl0EEENS7_17InRawArgumentInfoILm8ELm8ELl0EEENSD_ILm8ELm8ELl8EEEEEELm16ELm8ELb0EEESG_E7ProcessEPNS2_26Hipc2ClientProxyBaseObjectENS6_6client24OutRawClientArgumentTypeILm8ELm4EEENSL_23InRawClientArgumentTypeILm8ELm8EvEESP_j = __sdk_start + 0x00000000004b7120;
_ZN2nn2fs3dbm21FileSystemControlArea25ExpandAllocationTableInfoEj = __sdk_start + 0x000000000009d8b4;
_ZN2nn4npns26BindPlayReportRequestEventEPNS_2os15SystemEventTypeENS1_14EventClearModeE = __sdk_start + 0x0000000000391250;
_ZN2nn2vi6detail18SystemServiceProxyD1Ev = __sdk_start + 0x00000000003e1c0c;
_ZN2nn3ngc46MaskProfanityWordsInTextForPlatformRegionChinaEPc = __sdk_start + 0x00000000004dd6d0;
_ZN2nn6socket12FreeAddrInfoEPNS0_8AddrInfoE = __sdk_start + 0x0000000000147a90;
_ZN2nn2os6detail17MemoryHeapManager19FindFreeSpaceUnsafeEm = __sdk_start + 0x0000000000133b50;
_ZTIN2nn2am7service30IFloatingLibraryAppletAccepterE = __sdk_start + 0x0000000000d00130;
_ZN2nn3nfc10ReadMifareEPNS0_19MifareReadBlockDataERKNS0_12DeviceHandleEPKNS0_24MifareReadBlockParameterEm = __sdk_start + 0x000000000037f680;
_ZN2nn4lmem6detail25GetExpHeapAllocatableSizeEPNS1_8HeapHeadEi = __sdk_start + 0x0000000000102050;
_ZN2nn5codec5f2PowEii = __sdk_start + 0x00000000002b9480;
find_graymap_in_cache = __sdk_start + 0x0000000000312a40;
_ZNK2nn4nifm17NetworkConnection15IsRequestOnHoldEv = __sdk_start + 0x000000000038ecfc;
_ZNK2nn2vi21LayerCreationSettings8GetWidthEv = __sdk_start + 0x00000000003e3f88;
NvOsSnprintf = __sdk_start + 0x00000000003f23a0;
_ZN2nn3hid6detail30SetNpadJoyAssignmentModeSingleERKjNS0_17NpadJoyDeviceTypeE = __sdk_start + 0x0000000000490b80;
_ZN2nn2sf4hipc6server21HipcServerSessionBase5ReplyEPvm = __sdk_start + 0x0000000000144cb8;
_ZN2nn7friends36GetFacedFriendRequestRegistrationKeyEPNS0_33FacedFriendRequestRegistrationKeyERKNS_7account3UidE = __sdk_start + 0x0000000000343b70;
_ZN2nn8irsensor6detail13StatusManager20AllocatePointingLifoERKNS0_14IrCameraHandleE = __sdk_start + 0x00000000004c01e4;
_ZN2nn7nlibsdk4heap14TlsHeapCentral18GetSpanMappedArea_ERKNS1_4SpanE = __sdk_start + 0x0000000000123940;
_ZN2nn6socket6detail12SetLastErrnoEi = __sdk_start + 0x000000000014c290;
_ZN2nn2sf6detail38ObjectImplFactoryWithStatefulAllocatorINS0_4cmif6client6detail9CmifProxyINS_3err7context17IContextRegistrarENS4_19CmifDomainProxyKindINS0_4hipc6client38Hipc2ClientSessionManagedProxyKindBaseINSC_18Hipc2ProxyKindBaseILNSB_6detail11MessageTypeE6EEEEEEENS0_30MemoryResourceAllocationPolicyENS5_19ProcessModifierImplINS4_21DefaultProxyFilterTagEEEvEESK_E6Object12AddReferenceEv = __sdk_start + 0x0000000000304e2c;
_ZN2nn2sf4cmif6client34CmifDomainProxyClientCoreProcessorINS0_4hipc6client38Hipc2ClientSessionManagedProxyKindBaseINS5_18Hipc2ProxyKindBaseILNS4_6detail11MessageTypeE6EEEEENS1_6detail14CoreMethodInfoINSt3__15tupleIJNSC_18BufferArgumentInfoILi0ELi34ELm0EEENSC_18OutRawArgumentInfoILm8ELm8ELl8EEENSI_ILm4ELm4ELl0EEEEEELm0ELm16ELb0EEESL_E7ProcessEPNS2_23CmifDomainClientMessageISB_E15ProxyBaseObjectENS2_24BufferClientArgumentTypeENS2_24OutRawClientArgumentTypeILm8ELm8EEENST_ILm4ELm4EEEj = __sdk_start + 0x00000000003616f4;
nvdcSetMode = __sdk_start + 0x00000000003e6650;
_ZN2nn3hid24GetNpadCommunicationModeEv = __sdk_start + 0x000000000049d090;
nndetailImagePng_png_set_background = __sdk_start + 0x000000000005a0d0;
_ZTSN2nn5fssrv2sf27ISaveDataTransferProhibiterE = __sdk_start + 0x0000000000acadf0;
_ZN2nn2os6detail22MultiWaitHolderOfEvent20RemoveFromObjectListEv = __sdk_start + 0x0000000000131b60;
_ZTSN2nn7account34NetworkServiceAccountAdministratorE = __sdk_start + 0x0000000000ad4fad;
_ZN2nn5codec17CAacDecoder_CloseEPNS0_20AAC_DECODER_INSTANCEE = __sdk_start + 0x00000000002a32b0;
_ZN2nn5codec19setLimiterThresholdEPNS0_9TDLimiterEs = __sdk_start + 0x00000000002c6db0;
_ZN2nn3hid6system25EnableAppletToGetPadInputERKNS_6applet20AppletResourceUserIdEb = __sdk_start + 0x00000000004adcc0;
_ZTSNSt3__111__money_putIcEE = __sdk_start + 0x0000000000b79600;
wcscmp = __sdk_start + 0x00000000005af2b0;
_ZN2nn2sf4hipc6client24Hipc2ClientCoreProcessorILNS1_6detail11MessageTypeE6ENS0_4cmif6detail14CoreMethodInfoINSt3__15tupleIJNS7_18OutRawArgumentInfoILm4ELm4ELl0EEENS7_18BufferArgumentInfoILi0ELi10ELm0EEEEEELm0ELm4ELb0EEESF_E7ProcessEPNS2_26Hipc2ClientProxyBaseObjectENS6_6client24OutRawClientArgumentTypeILm4ELm4EEENSK_24BufferClientArgumentTypeEj = __sdk_start + 0x0000000000241354;
_ZN2nn3mii6detail12StoreDataRaw11SetHairTypeEi = __sdk_start + 0x000000000036c7dc;
NvRmSyncCalculateSizeForInplaceFd = __sdk_start + 0x00000000003f8340;
nncryptoEncryptAes256Gcm = __sdk_start + 0x0000000000002bf0;
_ZN2nn5album23LoadAlbumThumbnailImageEPiS1_PvmS2_mRKNS0_14AlbumFileEntryE = __sdk_start + 0x00000000001ae3a0;
_ZN2nn5codec10FDKafree_LEPv = __sdk_start + 0x00000000002eb930;
_ZTIN2nn2sf6detail38ObjectImplFactoryWithStatefulAllocatorINS0_4cmif6client6detail9CmifProxyINS_3ssl2sf11ISslServiceENS4_19CmifDomainProxyKindINS0_4hipc6client38Hipc2ClientSessionManagedProxyKindBaseINSC_18Hipc2ProxyKindBaseILNSB_6detail11MessageTypeE6EEEEEEENS0_24StatefulAllocationPolicyINS0_16ExpHeapAllocatorEEENS5_19ProcessModifierImplINS4_21DefaultProxyFilterTagEEEvEESM_E6ObjectE = __sdk_start + 0x0000000000d13dc0;
_ZN2nn3hid6system6detail45BindDeviceRegisteredEventForControllerSupportEPNS_2os15SystemEventTypeENS3_14EventClearModeE = __sdk_start + 0x00000000004a86e0;
_ZN2nn2fs6detail18IsEnabledAccessLogEv = __sdk_start + 0x00000000000e7310;
strcmp16 = __sdk_start + 0x00000000001957e0;
_ZTIN2nn2sf4cmif6client6detail13CmifProxyImplINS_2am7service13ILockAccessorENS2_19CmifDomainProxyKindINS0_4hipc6client38Hipc2ClientSessionManagedProxyKindBaseINSA_18Hipc2ProxyKindBaseILNS9_6detail11MessageTypeE6EEEEEEENS0_30MemoryResourceAllocationPolicyES7_NS3_19ProcessModifierImplINS2_21DefaultProxyFilterTagEEEEE = __sdk_start + 0x0000000000cff148;
_ZN2nn5audio22AudioRendererParameter14EffectCountMaxE = __sdk_start + 0x0000000000aea9e0;
_ZN2nn5audio14AddI3dl2ReverbEPNS0_19AudioRendererConfigEPNS0_15I3dl2ReverbTypeEPvmPNS0_12FinalMixTypeEi = __sdk_start + 0x00000000001d3f30;
_ZN2nn4time6detail39ClaimPeriodicBenefitWithUserSystemClockEPNS0_27PeriodicBenefitClaimContextERKNS0_13ClockSnapshotERKNS_8TimeSpanES9_PKNS0_25CheckCalendarTimeCallbackE = __sdk_start + 0x00000000003cf9c0;
_ZNSt3__117bad_function_callD2Ev = __sdk_start + 0x00000000004f85b4;
_ZNKSt3__18numpunctIcE11do_groupingEv = __sdk_start + 0x0000000000542818;
_ZN2nn5album18FinalizeMovieMakerEv = __sdk_start + 0x00000000001af800;
_ZN2nn4bcat24RequestSyncDeliveryCacheEPNS0_21DeliveryCacheProgressE = __sdk_start + 0x0000000000233910;
_ZNK2nn3mii6detail16Ver3StoreDataRaw15GetEyebrowScaleEv = __sdk_start + 0x000000000036e5fc;
_ZNK2nn3mii13ImageDatabase9LoadImageEPvmRKNS_4util4UuidE = __sdk_start + 0x0000000000378ec0;
_ZN2nn5audio23SetDelayEffectParameterEPKNS0_14DelayParameterEPNS0_10DelayStateE = __sdk_start + 0x0000000000227160;
nncodecLibopus_opus_multistream_decoder_get_size = __sdk_start + 0x000000000028e4f0;
_ZN2nn2ec6detail20ShowShopSettingsImplENS1_10LaunchModeERKNS_7account3UidENS0_8SourceIdE = __sdk_start + 0x00000000002f6b60;
NvOsFclose = __sdk_start + 0x00000000003e9d60;
_ZN2nn3web22ShowOfflineHtmlPageArgC2Ev = __sdk_start + 0x00000000004e05b0;
_ZNSt3__115basic_streambufIwNS_11char_traitsIwEEE9pbackfailEj = __sdk_start + 0x0000000000510594;
_ZTSN2nn2ro6detail12IRoInterfaceE = __sdk_start + 0x0000000000ad0406;
_ZN2nn9bluetooth3hal24RegisterGattNotificationEjRKNS1_6GattIdEbS4_ = __sdk_start + 0x000000000023d270;
_ZTSN2nn2sf6detail38ObjectImplFactoryWithStatefulAllocatorINS0_4cmif6client6detail9CmifProxyINS_8settings21ISystemSettingsServerENS0_4hipc6client18Hipc2ProxyKindBaseILNS9_6detail11MessageTypeE6EEENS0_30MemoryResourceAllocationPolicyENS5_19ProcessModifierImplINS4_21DefaultProxyFilterTagEEEvEESF_E6ObjectE = __sdk_start + 0x0000000000b356f0;
_ZN2nn5audio19ResampleOutputFrameEPNS0_16DownSamplerStateEiiPKiPsii = __sdk_start + 0x0000000000225270;
_ZTIN2nn2sf4cmif6client6detail13CmifProxyImplINS_3nim6detail33IShopServiceAccessServerInterfaceENS0_4hipc6client18Hipc2ProxyKindBaseILNS8_6detail11MessageTypeE6EEENS0_30MemoryResourceAllocationPolicyES7_NS3_19ProcessModifierImplINS2_21DefaultProxyFilterTagEEEEE = __sdk_start + 0x0000000000d094d0;
_ZN2nn3htc13ServiceHolder19SetBridgeSubnetMaskERKNS_2sf8InBufferE = __sdk_start + 0x00000000000ff704;
_ZN2nn5audio6server22CircularBufferSinkInfoC2Ev = __sdk_start + 0x000000000021ce5c;
_ZN2nn5codec15RotVectorReal60E = __sdk_start + 0x0000000000b07e50;
_ZNK2nn3mii6detail16Ver3StoreDataRaw11GetPadding6Ev = __sdk_start + 0x0000000000378158;
nvdcQueryIOCoherencyStatus = __sdk_start + 0x00000000003e5730;
_ZTSN2nn4util17IntrusiveListNodeE = __sdk_start + 0x0000000000ac5362;
_ZN2nn2sf4hipc6server24HipcServerSessionManager23ProcessInvokeMethodImplEONS0_4cmif6server20CmifServerObjectInfoEPNS2_17HipcServerSessionEPKNS1_6detail25HipcMessageBufferAccessorEPKNSA_21HipcMessageHeaderInfoEPvm = __sdk_start + 0x000000000014513c;
_ZN2nn7account25UserRegistrationProcedureaSEOS1_ = __sdk_start + 0x00000000001a0bd4;
_ZN2nn5audio20SetSplitterMixVolumeEPNS0_12SplitterTypeEiPNS0_10SubMixTypeEfii = __sdk_start + 0x00000000001d9c00;
_ZNK2nn3mii21ParamCharInfoAccessor11GetHairTypeEv = __sdk_start + 0x00000000003645bc;
NvRmMemCacheListSyncForDevice = __sdk_start + 0x00000000003fa360;
unw_get_reg = __sdk_start + 0x000000000056aa40;
_ZTSN2nn7account25UserRegistrationProcedureE = __sdk_start + 0x0000000000ad50f0;
nncodecLibopus_opus_packet_get_nb_samples = __sdk_start + 0x0000000000283f40;
nndetailImagePng_png_get_user_transform_ptr = __sdk_start + 0x0000000000067c60;
_ZN2nn4diag6detail17MemoryBlockParser8SetRangeEmm = __sdk_start + 0x00000000000979a4;
pthread_condattr_setpshared = __sdk_start + 0x0000000000139a20;
_ZN2nn2sf4cmif6client6detail13CmifProxyImplINS_2am7service18ICommonStateGetterENS2_19CmifDomainProxyKindINS0_4hipc6client38Hipc2ClientSessionManagedProxyKindBaseINSA_18Hipc2ProxyKindBaseILNS9_6detail11MessageTypeE6EEEEEEENS0_30MemoryResourceAllocationPolicyES7_NS3_19ProcessModifierImplINS2_21DefaultProxyFilterTagEEEE17GetCmifBaseObjectEv = __sdk_start + 0x00000000001b70b0;
_ZN2nn5audio6server38CommandProcessingTimeEstimatorVersion18EstimateERKNS0_17VolumeRampCommandE = __sdk_start + 0x0000000000212a24;
_ZTIN2nn4olsc3srv26IOlscServiceForApplicationE = __sdk_start + 0x0000000000d10310;
_ZNSt3__18__c_node5__addEPNS_8__i_nodeE = __sdk_start + 0x0000000000508eb4;
_ZTINSt3__111regex_errorE = __sdk_start + 0x0000000000d25e68;
nndetailImagePng_png_read_info = __sdk_start + 0x0000000000054400;
_ZTIN2nn5async20CancellationObserverE = __sdk_start + 0x0000000000ce4990;
nnmem_nlib_thread_create = __sdk_start + 0x0000000000118cc0;
_ZN2nn3nfc6client27RequiredMcuVersionDataCountE = __sdk_start + 0x0000000000b2c8bc;
nndetailImagePng_png_fixed = __sdk_start + 0x0000000000050400;
_ZN2nn6socket6AcceptEiPNS0_8SockAddrEPj = __sdk_start + 0x0000000000147470;
FSS_get_table = __sdk_start + 0x000000000033da00;
_ZN2nn2sf4cmif6client34CmifDomainProxyClientCoreProcessorINS0_4hipc6client38Hipc2ClientSessionManagedProxyKindBaseINS5_18Hipc2ProxyKindBaseILNS4_6detail11MessageTypeE6EEEEENS1_6detail14CoreMethodInfoINSt3__15tupleIJNSC_18OutRawArgumentInfoILm4ELm4ELl0EEENSC_18BufferArgumentInfoILi0ELi6ELm0EEENSC_17InRawArgumentInfoILm16ELm8ELl8EEENSK_ILm4ELm4ELl0EEEEEELm24ELm4ELb0EEESN_E7ProcessEPNS2_23CmifDomainClientMessageISB_E15ProxyBaseObjectENS2_24OutRawClientArgumentTypeILm4ELm4EEENS2_24BufferClientArgumentTypeENS2_23InRawClientArgumentTypeILm16ELm8EvEENSX_ILm4ELm4EvEEj = __sdk_start + 0x0000000000349904;
NvRmGpuLibGetInfo = __sdk_start + 0x00000000004351d0;
stdin = __sdk_start + 0x0000000000d31c58;
_ZN2nn2sf4hipc6server2v124HipcServerSessionManager24Process2InvokeMethodImplEONS0_4cmif6server20CmifServerObjectInfoEPNS3_17HipcServerSessionEPvmSB_m = __sdk_start + 0x00000000001417b0;
_ZN2nn2oe22SetCopyrightVisibilityEb = __sdk_start + 0x00000000003993c0;
_ZN2nn2fs4save16SaveDataFileImpl7DoFlushEv = __sdk_start + 0x00000000000acf68;
_ZN2nn2fs6detail14CreateSaveDataERKNS0_17SaveDataAttributeERKNS0_20SaveDataCreationInfoERKNS0_16SaveDataMetaInfoERKNS0_8HashSaltE = __sdk_start + 0x00000000000dbbf0;
_ZN2nn2fs6detail12FileAccessor7SetSizeEl = __sdk_start + 0x000000000009f18c;
_ZTIN2nn2sf4cmif6client6detail9CmifProxyINS_2am7service21ILibraryAppletCreatorENS2_19CmifDomainProxyKindINS0_4hipc6client38Hipc2ClientSessionManagedProxyKindBaseINSA_18Hipc2ProxyKindBaseILNS9_6detail11MessageTypeE6EEEEEEENS0_30MemoryResourceAllocationPolicyENS3_19ProcessModifierImplINS2_21DefaultProxyFilterTagEEEvEE = __sdk_start + 0x0000000000d005d0;
_ZN2nn2la18RequestJumpToStoryERKNS_7account3UidE = __sdk_start + 0x0000000000360080;
_ZNK2nn3mii6detail11CoreDataRaw11GetNoseTypeEv = __sdk_start + 0x00000000003692b8;
_ZN2nn3hid6system29IsDirectionalButtonsSupportedERKj = __sdk_start + 0x00000000004ab5e0;
_ZN2nn2sf4cmif6client6detail13CmifProxyImplINS_7friends6detail3ipc14IFriendServiceENS2_19CmifDomainProxyKindINS0_4hipc6client38Hipc2ClientSessionManagedProxyKindBaseINSB_18Hipc2ProxyKindBaseILNSA_6detail11MessageTypeE6EEEEEEENS0_30MemoryResourceAllocationPolicyES8_NS3_19ProcessModifierImplINS2_21DefaultProxyFilterTagEEEE26_nn_sf_sync_SyncFriendListERKNS_7account3UidE = __sdk_start + 0x0000000000346ed4;
_ZN2nn2sf4cmif6client6detail13CmifProxyImplINS_7friends6detail3ipc14IFriendServiceENS2_19CmifDomainProxyKindINS0_4hipc6client38Hipc2ClientSessionManagedProxyKindBaseINSB_18Hipc2ProxyKindBaseILNSA_6detail11MessageTypeE6EEEEEEENS0_30MemoryResourceAllocationPolicyES8_NS3_19ProcessModifierImplINS2_21DefaultProxyFilterTagEEEE33_nn_sf_sync_DeleteFriendListCacheERKNS_7account3UidE = __sdk_start + 0x00000000003473f0;
_ZN2nn5prepo10PlayReport3AddEPKcS3_ = __sdk_start + 0x00000000003a85b8;
nvgr_is_valid = __sdk_start + 0x0000000000422a30;
_ZN2nn2sf4cmif6client6detail13CmifProxyImplINS_3hid15IHidDebugServerENS0_4hipc6client18Hipc2ProxyKindBaseILNS7_6detail11MessageTypeE6EEENS0_30MemoryResourceAllocationPolicyES6_NS3_19ProcessModifierImplINS2_21DefaultProxyFilterTagEEEE30_nn_sf_sync_GetFirmwareVersionENS0_3OutINS5_6system15FirmwareVersionEvEEjNS_4util10BitFlagSetILi32ENSJ_10DeviceTypeEEE = __sdk_start + 0x00000000004b2e74;
_ZN2nn3web16ShowLobbyPageArg8DataSizeE = __sdk_start + 0x0000000000b595e8;
_ZN2nn2fs6detail15OutputAccessLogENS_6ResultENS_2os4TickES4_PKcNS1_23IdentifyAccessLogHandleES6_z = __sdk_start + 0x00000000000e7960;
_ZN2nn7nlibsdk4heap14TlsHeapCentral18GetMappedMemStats_EPmS3_ = __sdk_start + 0x0000000000123a80;
_ZN2nn2os20TimedJamMessageQueueEPNS0_16MessageQueueTypeEmNS_8TimeSpanE = __sdk_start + 0x000000000012c1b0;
_ZN2nn2sf4cmif6client6detail13CmifProxyImplINS_4nifm6detail15IGeneralServiceENS2_19CmifDomainProxyKindINS0_4hipc6client38Hipc2ClientSessionManagedProxyKindBaseINSA_18Hipc2ProxyKindBaseILNS9_6detail11MessageTypeE6EEEEEEENS0_30MemoryResourceAllocationPolicyES7_NS3_19ProcessModifierImplINS2_21DefaultProxyFilterTagEEEE35_nn_sf_sync_GetCurrentAccessPointV0ENS0_3OutINS6_2sf17AccessPointDataV0EvEE = __sdk_start + 0x0000000000389060;
_ZN2nn6socket9InetHtonlEj = __sdk_start + 0x00000000001478c0;
_ZThn32_N2nn2sf4cmif6client6detail13CmifProxyImplINS_3ssl2sf11ISslServiceENS2_19CmifDomainProxyKindINS0_4hipc6client38Hipc2ClientSessionManagedProxyKindBaseINSA_18Hipc2ProxyKindBaseILNS9_6detail11MessageTypeE6EEEEEEENS0_24StatefulAllocationPolicyINS0_16ExpHeapAllocatorEEENS6_20ISslServiceForSystemENS3_19ProcessModifierImplINS2_21DefaultProxyFilterTagEEEE17GetCmifBaseObjectEv = __sdk_start + 0x00000000003c56ec;
_ZN2nn3hid14KeyboardLayout32EnglishUnitedStatesInternationalE = __sdk_start + 0x0000000000b440a8;
logbf = __sdk_start + 0x00000000005c0f40;
_ZN2nn7account33ExternalNetworkServiceAccountInfoC1EPNS0_4baas18IGuestLoginRequestE = __sdk_start + 0x000000000019d394;
_ZN2nn5audio6server14CompressorInfo21InitializeResultStateEPNS0_17EffectResultStateE = __sdk_start + 0x000000000021ab24;
_ZN2nn8settings6detail42SetConsoleSixAxisSensorAngularVelocityGainERKNS0_6system39ConsoleSixAxisSensorAngularVelocityGainE = __sdk_start + 0x00000000003b9ea0;
_ZN2nn3hid6system27ApplyNpadSystemCommonPolicyEv = __sdk_start + 0x00000000004aad50;
_ZNK2nn5audio23SplitterDestinationData5GetIdEv = __sdk_start + 0x00000000001da94c;
_ZN2nn5audio6server24AudioRendererManagerImpl17AudioRendererImpl21GetRenderingTimeLimitENS_2sf3OutIivEE = __sdk_start + 0x000000000020c988;
_ZN2nn3mii6detail34GetVer3StoreDataDefaultCreatorNameEPNS0_8NicknameE = __sdk_start + 0x000000000036cba0;
_ZN2nn2sf4cmif6client6detail13CmifProxyImplINS_8settings21ISystemSettingsServerENS0_4hipc6client18Hipc2ProxyKindBaseILNS7_6detail11MessageTypeE6EEENS0_30MemoryResourceAllocationPolicyES6_NS3_19ProcessModifierImplINS2_21DefaultProxyFilterTagEEEE40_nn_sf_sync_GetHeadphoneVolumeUpdateFlagENS0_3OutIbvEE = __sdk_start + 0x00000000003bba18;
_ZN2nn5codec24aBookPsIidFineTimeDecodeE = __sdk_start + 0x0000000000b0eca8;
FSS_resize = __sdk_start + 0x0000000000310310;
_ZNSt10bad_typeidD2Ev = __sdk_start + 0x0000000000567428;
_ZN2nn2sf4cmif6client34CmifDomainProxyClientCoreProcessorINS0_4hipc6client38Hipc2ClientSessionManagedProxyKindBaseINS5_18Hipc2ProxyKindBaseILNS4_6detail11MessageTypeE6EEEEENS1_6detail14CoreMethodInfoINSt3__15tupleIJNSC_18OutRawArgumentInfoILm4ELm4ELl0EEENSG_ILm4ELm4ELl4EEENSC_17InRawArgumentInfoILm4ELm4ELl0EEENSC_18BufferArgumentInfoILi0ELi33ELm0EEENSL_ILi1ELi33ELm0EEENSL_ILi2ELi33ELm0EEENSL_ILi3ELi34ELm0EEENSL_ILi4ELi34ELm0EEENSL_ILi5ELi34ELm0EEENSJ_ILm24ELm8ELl8EEEEEELm32ELm8ELb0EEEST_E7ProcessEPNS2_23CmifDomainClientMessageISB_E15ProxyBaseObjectENS2_24OutRawClientArgumentTypeILm4ELm4EEES11_NS2_23InRawClientArgumentTypeILm4ELm4EvEENS2_24BufferClientArgumentTypeES14_S14_S14_S14_S14_NS12_ILm24ELm8EvEEj = __sdk_start + 0x0000000000156dc8;
_ZN2nn2fs18MountCustomStorageEPKcNS0_15CustomStorageIdE = __sdk_start + 0x00000000000b2aa0;
_ZNK2nn3mii16CharInfoAccessor9GetGenderEv = __sdk_start + 0x00000000003623b8;
_ZN2nn3web36ShowOfflineHtmlPageArgWithPlayReport20SetPlayReportEnabledEb = __sdk_start + 0x00000000004e1430;
_ZN2nn6socket11GetAddrInfoEPKcS2_PKNS0_8AddrInfoEPPS3_ = __sdk_start + 0x0000000000147a50;
_ZN2nn4lmem13CreateExpHeapEPvmi = __sdk_start + 0x0000000000100820;
__extendhftf2 = __sdk_start + 0x00000000005704c0;
__isoc99_vswscanf = __sdk_start + 0x00000000005abaa0;
logbl = __sdk_start + 0x00000000005c0f90;
_ZN7android21SurfaceComposerClient9enableVRRERKNS_2spINS_7IBinderEEEb = __sdk_start + 0x000000000018ae3c;
_ZN2nn5audio23GetVoiceBehaviorOptionsEPKNS0_9VoiceTypeE = __sdk_start + 0x00000000001db920;
_ZN2nn2sf6detail38ObjectImplFactoryWithStatefulAllocatorINS0_4cmif6client6detail9CmifProxyINS_4bcat3ipc25IDeliveryCacheFileServiceENS4_19CmifDomainProxyKindINS0_4hipc6client38Hipc2ClientSessionManagedProxyKindBaseINSC_18Hipc2ProxyKindBaseILNSB_6detail11MessageTypeE6EEEEEEENS0_30MemoryResourceAllocationPolicyENS5_19ProcessModifierImplINS4_21DefaultProxyFilterTagEEEvEESK_E6Object12AddReferenceEv = __sdk_start + 0x0000000000238dfc;
_ZN2nn3mii6detail16Ver3StoreDataRaw12SetGlassTypeEi = __sdk_start + 0x0000000000375304;
_ZNSt3__112basic_stringIcNS_11char_traitsIcEENS_9allocatorIcEEEC2ERKS5_RKS4_ = __sdk_start + 0x00000000004ff09c;
_ZN2nn4util17MessagePackWriter13WriteFixArrayEh = __sdk_start + 0x000000000007e86c;
_ZN2nn2os15QueryMemoryInfoEPNS0_10MemoryInfoE = __sdk_start + 0x0000000000132050;
_ZN2nn5audio3dsp4WaitEv = __sdk_start + 0x0000000000225c90;
_ZNK7android7IMemory11fastPointerERKNS_2spINS_7IBinderEEEl = __sdk_start + 0x0000000000162998;
_ZN2nn7account6detail12ObjectHolderD2Ev = __sdk_start + 0x00000000001a1e0c;
_ZN2nn3hid14KeyboardLayout7SpanishE = __sdk_start + 0x0000000000b440cc;
_ZNK2nn2fs3dbm29HierarchicalFileTableTemplateINS1_13DirectoryNameENS1_8FileNameENS1_6detail13DirectoryInfoENS5_8FileInfoEE20CheckSameEntryExistsEPbjPKcmNS_6ResultE = __sdk_start + 0x00000000000afbb4;
_ZN2nn2fs31SaveDataTransferManagerVersion2C1Ev = __sdk_start + 0x00000000000f6c00;
_ZN7android18BufferItemConsumerD0Ev = __sdk_start + 0x0000000000173d80;
_ZN2nn3hid6system6detail15SetButtonConfigERKNS_9hidconfig20ButtonConfigEmbeddedERKNS1_11UniquePadIdE = __sdk_start + 0x00000000004a6bc0;
_ZN2nn3hid6system6detail16EnableJoyConRailEv = __sdk_start + 0x00000000004a71f0;
_ZN2nn5audio13AddCompressorEPNS0_19AudioRendererConfigEPNS0_14CompressorTypeEPNS0_12FinalMixTypeEi = __sdk_start + 0x00000000001d26e0;
_ZN2nn4time6detail20MonotonicSystemClock21SetSystemClockContextERKNS0_18SystemClockContextE = __sdk_start + 0x00000000003d00a4;
_ZN2nn2vi17SetDisplayCrcModeEPNS0_7DisplayENS0_7CrcModeE = __sdk_start + 0x00000000003dcd90;
_ZN2nn2sf33GetCurrentEffectiveMemoryResourceEv = __sdk_start + 0x000000000013e1b0;
_ZN2nn7account22ShowUserNicknameEditorERKNS0_3UidE = __sdk_start + 0x00000000001982f0;
_ZN2nn5audio16VoiceInfoManager17GetWorkBufferSizeEi = __sdk_start + 0x00000000001db970;
nnaudiodetail_ne10_fft_generate_twiddles_float32 = __sdk_start + 0x00000000001ecb20;
_ZN2nn9bluetooth18GattCharacteristicC2Ev = __sdk_start + 0x0000000000246858;
_ZNK2nn2lm6detail15LogPacketHeader14IsLittleEndianEv = __sdk_start + 0x00000000003601a0;
_ZN2nn8settings6detail17SetDeviceNickNameERKNS0_6system14DeviceNickNameE = __sdk_start + 0x00000000003ba820;
nnmem_nlib_realloc_ = __sdk_start + 0x0000000000119da0;
_ZN2nn4util6detail19FileInputStreamImpl9SetBufferEPvm = __sdk_start + 0x0000000000160034;
_ZN2nn3hid6detail21GetSixAxisSensorStateEPNS0_18SixAxisSensorStateERKNS0_19SixAxisSensorHandleE = __sdk_start + 0x0000000000495a70;
_ZN2nn2fs16SaveDataIteratorC1EONS_2sf13SharedPointerINS_5fssrv2sf19ISaveDataInfoReaderEEE = __sdk_start + 0x00000000000dc5b4;
_ZN2nn3aoc17CountAddOnContentEv = __sdk_start + 0x00000000001c62f0;
_ZN2nn2sf4cmif6client6detail13CmifProxyImplINS_7friends6detail3ipc14IFriendServiceENS2_19CmifDomainProxyKindINS0_4hipc6client38Hipc2ClientSessionManagedProxyKindBaseINSB_18Hipc2ProxyKindBaseILNSA_6detail11MessageTypeE6EEEEEEENS0_30MemoryResourceAllocationPolicyES8_NS3_19ProcessModifierImplINS2_21DefaultProxyFilterTagEEEE51_nn_sf_sync_GetReceivedFriendInvitationDetailedInfoENS0_3OutINS6_25FriendInvitationGroupImplEvEERKNS_7account3UidENS5_23FriendInvitationGroupIdE = __sdk_start + 0x0000000000347104;
_ZN2nn4pctl18PairingAccountInfoD1Ev = __sdk_start + 0x000000000039de0c;
_ZNK2nn2sf13SharedPointerINS_3ssl2sf11ISslServiceEE19FunctionForBoolTypeEv = __sdk_start + 0x00000000003c0f20;
nvgr_set_clientdata = __sdk_start + 0x0000000000422be0;
_ZN2nn5audio18g_AudioOutCountMaxE = __sdk_start + 0x0000000000d037b0;
_ZN2nn5audio23SetAuxReverbInputOutputEPNS0_13AuxReverbTypeEPKaS4_i = __sdk_start + 0x00000000001cfa00;
_ZN2nn4npns14SubscribeTopicEPKc = __sdk_start + 0x0000000000390e90;
nvdcDisplayUnbind = __sdk_start + 0x00000000003e5590;
_ZN2nn2fs6detail22LruFileDataCacheSystem8MovePageEPNS2_4PageES4_ = __sdk_start + 0x00000000000fbd84;
FsLtt_done = __sdk_start + 0x0000000000330500;
_ZN2nn4htcs6detail25virtual_socket_collection12CreateSocketENS_2sf13SharedPointerINS_3tma7ISocketEEERi = __sdk_start + 0x000000000035b440;
_ZN2nn3hid19GetTouchScreenStateILm2EEEvPNS0_16TouchScreenStateIXT_EEE = __sdk_start + 0x000000000049e2d0;
_ZN2nn2fs13PathFormatter15SkipWindowsPathEPPKcPmPbS3_b = __sdk_start + 0x00000000000f109c;
_ZNK2nn3hid15KeyCodeComposer21GetRomajiKatakanaModeEv = __sdk_start + 0x00000000004a40c4;
_Unwind_ForcedUnwind = __sdk_start + 0x000000000056e6c0;
ngettext = __sdk_start + 0x00000000005a3780;
_ZN2nn2ec9AsyncData7GetSizeEPm = __sdk_start + 0x00000000002ec0a0;
_ZN2nn2ec4json7adaptor11AdaptorBaseILi8ELi128EE10UpdateImplERKNS_4http4json8JsonPathILi8ELi128ELb0EEEb = __sdk_start + 0x00000000002fb78c;
_ZN2nn4npns7ReceiveEPNS0_16NotificationDataE = __sdk_start + 0x0000000000390d30;
_ZNKSt3__114error_category10equivalentEiRKNS_15error_conditionE = __sdk_start + 0x0000000000506fd4;
_ZNKSt3__117moneypunct_bynameIcLb1EE16do_negative_signEv = __sdk_start + 0x000000000052b100;
_ZN2nn7nlibsdk4heap10CachedHeap4FreeEPv = __sdk_start + 0x0000000000126058;
nnaudiodetail_ne10_mixed_radix_fft_forward_float32_neon = __sdk_start + 0x00000000001f9d40;
_ZN2nn5audio6server16CommandGenerator33GenerateCircularBufferSinkCommandEiPNS1_12SinkInfoBaseE = __sdk_start + 0x0000000000211f58;
nncodecLibopus_opus_multistream_encoder_ctl = __sdk_start + 0x0000000000292610;
_ZNK2nn3mii6detail12StoreDataRaw15GetEyebrowScaleEv = __sdk_start + 0x000000000036c1fc;
_ZN2nn8settings6detail26GetQuestFlagForApplicationEPb = __sdk_start + 0x00000000003ba8a0;
_ZN2nn3ssl10Connection4ReadEPcj = __sdk_start + 0x00000000003c20c0;
_ZNSt3__113basic_istreamIcNS_11char_traitsIcEEE3getEv = __sdk_start + 0x000000000050ccd8;
nncodecLibopus_alg_unquant = __sdk_start + 0x0000000000265b60;
_ZN2nn2ec4json7adaptor11AdaptorBaseILi8ELi128EE10UpdateImplERKNS_4http4json8JsonPathILi8ELi128ELb0EEEd = __sdk_start + 0x00000000002fb79c;
_ZNKSt3__115__codecvt_utf16IDsLb1EE5do_inER11__mbstate_tPKcS5_RS5_PDsS7_RS7_ = __sdk_start + 0x0000000000541610;
_ZN2nn4util6detail7msgpack12WriteArray16EPNS0_17MessagePackWriter11StreamParamEt = __sdk_start + 0x00000000000803f0;
_ZNK2nn3mii6detail16Ver3StoreDataRaw11GetNoseTypeEv = __sdk_start + 0x000000000036e82c;
_ZN2nn2sf4cmif6client6detail13CmifProxyImplINS_4pctl6detail3ipc23IParentalControlServiceENS2_19CmifDomainProxyKindINS0_4hipc6client38Hipc2ClientSessionManagedProxyKindBaseINSB_18Hipc2ProxyKindBaseILNSA_6detail11MessageTypeE6EEEEEEENS0_30MemoryResourceAllocationPolicyES8_NS3_19ProcessModifierImplINS2_21DefaultProxyFilterTagEEEE40_nn_sf_sync_IsFreeCommunicationAvailableEv = __sdk_start + 0x000000000039f3f8;
_ZN2nn4time24GetElapsedSecondsBetweenEPlRKNS0_20SteadyClockTimePointES4_ = __sdk_start + 0x00000000003cd440;
_ZN2nn3hid6system27CheckFirmwareUpdateRequiredEPNS1_28FirmwareUpdateRequiredReasonENS1_11UniquePadIdE = __sdk_start + 0x00000000004aa010;
_ZNSt11logic_errorC1ERKS_ = __sdk_start + 0x00000000004fe7c0;
nndetailImagePng_png_get_y_pixels_per_meter = __sdk_start + 0x0000000000052d20;
nndetailImagePng_png_get_int_32 = __sdk_start + 0x000000000005f700;
_ZN2nn7nlibsdk17VsnPrintfFallbackEPwmPKwSt9__va_list = __sdk_start + 0x000000000010dea0;
_ZN2nn5audio6server16CommandGenerator23GenerateFinalMixCommandEv = __sdk_start + 0x0000000000211300;
nncodecLibopus_silk_shell_encoder = __sdk_start + 0x0000000000277ab0;
_ZTIN2nn2fs4save13ExclusiveFileE = __sdk_start + 0x0000000000ce69f0;
_ZN7android11IMemoryHeapD1Ev = __sdk_start + 0x0000000000163e70;
_ZN2nn2sf4cmif6client34CmifDomainProxyClientCoreProcessorINS0_4hipc6client38Hipc2ClientSessionManagedProxyKindBaseINS5_18Hipc2ProxyKindBaseILNS4_6detail11MessageTypeE6EEEEENS1_6detail14CoreMethodInfoINSt3__15tupleIJNSC_17InRawArgumentInfoILm4ELm4ELl0EEENSG_ILm4ELm4ELl4EEENSG_ILm4ELm4ELl8EEEEEELm12ELm0ELb0EEESK_E7ProcessEPNS2_23CmifDomainClientMessageISB_E15ProxyBaseObjectENS2_23InRawClientArgumentTypeILm4ELm4EvEESS_SS_j = __sdk_start + 0x00000000001c3dc0;
nvdcEnableCrc_v2 = __sdk_start + 0x00000000003e4ca0;
_ZNSt3__113basic_ostreamIcNS_11char_traitsIcEEE6sentryD2Ev = __sdk_start + 0x000000000050e234;
_ZN7android21SurfaceComposerClient8setFlagsERKNS_2spINS_7IBinderEEEjj = __sdk_start + 0x000000000018a5a4;
_ZN2nn2sf4cmif6client6detail13CmifProxyImplINS_2am7service18IDisplayControllerENS2_19CmifDomainProxyKindINS0_4hipc6client38Hipc2ClientSessionManagedProxyKindBaseINSA_18Hipc2ProxyKindBaseILNS9_6detail11MessageTypeE6EEEEEEENS0_30MemoryResourceAllocationPolicyES7_NS3_19ProcessModifierImplINS2_21DefaultProxyFilterTagEEEE38_nn_sf_sync_TakeScreenShotOfOwnLayerExEibb = __sdk_start + 0x00000000001b9b8c;
_ZN2nn4olsc6detail12ObjectHolderC1Ev = __sdk_start + 0x0000000000399fd0;
NvOsGetSysConfigString = __sdk_start + 0x00000000003ea4a0;
_ZN2nn7nlibsdk4heap14TlsHeapCentral23DestroySpanPageIfEmpty_EPNS1_8SpanPageEb = __sdk_start + 0x000000000011f000;
nnosReleaseSemaphore = __sdk_start + 0x000000000012fe60;
read = __sdk_start + 0x000000000008dbd0;
_ZN2nn2sf4cmif6client6detail13CmifProxyImplINS_2am7service15IStorageChannelENS2_19CmifDomainProxyKindINS0_4hipc6client38Hipc2ClientSessionManagedProxyKindBaseINSA_18Hipc2ProxyKindBaseILNS9_6detail11MessageTypeE6EEEEEEENS0_30MemoryResourceAllocationPolicyES7_NS3_19ProcessModifierImplINS2_21DefaultProxyFilterTagEEEE16_nn_sf_sync_PushENS0_13SharedPointerINS6_8IStorageEEE = __sdk_start + 0x00000000001b87a0;
_ZN2nn4pctl18GetCurrentSettingsEPNS0_19RestrictionSettingsE = __sdk_start + 0x000000000039c680;
lround = __sdk_start + 0x00000000005bbb60;
_ZN2nn2os16GetIdleTickCountEv = __sdk_start + 0x0000000000132060;
_ZN2nn5swkbd6detail18InlineKeyboardImpl15SetBalloonScaleEf = __sdk_start + 0x00000000003cb334;
_ZTVNSt12experimental19bad_optional_accessE = __sdk_start + 0x0000000000d21dc8;
_ZTVNSt3__115messages_bynameIwEE = __sdk_start + 0x0000000000d25218;
nndetailImageJpeg_jpeg_idct_16x8 = __sdk_start + 0x000000000003eeb0;
_ZN2nn5audio32GetAudioInputProcessMasterVolumeEPfNS_6applet20AppletResourceUserIdE = __sdk_start + 0x00000000001e03e0;
_ZN2nn2sf22UnmanagedServiceObjectINS_5audio6detail21IAudioRendererManagerENS2_6server24AudioRendererManagerImplEED0Ev = __sdk_start + 0x0000000000220bd0;
_ZN2nn2ec4json7adaptor11AdaptorBaseILi8ELi128EE10UpdateImplERKNS_4http4json8JsonPathILi8ELi128ELb0EEEm = __sdk_start + 0x00000000002fb794;
_ZN2nn7friends7ProfileC2Ev = __sdk_start + 0x0000000000344f08;
_ZN2nn2sf4cmif6client6detail13CmifProxyImplINS_4nifm6detail8IRequestENS2_19CmifDomainProxyKindINS0_4hipc6client38Hipc2ClientSessionManagedProxyKindBaseINSA_18Hipc2ProxyKindBaseILNS9_6detail11MessageTypeE6EEEEEEENS0_30MemoryResourceAllocationPolicyES7_NS3_19ProcessModifierImplINS2_21DefaultProxyFilterTagEEEE43_nn_sf_sync_SetConnectionConfirmationOptionEa = __sdk_start + 0x00000000003897fc;
_ZN2nn3hid12GetNpadStateEPNS0_13NpadLarkStateERKj = __sdk_start + 0x000000000049d5b0;
_ZTINSt3__120__time_get_c_storageIcEE = __sdk_start + 0x0000000000d244b8;
_ZN2nn2fs4save26SaveDataFileSystemCoreImpl19DoGetTotalSpaceSizeEPlRKNS0_4PathE = __sdk_start + 0x00000000000adfe0;
_ZN2nn2la4auth22ChangeParentalPasscodeEv = __sdk_start + 0x000000000035f9e0;
_ZN2nn6crypto6detail7AesImplILm24EED1Ev = __sdk_start + 0x000000000000ded0;
_ZTIN2nn2sf6detail38ObjectImplFactoryWithStatefulAllocatorINS0_4cmif6client6detail9CmifProxyINS_2am7service20IApplicationAccessorENS4_19CmifDomainProxyKindINS0_4hipc6client38Hipc2ClientSessionManagedProxyKindBaseINSC_18Hipc2ProxyKindBaseILNSB_6detail11MessageTypeE6EEEEEEENS0_30MemoryResourceAllocationPolicyENS5_19ProcessModifierImplINS4_21DefaultProxyFilterTagEEEvEESK_E6ObjectE = __sdk_start + 0x0000000000d00d08;
_ZN2nn5codec28GetOpusEncoderBitRateControlEPKNS0_15OpusEncoderTypeE = __sdk_start + 0x0000000000296580;
_ZN2nn2sf4cmif6client6detail13CmifProxyImplINS_2am7service16IAudioControllerENS2_19CmifDomainProxyKindINS0_4hipc6client38Hipc2ClientSessionManagedProxyKindBaseINSA_18Hipc2ProxyKindBaseILNS9_6detail11MessageTypeE6EEEEEEENS0_30MemoryResourceAllocationPolicyES7_NS3_19ProcessModifierImplINS2_21DefaultProxyFilterTagEEEE45_nn_sf_sync_GetMainAppletExpectedMasterVolumeENS0_3OutIfvEE = __sdk_start + 0x00000000001b9768;
nndetailImagePng_png_read_update_info = __sdk_start + 0x00000000000548e0;
_ZN2nn2fs4save26SaveDataFileSystemCoreImpl17OpenBaseDirectoryEPNSt3__110unique_ptrINS1_23IExclusiveDirectoryBaseENS3_14default_deleteIS5_EEEERKNS0_4PathENS0_17OpenDirectoryModeE = __sdk_start + 0x00000000000ab448;
_ZN2nn2sf13InterfaceInfoINS0_4hipc6detail12IHipcManagerEE4_tABINS5_5_tO2NINS2_6server2v134HipcServerSessionManagerWithDomain15HipcManagerImplEE4typeES4_E4type32_nn_sf_sync_CloneCurrentObjectExENS0_3OutINS0_12NativeHandleEvEEj = __sdk_start + 0x0000000000142c74;
_ZN22nerd_gillette_internal5otete7jaimev118DecodeIntensityROKERNS1_17IntensityInPacketEPKhmPm = __sdk_start + 0x00000000004c4d50;
_ZN2nn4util24ConvertStringUtf8ToUtf32EPDiiPKc = __sdk_start + 0x00000000000864f0;
_ZN2nn2sf4cmif6client6detail13CmifProxyImplINS_2am7service22IGlobalStateControllerENS2_19CmifDomainProxyKindINS0_4hipc6client38Hipc2ClientSessionManagedProxyKindBaseINSA_18Hipc2ProxyKindBaseILNS9_6detail11MessageTypeE6EEEEEEENS0_30MemoryResourceAllocationPolicyES7_NS3_19ProcessModifierImplINS2_21DefaultProxyFilterTagEEEE17GetCmifBaseObjectEv = __sdk_start + 0x00000000001bcc28;
_ZN2nn5audio6server38CommandProcessingTimeEstimatorVersion38EstimateERKNS0_30AdpcmDataSourceCommandVersion1E = __sdk_start + 0x0000000000213a30;
_ZN2nn2sf6detail38ObjectImplFactoryWithStatefulAllocatorINS0_4cmif6client6detail9CmifProxyINS_4nifm6detail8IRequestENS4_19CmifDomainProxyKindINS0_4hipc6client38Hipc2ClientSessionManagedProxyKindBaseINSC_18Hipc2ProxyKindBaseILNSB_6detail11MessageTypeE6EEEEEEENS0_30MemoryResourceAllocationPolicyENS5_19ProcessModifierImplINS4_21DefaultProxyFilterTagEEEvEESK_E6Object12AddReferenceEv = __sdk_start + 0x0000000000389710;
_ZN2nn2sf4hipc6client24Hipc2ClientCoreProcessorILNS1_6detail11MessageTypeE6ENS0_4cmif6detail14CoreMethodInfoINSt3__15tupleIJNS7_18OutRawArgumentInfoILm8ELm8ELl8EEENSB_ILm4ELm4ELl0EEENS7_17InRawArgumentInfoILm4ELm4ELl0EEENS7_18BufferArgumentInfoILi0ELi6ELm0EEEEEELm4ELm16ELb0EEESI_E7ProcessEPNS2_26Hipc2ClientProxyBaseObjectENS6_6client24OutRawClientArgumentTypeILm8ELm8EEENSO_ILm4ELm4EEENSN_23InRawClientArgumentTypeILm4ELm4EvEENSN_24BufferClientArgumentTypeEj = __sdk_start + 0x00000000003d893c;
_ZN2nn2sf4cmif6client6detail13CmifProxyImplINS_3hid10IHidServerENS0_4hipc6client18Hipc2ProxyKindBaseILNS7_6detail11MessageTypeE6EEENS0_30MemoryResourceAllocationPolicyES6_NS3_19ProcessModifierImplINS2_21DefaultProxyFilterTagEEEE50_nn_sf_sync_StoreSixAxisSensorCalibrationParameterENS_6applet20AppletResourceUserIdENS5_19SixAxisSensorHandleERKNS5_33SixAxisSensorCalibrationParameterE = __sdk_start + 0x00000000004aeac4;
_ZN2nn2sf4cmif6client34CmifDomainProxyClientCoreProcessorINS0_4hipc6client38Hipc2ClientSessionManagedProxyKindBaseINS5_18Hipc2ProxyKindBaseILNS4_6detail11MessageTypeE6EEEEENS1_6detail14CoreMethodInfoINSt3__15tupleIJNSC_18OutRawArgumentInfoILm4ELm4ELl0EEENSC_18BufferArgumentInfoILi0ELi6ELm0EEENSC_17InRawArgumentInfoILm8ELm8ELl8EEENSK_ILm4ELm4ELl0EEENSK_ILm4ELm4ELl4EEEEEELm16ELm4ELb0EEESO_E7ProcessEPNS2_23CmifDomainClientMessageISB_E15ProxyBaseObjectENS2_24OutRawClientArgumentTypeILm4ELm4EEENS2_24BufferClientArgumentTypeENS2_23InRawClientArgumentTypeILm8ELm8EvEENSY_ILm4ELm4EvEES10_j = __sdk_start + 0x00000000000c7630;
nncodecLibopus_silk_resampler_down2 = __sdk_start + 0x0000000000276db0;
_ZN2nn2oe31EnterExitRequestHandlingSectionEv = __sdk_start + 0x00000000003983c0;
_ZN2nn4cstd5IsInfEd = __sdk_start + 0x0000000000011f70;
_ZN2nn7account42NintendoAccountAuthorizationRequestContextC2EOS1_ = __sdk_start + 0x000000000019fc40;
_ZTIN2nn5audio6server10EffectInfoILNS0_10EffectTypeE3ENS0_14DelayParameterEEE = __sdk_start + 0x0000000000d053a8;
_ZN2nn2sf4cmif6client6detail13CmifProxyImplINS_3nsd6detail8IManagerENS0_4hipc6client18Hipc2ProxyKindBaseILNS8_6detail11MessageTypeE6EEENS0_30MemoryResourceAllocationPolicyES7_NS3_19ProcessModifierImplINS2_21DefaultProxyFilterTagEEEE50_nn_sf_sync_DeleteApplicationServerEnvironmentTypeEv = __sdk_start + 0x000000000039616c;
_ZN2nn4cstd5IsInfEe = __sdk_start + 0x0000000000011f30;
_ZNK2nn3mem17StandardAllocator18GetAllocatableSizeEv = __sdk_start + 0x0000000000126930;
nnsocketInetNtoa = __sdk_start + 0x0000000000147f60;
_ZN2nn2sf4cmif6client34CmifDomainProxyClientCoreProcessorINS0_4hipc6client38Hipc2ClientSessionManagedProxyKindBaseINS5_18Hipc2ProxyKindBaseILNS4_6detail11MessageTypeE6EEEEENS1_6detail14CoreMethodInfoINSt3__15tupleIJNSC_18BufferArgumentInfoILi0ELi22ELm16384EEEEEELm0ELm0ELb0EEESI_E7ProcessEPNS2_23CmifDomainClientMessageISB_E15ProxyBaseObjectENS2_24BufferClientArgumentTypeEj = __sdk_start + 0x00000000001bf210;
_ZN2nn5audio25EnableDspUsageMeasurementEv = __sdk_start + 0x00000000001e5eb0;
_ZN2nn5audio6server14MemoryPoolInfoC2ENS2_8LocationE = __sdk_start + 0x000000000021aba0;
NvMemoryProfilerBeginRealloc = __sdk_start + 0x00000000003e8b10;
_ZN2nn3hid6system22StartUsbFirmwareUpdateEv = __sdk_start + 0x00000000004aa0d0;
_ZN2nn2sf4cmif6client6detail36GetClientProcessorImplWithObjectBaseINS0_4hipc6client18Hipc2ProxyKindBaseILNS5_6detail11MessageTypeE6EEENS3_19ProcessModifierImplINS2_21DefaultProxyFilterTagEEEE14ObjectAssignerINS0_30MemoryResourceAllocationPolicyENS_14MemoryResourceEE14AllocateObjectINS_3ngc1t6detail7IObjectEEEvi = __sdk_start + 0x00000000004dea50;
nextafterf = __sdk_start + 0x00000000005c14e0;
_ZN2nn4cstd5IsInfEf = __sdk_start + 0x0000000000011f90;
_ZN2nn2sf4cmif6client6detail13CmifProxyImplINS_2am7service22ILibraryAppletAccessorENS2_19CmifDomainProxyKindINS0_4hipc6client38Hipc2ClientSessionManagedProxyKindBaseINSA_18Hipc2ProxyKindBaseILNS9_6detail11MessageTypeE6EEEEEEENS0_30MemoryResourceAllocationPolicyES7_NS3_19ProcessModifierImplINS2_21DefaultProxyFilterTagEEEE22_nn_sf_sync_PushInDataENS0_13SharedPointerINS6_8IStorageEEE = __sdk_start + 0x00000000001bbab8;
_ZTSN2nn5audio7capture6detail32SystemAudioCaptureServerImplBaseE = __sdk_start + 0x0000000000aef1ed;
_ZN2nn5audio12CloseAudioInEPNS0_7AudioInE = __sdk_start + 0x00000000001e7ff0;
_ZN2nn2sf4hipc6client24Hipc2ClientCoreProcessorILNS1_6detail11MessageTypeE6ENS0_4cmif6detail14CoreMethodInfoINSt3__15tupleIJNS7_18BufferArgumentInfoILi0ELi6ELm0EEENS7_18OutRawArgumentInfoILm1ELm1ELl0EEENS7_17InRawArgumentInfoILm8ELm8ELl0EEEEEELm8ELm1ELb1EEESH_E7ProcessEPNS2_26Hipc2ClientProxyBaseObjectENS6_6client24BufferClientArgumentTypeENSM_24OutRawClientArgumentTypeILm1ELm1EEENSM_23InRawClientArgumentTypeILm8ELm8EvEEj = __sdk_start + 0x0000000000248a4c;
_ZN2nn4timeltERKNS0_12CalendarTimeES3_ = __sdk_start + 0x00000000003ce240;
_ZN2nn2sf4cmif6client34CmifDomainProxyClientCoreProcessorINS0_4hipc6client38Hipc2ClientSessionManagedProxyKindBaseINS5_18Hipc2ProxyKindBaseILNS4_6detail11MessageTypeE6EEEEENS1_6detail14CoreMethodInfoINSt3__15tupleIJNSC_21OutObjectArgumentInfoILi0ELi0EEENSC_17InRawArgumentInfoILm16ELm8ELl8EEENSI_ILm1ELm1ELl0EEENSI_ILm8ELm8ELl24EEEEEELm32ELm0ELb0EEESM_E21ProcessWithOutObjectsEPNS2_23CmifDomainClientMessageISB_E15ProxyBaseObjectENS2_27OutObjectClientArgumentTypeENS2_23InRawClientArgumentTypeILm16ELm8EvEENSU_ILm1ELm1EvEENSU_ILm8ELm8EvEEjPNS0_13SharedPointerINS0_14IServiceObjectEEE = __sdk_start + 0x00000000000c8480;
_ZTIN2nn5fssrv2sf8IStorageE = __sdk_start + 0x0000000000ce7de8;
_ZN2nn2fs24HierarchicalRomFileTable8OpenFileEPNS0_11RomFileInfoEPKc = __sdk_start + 0x00000000000ec230;
nnmem_nlib_mq_receive_until = __sdk_start + 0x000000000010b7a0;
pthread_setspecific = __sdk_start + 0x0000000000139470;
_ZN2nn9bluetooth3hal12OpenAudioOutEPjRKNS0_7AddressE = __sdk_start + 0x000000000023a970;
NvRmSyncMergeAndClose = __sdk_start + 0x00000000003f7590;
NvRmGpuDeviceSchedulingDomainCreate = __sdk_start + 0x00000000004374c0;
_ZN2nn3hid6system28GetUniquePadBluetoothAddressEPNS_9bluetooth7AddressENS1_11UniquePadIdE = __sdk_start + 0x00000000004abc10;
_ZN2nn3web18WebPageReturnValue8DataSizeE = __sdk_start + 0x0000000000b5a4a0;
_ZN2nn2fs21WritableRomFileSystem15FileInfoManager17FreeAreaAllocator8AllocateEll = __sdk_start + 0x00000000000b68f0;
_ZN2nn2fs6detail31ReadSaveDataFileSystemExtraDataEPNS0_17SaveDataExtraDataEm = __sdk_start + 0x00000000000db3b0;
_ZN3nne4nlib11InputStream4MarkEm = __sdk_start + 0x000000000015f7ac;
NvOsMutexDestroy = __sdk_start + 0x00000000003f0fd0;
_ZN2nn3hid6detail18GetNpadJoyHoldTypeEPNS0_15NpadJoyHoldTypeE = __sdk_start + 0x0000000000490560;
_ZTIN2nn2fs6detail30FileSystemServiceObjectAdapterE = __sdk_start + 0x0000000000ce9918;
_ZN2nn5audio6common13SampleCounter5ResetEv = __sdk_start + 0x00000000001dc7b0;
_ZN2nn3mii6detail15BufferAllocator7AdvanceEm = __sdk_start + 0x0000000000364db4;
_ZN2nn4edid6detail23DisplayDataBlockVisitorEPKhmNS0_6cea8618BlockTagEPv = __sdk_start + 0x0000000000012920;
_ZN2nn2sf6detail38ObjectImplFactoryWithStatefulAllocatorINS0_4cmif6client6detail9CmifProxyINS_2ec23IContentsServiceManagerENS0_4hipc6client18Hipc2ProxyKindBaseILNS9_6detail11MessageTypeE6EEENS0_30MemoryResourceAllocationPolicyENS5_19ProcessModifierImplINS4_21DefaultProxyFilterTagEEEvEESF_E6Object12AddReferenceEv = __sdk_start + 0x00000000001c8228;
_ZN2nn5audio13UpsamplerInfoC2Ev = __sdk_start + 0x00000000001e0018;
nextafterl = __sdk_start + 0x00000000005c1580;
_ZN2nn3nfc6client16GetUserInterfaceEv = __sdk_start + 0x000000000037e8f0;
_ZN2nn3ssl14ContextPrivate15ImportClientPkiEPmPKcS4_jjNS0_17CertificateFormatE = __sdk_start + 0x00000000003c42d0;
_ZZN2nn2sf31SimpleAllInOneHipcClientManagerILm10EE27InitializeShimLibraryHolderINS_5visrv2sf18ISystemRootServiceENS0_4cmif6client6detail19ProcessModifierImplINS8_21DefaultProxyFilterTagEEEEENS_6ResultEPNS0_23ShimLibraryObjectHolderIT_EEPKcPNS_14MemoryResourceEENUlPNS0_13SharedPointerIS6_EEE_clESO_ = __sdk_start + 0x00000000003d68b4;
_ZNSt19bad_optional_accessD2Ev = __sdk_start + 0x00000000004fa904;
_ZN2nn4util14AsyncExecutionC1EPNS0_10ExecutableE = __sdk_start + 0x0000000000160958;
_ZN2nn2sf4cmif6client6detail13CmifProxyImplINS_2am7service18ICommonStateGetterENS2_19CmifDomainProxyKindINS0_4hipc6client38Hipc2ClientSessionManagedProxyKindBaseINSA_18Hipc2ProxyKindBaseILNS9_6detail11MessageTypeE6EEEEEEENS0_30MemoryResourceAllocationPolicyES7_NS3_19ProcessModifierImplINS2_21DefaultProxyFilterTagEEEE30_nn_sf_sync_GetPerformanceModeENS0_3OutIjvEE = __sdk_start + 0x00000000001b6bd4;
_ZN2nn3mii6detail16Ver3StoreDataRaw12SetReserved2Ei = __sdk_start + 0x0000000000375c14;
remque = __sdk_start + 0x00000000005a6e10;
_ZN2nn6crypto6detail21DigitsFromOctetStringEPjmPKvm = __sdk_start + 0x0000000000007e90;
_ZN2nn2sf4cmif6client6detail13CmifProxyImplINS_7friends6detail3ipc14IFriendServiceENS2_19CmifDomainProxyKindINS0_4hipc6client38Hipc2ClientSessionManagedProxyKindBaseINSB_18Hipc2ProxyKindBaseILNSA_6detail11MessageTypeE6EEEEEEENS0_30MemoryResourceAllocationPolicyES8_NS3_19ProcessModifierImplINS2_21DefaultProxyFilterTagEEEE35_nn_sf_sync_GetSnsAccountFriendListENS0_3OutIivEERKNS0_8OutArrayINS6_20SnsAccountFriendImplEEERKNS_7account3UidEi = __sdk_start + 0x0000000000346fd4;
nnutilZlib_deflateSetDictionary = __sdk_start + 0x0000000000071320;
_ZNK2nn3err48MinorsProtectionWarningForPlatformRegionChinaArg16GetDialogMessageEv = __sdk_start + 0x00000000002fcdf0;
_ZN2nn5async6detail18ExecutionScheduler7IsEmptyEv = __sdk_start + 0x0000000000087f50;
_ZN2nn5audio6common10NodeStates16DepthFirstSearchERS2_RNS1_10EdgeMatrixERNS2_5StackE = __sdk_start + 0x00000000001dca90;
nncodecLibopus_downmix_float = __sdk_start + 0x0000000000284620;
_ZN2nn3ntc4shim31CorrectionNetworkClockAsyncTask26GetFinishNotificationEventEv = __sdk_start + 0x00000000003d45ec;
NvRmMemHandleFromImportId = __sdk_start + 0x00000000003fa2f0;
_ZNSt3__113basic_filebufIcNS_11char_traitsIcEEE4swapERS3_ = __sdk_start + 0x0000000000516514;
_ZTVNSt3__115time_get_bynameIwNS_19istreambuf_iteratorIwNS_11char_traitsIwEEEEEE = __sdk_start + 0x0000000000d24750;
__aarch64_cas1_acq = __sdk_start + 0x000000000057c380;
_ZTIN2nn5fssrv2sf11IFileSystemE = __sdk_start + 0x0000000000ce7a70;
_ZN2nn2sf6detail21DefaultDeallocateImplEPvmmm = __sdk_start + 0x000000000013e450;
_ZN2nn7account42NintendoAccountAuthorizationRequestContextD2Ev = __sdk_start + 0x000000000019fc80;
_ZTSN2nn2sf4cmif6client6detail9CmifProxyINS_2am7service31ISystemAppletControllerForDebugENS2_19CmifDomainProxyKindINS0_4hipc6client38Hipc2ClientSessionManagedProxyKindBaseINSA_18Hipc2ProxyKindBaseILNS9_6detail11MessageTypeE6EEEEEEENS0_30MemoryResourceAllocationPolicyENS3_19ProcessModifierImplINS2_21DefaultProxyFilterTagEEEvEE = __sdk_start + 0x0000000000ae7b7c;
_ZN2nn8settings6system7GetEdidEPNS1_4EdidE = __sdk_start + 0x00000000003b0280;
_Z22nvndetailUseMiddleWarev = __sdk_start + 0x000000000048d020;
nndetailImagePng_png_set_iCCP = __sdk_start + 0x0000000000066030;
_ZN2nn2sf4cmif6client6detail13CmifProxyImplINS_6grcsrv11IMovieMakerENS2_19CmifDomainProxyKindINS0_4hipc6client38Hipc2ClientSessionManagedProxyKindBaseINS9_18Hipc2ProxyKindBaseILNS8_6detail11MessageTypeE6EEEEEEENS0_30MemoryResourceAllocationPolicyES6_NS3_19ProcessModifierImplINS2_21DefaultProxyFilterTagEEEE34_nn_sf_sync_GetOffscreenLayerErrorEm = __sdk_start + 0x00000000001c3994;
_ZN2nn5audio13ResetAuxDelayEPNS0_12AuxDelayTypeE = __sdk_start + 0x00000000001d0050;
_ZN2nn5audio6server38CommandProcessingTimeEstimatorVersion38EstimateERKNS0_26TDataSourceCommandVersion2ILNS0_9CommandIdE2EEE = __sdk_start + 0x000000000021394c;
hcreate = __sdk_start + 0x00000000005a6950;
_ZN2nn5audio6server17AudioRenderSystem16SendCommandToDspEv = __sdk_start + 0x000000000020c62c;
_ZNKSt3__110moneypunctIwLb0EE16do_negative_signEv = __sdk_start + 0x000000000052abb0;
thrd_create = __sdk_start + 0x0000000000581490;
nnmem_nlib_condrwlock_broadcast = __sdk_start + 0x0000000000104750;
_ZNK2nn2os6detail11VammManager29IsVirtualAddressMemoryEnabledEv = __sdk_start + 0x00000000001346dc;
nnsocketInetNtop = __sdk_start + 0x0000000000147f40;
_ZTIN2nn2sf4cmif6client6detail9CmifProxyINS_2am7service15IDebugFunctionsENS2_19CmifDomainProxyKindINS0_4hipc6client38Hipc2ClientSessionManagedProxyKindBaseINSA_18Hipc2ProxyKindBaseILNS9_6detail11MessageTypeE6EEEEEEENS0_30MemoryResourceAllocationPolicyENS3_19ProcessModifierImplINS2_21DefaultProxyFilterTagEEEvEE = __sdk_start + 0x0000000000d00090;
_ZN7android11BufferQueue21ProxyConsumerListenerC1ERKNS_2wpINS_16ConsumerListenerEEE = __sdk_start + 0x00000000001741c4;
_ZN2nn9bluetooth3hal28DeleteBleScanFilterConditionERKNS1_18BleAdvertiseFilterE = __sdk_start + 0x000000000023c680;
_ZN2nn8settings6system28GetHeadphoneVolumeUpdateFlagEv = __sdk_start + 0x00000000003acff0;
_ZNK2nn5audio12SplitterInfo15GetChannelCountEv = __sdk_start + 0x00000000001da898;
_ZN2nn5codec44DecodeOpusMultiStreamInterleavedWithHardwareEPNS0_34HardwareOpusMultiStreamDecoderTypeEPmPiPsmPKvm = __sdk_start + 0x0000000000299d20;
_ZNK2nn3mii16CharInfoAccessor15GetFacelineTypeEv = __sdk_start + 0x00000000003623e8;
_ZN2nn4edid6detail13GetVideoSetupEh = __sdk_start + 0x0000000000012840;
_ZTSN2nn5audio6server24AudioRendererManagerImplE = __sdk_start + 0x0000000000aefca1;
_ZN2nn2sf4cmif6client6detail13CmifProxyImplINS_3hid16IHidSystemServerENS0_4hipc6client18Hipc2ProxyKindBaseILNS7_6detail11MessageTypeE6EEENS0_30MemoryResourceAllocationPolicyES6_NS3_19ProcessModifierImplINS2_21DefaultProxyFilterTagEEEE29_nn_sf_sync_GetPlatformConfigENS0_3OutINS5_6server14PlatformConfigEvEE = __sdk_start + 0x00000000004b5914;
remquo = __sdk_start + 0x00000000005c19f0;
_ZN2nn2sf4hipc6client24Hipc2ClientCoreProcessorILNS1_6detail11MessageTypeE6ENS0_4cmif6detail14CoreMethodInfoINSt3__15tupleIJNS7_18OutRawArgumentInfoILm4ELm4ELl0EEENSB_ILm4ELm4ELl4EEENS7_18BufferArgumentInfoILi0ELi6ELm0EEENSE_ILi1ELi6ELm0EEENSE_ILi2ELi6ELm0EEENS7_17InRawArgumentInfoILm4ELm4ELl0EEEEEELm4ELm8ELb0EEESK_E7ProcessEPNS2_26Hipc2ClientProxyBaseObjectENS6_6client24OutRawClientArgumentTypeILm4ELm4EEESR_NSP_24BufferClientArgumentTypeESS_SS_NSP_23InRawClientArgumentTypeILm4ELm4EvEEj = __sdk_start + 0x00000000003552f8;
_ZN2nn3ssl6detail10SslApiBaseC1Ev = __sdk_start + 0x00000000003c48f4;
_ZNSt3__17promiseIvED1Ev = __sdk_start + 0x00000000004f9040;
_ZN2nn2fs31SaveDataTransferManagerVersion224OpenSaveDataFullExporterEPNSt3__110unique_ptrINS0_25ISaveDataDivisionExporterENS2_14default_deleteIS4_EEEENS0_15SaveDataSpaceIdEm = __sdk_start + 0x00000000000f6dac;
_ZN2nn2fs31SaveDataTransferManagerVersion220OpenSaveDataImporterEPNSt3__110unique_ptrINS0_25ISaveDataDivisionImporterENS2_14default_deleteIS4_EEEERKNS0_19InitialDataVersion2ENS0_15SaveDataSpaceIdEb = __sdk_start + 0x00000000000f7660;
_ZN2nn5swkbd6detail18InlineKeyboardImpl16CalcMovedCursor_ENS_6applet13StorageHandleEm = __sdk_start + 0x00000000003cbbac;
_ZN2nn3hid6detail20GetSensorFusionErrorEPf = __sdk_start + 0x000000000048dba0;
_ZNSt3__18ios_base9uppercaseE = __sdk_start + 0x0000000000b781e8;
_ZN2nn2sf4cmif6client6detail13CmifProxyImplINS_2am7service26ILibraryAppletSelfAccessorENS2_19CmifDomainProxyKindINS0_4hipc6client38Hipc2ClientSessionManagedProxyKindBaseINSA_18Hipc2ProxyKindBaseILNS9_6detail11MessageTypeE6EEEEEEENS0_30MemoryResourceAllocationPolicyES7_NS3_19ProcessModifierImplINS2_21DefaultProxyFilterTagEEEE38_nn_sf_sync_GetDesirableKeyboardLayoutENS0_3OutIjvEE = __sdk_start + 0x00000000001bef18;
TYPESET_clear = __sdk_start + 0x0000000000340c80;
_ZN2nn3mii6detail12StoreDataRaw9SetGenderEi = __sdk_start + 0x000000000036c7b8;
_ZN2nn2sf4cmif6client6detail13CmifProxyImplINS_8settings21ISystemSettingsServerENS0_4hipc6client18Hipc2ProxyKindBaseILNS7_6detail11MessageTypeE6EEENS0_30MemoryResourceAllocationPolicyES6_NS3_19ProcessModifierImplINS2_21DefaultProxyFilterTagEEEE35_nn_sf_sync_SetAutoUpdateEnableFlagEb = __sdk_start + 0x00000000003bb8dc;
_ZN2nn3hid6system6detail10HasBatteryEPbS3_RKj = __sdk_start + 0x00000000004a7f10;
nnosGetMultiWaitHolderUserData = __sdk_start + 0x0000000000130370;
_ZN7android8Composer7setSizeERKNS_2spINS_21SurfaceComposerClientEEERKNS1_INS_7IBinderEEEjj = __sdk_start + 0x0000000000189348;
_ZNSt3__111__money_putIwE8__formatEPwRS2_S3_jPKwS5_RKNS_5ctypeIwEEbRKNS_10money_base7patternEwwRKNS_12basic_stringIcNS_11char_traitsIcEENS_9allocatorIcEEEERKNSE_IwNSF_IwEENSH_IwEEEESQ_i = __sdk_start + 0x0000000000531230;
_ZNSt3__17codecvtIcc11__mbstate_tED0Ev = __sdk_start + 0x000000000053e4c4;
_ZN2nn3btm4user18GetGattDescriptorsEPNS1_14GattDescriptorEhjt = __sdk_start + 0x0000000000247c10;
_ZN2nn5audio17MemoryPoolManager17GetWorkBufferSizeERKNS0_22AudioRendererParameterE = __sdk_start + 0x00000000001d7a9c;
_ZN2nn4diag13OnResultCatchENS_6ResultERKNS0_10SourceInfoE = __sdk_start + 0x0000000000096b40;
_ZN2nn2am17GetDebugFunctionsEv = __sdk_start + 0x00000000001b1fd0;
_ZZN2nn2sf40SimpleAllInOneHipcSubDomainClientManagerILm100EE27InitializeShimLibraryHolderINS_2am7service24IApplicationProxyServiceENS0_4cmif6client6detail19ProcessModifierImplINS8_21DefaultProxyFilterTagEEEEENS_6ResultEPNS0_23ShimLibraryObjectHolderIT_EEPKcPNS_14MemoryResourceEENKUlPvE_clESM_ = __sdk_start + 0x00000000001c5f28;
_ZN2nn2ec21BeginConsumeRightDataEPNS0_19ShopServiceAccessor13AsyncResponseERKNS_7account3UidEPKNS0_30ConsumableServiceItemRightDataEiPS1_PNS_3mem17StandardAllocatorE = __sdk_start + 0x00000000002ee4e0;
_ZN2nn3err13ContextReaderC1EOS1_ = __sdk_start + 0x00000000002ff54c;
_ZN2nn6crypto6detail8p256_mulEPNS1_10p256_pointEPKjiPKS2_PKNS1_10p256_curveE = __sdk_start + 0x00000000000092d0;
_ZN2nn3err13MakeErrorCodeEjj = __sdk_start + 0x00000000002fb9f0;
_ZN2nn8settings6detail29GetDeviceTimeZoneLocationNameEPNS_4time12LocationNameE = __sdk_start + 0x00000000003bea60;
_ZN2nn8settings6system14SetZoomEnabledEb = __sdk_start + 0x00000000003b08f0;
nnmem_nlib_free_size = __sdk_start + 0x0000000000119dc0;
_ZN2nn7friends18GetBlockedUserListEPiPNS_7account23NetworkServiceAccountIdEii = __sdk_start + 0x0000000000342700;
_ZN2nn2sf4cmif6client6detail13CmifProxyImplINS_5prepo6detail3ipc13IAsyncContextENS2_19CmifDomainProxyKindINS0_4hipc6client38Hipc2ClientSessionManagedProxyKindBaseINSB_18Hipc2ProxyKindBaseILNSA_6detail11MessageTypeE6EEEEEEENS0_30MemoryResourceAllocationPolicyES8_NS3_19ProcessModifierImplINS2_21DefaultProxyFilterTagEEEE18_nn_sf_sync_CancelEv = __sdk_start + 0x00000000003aa9fc;
_ZN2nn8settings7factory32GetConsoleSixAxisSensorMountTypeEPh = __sdk_start + 0x00000000003aef70;
_ZN2nn6crypto18GenerateSha256HashEPvmPKvm = __sdk_start + 0x00000000000045a0;
nncodecLibopus_alg_quant = __sdk_start + 0x00000000002658c0;
nnmem_nlib_remove = __sdk_start + 0x00000000001197b0;
systemTime = __sdk_start + 0x00000000001954a0;
_ZN2nn3aoc29GetRegisteredAddOnContentPathENS_4SpanIcEEi = __sdk_start + 0x00000000001c6740;
_ZN2nn5audio6server38CommandProcessingTimeEstimatorVersion18EstimateERKNS0_26TDataSourceCommandVersion2ILNS0_9CommandIdE4EEE = __sdk_start + 0x00000000002129ec;
_ZN2nn2sf4cmif6client6detail13CmifProxyImplINS_5visrv2sf23IApplicationRootServiceENS0_4hipc6client18Hipc2ProxyKindBaseILNS8_6detail11MessageTypeE6EEENS0_30MemoryResourceAllocationPolicyES7_NS3_19ProcessModifierImplINS2_21DefaultProxyFilterTagEEEE43_nn_sf_sync_GetDisplayServiceWithWorkaroundENS0_3OutINS0_13SharedPointerINS6_26IApplicationDisplayServiceEEEvEEj = __sdk_start + 0x00000000003dc300;
_ZNSt3__112basic_stringIcNS_11char_traitsIcEEN2nn2fs23MemoryResourceAllocatorIcEEE9push_backEc = __sdk_start + 0x00000000000b64e0;
getpid = __sdk_start + 0x00000000005822f0;
_ZN2nn3apm15SetCpuBoostModeENS0_12CpuBoostModeE = __sdk_start + 0x00000000001ca360;
_ZN2nn5audio6server9DelayInfo26UpdateForCommandGenerationEv = __sdk_start + 0x0000000000219a44;
_ZN2nn8irsensor6detail15IrSensorSession11CreateProxyEv = __sdk_start + 0x00000000004c1c20;
_ZN2nn2sf4cmif6client6detail13CmifProxyImplINS_2am7service31ISystemAppletControllerForDebugENS2_19CmifDomainProxyKindINS0_4hipc6client38Hipc2ClientSessionManagedProxyKindBaseINSA_18Hipc2ProxyKindBaseILNS9_6detail11MessageTypeE6EEEEEEENS0_30MemoryResourceAllocationPolicyES7_NS3_19ProcessModifierImplINS2_21DefaultProxyFilterTagEEEE44_nn_sf_sync_RequestLaunchApplicationForDebugENS_3ncm13ApplicationIdERKNS0_7InArrayINS_7account3UidEEE = __sdk_start + 0x00000000001c4d1c;
_ZN2nn5codec50GetHardwareOpusMultiStreamDecoderStereoStreamCountEPKNS0_34HardwareOpusMultiStreamDecoderTypeE = __sdk_start + 0x0000000000299d10;
_ZN2nn5audio26SetAudioDeviceOutputVolumeEPKNS0_15AudioDeviceNameEf = __sdk_start + 0x00000000001e5c80;
_ZN2nn3ssl10Connection19SetSocketDescriptorEi = __sdk_start + 0x00000000003c11a4;
_ZN2nn6crypto6detail10CbcMacImpl6GetMacEPvm = __sdk_start + 0x00000000000081f8;
__eqtf2 = __sdk_start + 0x000000000056f170;
nndetailImagePng_png_get_iCCP = __sdk_start + 0x0000000000053820;
_ZN2nn5audio6server17AudioRenderSystem15GenerateCommandEPvm = __sdk_start + 0x000000000020c374;
_ZN2nn2sf4cmif6client6detail13CmifProxyImplINS_4pctl6detail3ipc23IParentalControlServiceENS2_19CmifDomainProxyKindINS0_4hipc6client38Hipc2ClientSessionManagedProxyKindBaseINSB_18Hipc2ProxyKindBaseILNSA_6detail11MessageTypeE6EEEEEEENS0_30MemoryResourceAllocationPolicyES8_NS3_19ProcessModifierImplINS2_21DefaultProxyFilterTagEEEE32_nn_sf_sync_IsRestrictionEnabledENS0_3OutIbvEE = __sdk_start + 0x000000000039f404;
_ZN2nn8settings6system28SetNetworkSystemClockContextERKNS_4time18SystemClockContextE = __sdk_start + 0x00000000003adbe0;
_ZNSt3__113basic_istreamIwNS_11char_traitsIwEEE5seekgExNS_8ios_base7seekdirE = __sdk_start + 0x0000000000512f88;
_ZN2nn7account6detail18OAuthProcedureBase13ApplyResponseEPKcm = __sdk_start + 0x0000000000198c10;
_ZN22nerd_gillette_internal5otete11ImageCodec213DecodeInPlaceIhEEbRKNS_15StaticImageViewIT_EERNS0_14InputBitStreamEf = __sdk_start + 0x00000000004ced4c;
_ZTSN2nn7account4http15IOAuthProcedureE = __sdk_start + 0x0000000000adb327;
_ZN2nn5audio6server38CommandProcessingTimeEstimatorVersion38EstimateERKNS0_17VolumeRampCommandE = __sdk_start + 0x0000000000213d40;
_ZN2nn3err6detail18ContextSeriesArrayD1Ev = __sdk_start + 0x0000000000302370;
_ZN2nn8settings6detail28GetInRepairProcessEnableFlagEPb = __sdk_start + 0x00000000003b2280;
_ZN2nn3grc14StartMovieFileEPNS0_10MovieLayerERKNS0_27OffscreenRecordingParameterE = __sdk_start + 0x0000000000351b80;
_ZN2nn2sf4cmif6client6detail13CmifProxyImplINS_2am7service21IApplicationFunctionsENS2_19CmifDomainProxyKindINS0_4hipc6client38Hipc2ClientSessionManagedProxyKindBaseINSA_18Hipc2ProxyKindBaseILNS9_6detail11MessageTypeE6EEEEEEENS0_30MemoryResourceAllocationPolicyES7_NS3_19ProcessModifierImplINS2_21DefaultProxyFilterTagEEEE46_nn_sf_sync_CreateApplicationAndRequestToStartENS_3ncm13ApplicationIdE = __sdk_start + 0x00000000001c1798;
_ZN2nn2sf4hipc6client24Hipc2ClientCoreProcessorILNS1_6detail11MessageTypeE6ENS0_4cmif6detail14CoreMethodInfoINSt3__15tupleIJNS7_18OutRawArgumentInfoILm4ELm4ELl0EEENS7_18BufferArgumentInfoILi0ELi22ELm256EEENSD_ILi1ELi21ELm256EEEEEELm0ELm4ELb0EEESG_E7ProcessEPNS2_26Hipc2ClientProxyBaseObjectENS6_6client24OutRawClientArgumentTypeILm4ELm4EEENSL_24BufferClientArgumentTypeESO_j = __sdk_start + 0x00000000003968bc;
__aarch64_ldclr2_rel = __sdk_start + 0x000000000057ce70;
_ZNK2nn5image13ExifExtractor12ExtractMakerEPm = __sdk_start + 0x000000000004b670;
_ZN2nn2os18DestroySystemEventEPNS0_15SystemEventTypeE = __sdk_start + 0x000000000012bb40;
_ZN2nn6socket6detail26DestroyClientMonitorByHipcEPNS_2sf13SharedPointerINS0_2sf10IClient_MCEEE = __sdk_start + 0x0000000000152950;
_ZNK2nn2ec19ShopServiceAccessor11IsAvailableEv = __sdk_start + 0x00000000002f45a0;
NvTegraSysGetChipIdRev = __sdk_start + 0x00000000004056f0;
_ZN2nn2sf4cmif6client6detail13CmifProxyImplINS_3hid15IHidDebugServerENS0_4hipc6client18Hipc2ProxyKindBaseILNS7_6detail11MessageTypeE6EEENS0_30MemoryResourceAllocationPolicyES6_NS3_19ProcessModifierImplINS2_21DefaultProxyFilterTagEEEE27_nn_sf_sync_GetGyroscopeOdrENS0_3OutINS5_5debug12GyroscopeOdrEvEENS_6applet20AppletResourceUserIdE = __sdk_start + 0x00000000004b2e1c;
iconv_close = __sdk_start + 0x00000000005a2610;
_ZNK2nn2vi21LayerCreationSettings9IsVisibleEv = __sdk_start + 0x00000000003e3fe4;
_ZN2nn2sf4cmif6client6detail13CmifProxyImplINS_3hid10IHidServerENS0_4hipc6client18Hipc2ProxyKindBaseILNS7_6detail11MessageTypeE6EEENS0_30MemoryResourceAllocationPolicyES6_NS3_19ProcessModifierImplINS2_21DefaultProxyFilterTagEEEE38_nn_sf_sync_GetAccelerometerParametersENS0_3OutIfvEESJ_NS_6applet20AppletResourceUserIdENS5_19SixAxisSensorHandleE = __sdk_start + 0x00000000004ae9f8;
_ZN2nn5codec7FDKsqrtEd = __sdk_start + 0x00000000002eaa50;
_ZNK2nn12notification12AlarmSetting29GetWeeklyScheduleAlarmSettingEv = __sdk_start + 0x000000000038ef14;
_ZN2nn4diag9BacktraceC2EPKNS_2os9FiberTypeE = __sdk_start + 0x0000000000098c64;
_ZN2nn4util15FileInputStream9SetBufferEPvm = __sdk_start + 0x0000000000160c30;
_ZTIN2nn2am7service13ILockAccessorE = __sdk_start + 0x0000000000cff130;
_ZN2nn3hid27EnablePairedPalmaConnectionEv = __sdk_start + 0x000000000049db60;
_ZNSt3__111__libcpp_db16__invalidate_allEPv = __sdk_start + 0x0000000000509260;
_ZNSt3__115basic_stringbufIcNS_11char_traitsIcEENS_9allocatorIcEEEC2EOS5_ = __sdk_start + 0x0000000000514d80;
_ZTIN2nn6jitsrv19IJitEnvironmentBaseE = __sdk_start + 0x0000000000d0c018;
_ZN2nn2sf4cmif6client6detail13CmifProxyImplINS_8settings21ISystemSettingsServerENS0_4hipc6client18Hipc2ProxyKindBaseILNS7_6detail11MessageTypeE6EEENS0_30MemoryResourceAllocationPolicyES6_NS3_19ProcessModifierImplINS2_21DefaultProxyFilterTagEEEE53_nn_sf_sync_GetButtonConfigRegisteredSettingsEmbeddedENS0_3OutINS5_6system30ButtonConfigRegisteredSettingsEvEE = __sdk_start + 0x00000000003bbee0;
_ZN2nn3hid15InitializePalmaERKNS0_21PalmaConnectionHandleE = __sdk_start + 0x000000000049d8c0;
_ZNSt3__113basic_filebufIcNS_11char_traitsIcEEE8overflowEi = __sdk_start + 0x0000000000516bd0;
_ZN2nn2fs8OpenFileEPNS0_10FileHandleEONSt3__110unique_ptrINS0_3fsa5IFileENS3_14default_deleteIS6_EEEEi = __sdk_start + 0x00000000000a4270;
_ZN2nn4nifm28IsAnyInternetRequestAcceptedENS0_8ClientIdE = __sdk_start + 0x000000000038cda0;
_ZN2nn7account21BeginUserRegistrationEPNS0_3UidE = __sdk_start + 0x000000000019b260;
_ZNKSt3__18numpunctIcE12do_falsenameEv = __sdk_start + 0x0000000000542a50;
_ZN2nn2fs9IsSubPathEPKcS2_ = __sdk_start + 0x00000000000f28a0;
_ZN2nn8settings6detail22ResetSettingsItemValueEPKcS3_ = __sdk_start + 0x00000000003ac930;
_ZN2nn3hid6detail20SharedMemoryAccessorD1Ev = __sdk_start + 0x000000000049547c;
_ZNKSt3__115__codecvt_utf16IDsLb0EE10do_unshiftER11__mbstate_tPcS4_RS4_ = __sdk_start + 0x0000000000541490;
nndetailImagePng_png_sig_cmp = __sdk_start + 0x000000000004c440;
nnmem_nlib_strnlen = __sdk_start + 0x000000000011afd0;
_ZN2nn5audio6common13SampleCounter3AddEj = __sdk_start + 0x00000000001dc784;
_ZN2nn5audio6server13CommandBuffer8GenerateINS1_7command6ReverbEJRiRPKNS0_15ReverbParameterERPvbRbbRmEEEPNT_3DefEjDpOT0_ = __sdk_start + 0x000000000020fa60;
_ZN2nn2sf4cmif6client6detail13CmifProxyImplINS_2am7service11IMovieMakerENS2_19CmifDomainProxyKindINS0_4hipc6client38Hipc2ClientSessionManagedProxyKindBaseINSA_18Hipc2ProxyKindBaseILNS9_6detail11MessageTypeE6EEEEEEENS0_30MemoryResourceAllocationPolicyES7_NS3_19ProcessModifierImplINS2_21DefaultProxyFilterTagEEEE26_nn_sf_sync_GetLayerHandleENS0_3OutImvEE = __sdk_start + 0x00000000001c36d4;
_ZNK2nn3mii6detail11CoreDataRaw12GetMoleScaleEv = __sdk_start + 0x0000000000369658;
_ZN2nn2sf4cmif6client6detail13CmifProxyImplINS_8settings21ISystemSettingsServerENS0_4hipc6client18Hipc2ProxyKindBaseILNS7_6detail11MessageTypeE6EEENS0_30MemoryResourceAllocationPolicyES6_NS3_19ProcessModifierImplINS2_21DefaultProxyFilterTagEEEE34_nn_sf_sync_GetBluetoothEnableFlagENS0_3OutIbvEE = __sdk_start + 0x00000000003bb878;
NvRmGpuProfilerV2VabFlush = __sdk_start + 0x0000000000435f50;
_ZN2nn2sf4cmif6client6detail13CmifProxyImplINS_3hid10IHidServerENS0_4hipc6client18Hipc2ProxyKindBaseILNS7_6detail11MessageTypeE6EEENS0_30MemoryResourceAllocationPolicyES6_NS3_19ProcessModifierImplINS2_21DefaultProxyFilterTagEEEE44_nn_sf_sync_ClearNpadCaptureButtonAssignmentENS_6applet20AppletResourceUserIdE = __sdk_start + 0x00000000004aeca0;
_ZNSt3__18ios_base34__set_failbit_and_consider_rethrowEv = __sdk_start + 0x000000000050af14;
_ZTIN2nn5audio7capture6detail32SystemAudioCaptureServerImplBaseE = __sdk_start + 0x0000000000d04608;
_ZN2nn5audio33ContainsFinalOutputRecorderBufferEPKNS0_19FinalOutputRecorderEPKNS0_25FinalOutputRecorderBufferE = __sdk_start + 0x00000000001eb840;
_ZN2nn2sf4cmif6client6detail13CmifProxyImplINS_8settings22IFactorySettingsServerENS0_4hipc6client18Hipc2ProxyKindBaseILNS7_6detail11MessageTypeE6EEENS0_30MemoryResourceAllocationPolicyES6_NS3_19ProcessModifierImplINS2_21DefaultProxyFilterTagEEEE36_nn_sf_sync_GetEciDeviceCertificate2ENS0_3OutINS5_7factory24Rsa2048DeviceCertificateEvEE = __sdk_start + 0x00000000003b3ec8;
NvRmMemRead = __sdk_start + 0x00000000003f9d70;
_ZN2nn2os6detail25SharedMemoryImplByHorizon5UnmapEjPvm = __sdk_start + 0x0000000000135fbc;
_ZN7android8String16C2ERKNS_7String8E = __sdk_start + 0x0000000000192460;
_ZN2nn2ec19ShopServiceAccessor13AsyncResponse6CancelEv = __sdk_start + 0x00000000002f4b7c;
_ZN2nn3err6detail16CreateRawContextINS0_11NplnContextEEENS_4util8optionalINS1_10RawContextEEERKT_PNS_14MemoryResourceE = __sdk_start + 0x0000000000303570;
_ZTIN2nn2sf4cmif6client6detail9CmifProxyINS_7timesrv6detail7service12ISystemClockENS2_19CmifDomainProxyKindINS0_4hipc6client38Hipc2ClientSessionManagedProxyKindBaseINSB_18Hipc2ProxyKindBaseILNSA_6detail11MessageTypeE6EEEEEEENS0_30MemoryResourceAllocationPolicyENS3_19ProcessModifierImplINS2_21DefaultProxyFilterTagEEEvEE = __sdk_start + 0x0000000000d14068;
cnd_broadcast = __sdk_start + 0x00000000005812f0;
_ZTIN2nn2sf4cmif6client6detail9CmifProxyIN3nns9hosbinder16IHOSBinderDriverENS2_19CmifDomainProxyKindINS0_4hipc6client38Hipc2ClientSessionManagedProxyKindBaseINSA_18Hipc2ProxyKindBaseILNS9_6detail11MessageTypeE6EEEEEEENS0_30MemoryResourceAllocationPolicyENS3_19ProcessModifierImplINS2_21DefaultProxyFilterTagEEEvEE = __sdk_start + 0x0000000000d01f78;
_ZTIN2nn2am7service22ICradleFirmwareUpdaterE = __sdk_start + 0x0000000000d00980;
_ZN2nn5audio38InitializeFinalOutputRecorderParameterEPNS0_28FinalOutputRecorderParameterE = __sdk_start + 0x00000000001eb940;
_ZNK2nn5audio6server12BehaviorInfo49IsVoicePlayedSampleCountResetAtLoopPointSupportedEv = __sdk_start + 0x00000000002192c4;
_ZN2nn2sf4cmif6client6detail13CmifProxyImplINS_2lm7ILoggerENS2_19CmifDomainProxyKindINS0_4hipc6client38Hipc2ClientSessionManagedProxyKindBaseINS9_18Hipc2ProxyKindBaseILNS8_6detail11MessageTypeE6EEEEEEENS0_30MemoryResourceAllocationPolicyES6_NS3_19ProcessModifierImplINS2_21DefaultProxyFilterTagEEEE26_nn_sf_sync_SetDestinationEj = __sdk_start + 0x000000000036221c;
_ZN2nn2sf4cmif6client6detail13CmifProxyImplINS_8settings22IFactorySettingsServerENS0_4hipc6client18Hipc2ProxyKindBaseILNS7_6detail11MessageTypeE6EEENS0_30MemoryResourceAllocationPolicyES6_NS3_19ProcessModifierImplINS2_21DefaultProxyFilterTagEEEE42_nn_sf_sync_GetWirelessLanCountryCodeCountENS0_3OutIivEE = __sdk_start + 0x00000000003b3de0;
__cxa_vec_cctor = __sdk_start + 0x0000000000566b20;
wcscpy = __sdk_start + 0x00000000005af2f0;
nnmem_nlib_thread_getid = __sdk_start + 0x0000000000118d40;
_ZN2nn4htcs10InitializeEPFPvmEPFvS1_mE = __sdk_start + 0x00000000003588a0;
__aarch64_ldclr8_relax = __sdk_start + 0x000000000057cf90;
_ZN2nn4util10SwapEndianEPNS0_9ResEndianEPNS0_6ResDicE = __sdk_start + 0x000000000007eda0;
_ZN2nn2sf4hipc6detail23HandleHipcErrorOnClientENS_6ResultE = __sdk_start + 0x000000000013f090;
_ZN2nn4lmem6detail19GetUnitHeapUnitSizeEPNS1_8HeapHeadE = __sdk_start + 0x0000000000102d30;
_ZNK7android22GraphicBufferAllocator4dumpERNS_7String8E = __sdk_start + 0x000000000018e310;
_ZTVN2nn2sf6detail38ObjectImplFactoryWithStatefulAllocatorINS0_4cmif6client6detail9CmifProxyINS_2am7service15IDebugFunctionsENS4_19CmifDomainProxyKindINS0_4hipc6client38Hipc2ClientSessionManagedProxyKindBaseINSC_18Hipc2ProxyKindBaseILNSB_6detail11MessageTypeE6EEEEEEENS0_30MemoryResourceAllocationPolicyENS5_19ProcessModifierImplINS4_21DefaultProxyFilterTagEEEvEESK_E6ObjectE = __sdk_start + 0x0000000000cfff30;
_ZN2nn5audio3dsp21GetRemainCommandCountEi = __sdk_start + 0x0000000000225ca0;
_ZN2nn2sf6detail38ObjectImplFactoryWithStatefulAllocatorINS0_4cmif6client6detail9CmifProxyINS_6jitsrv15IJitEnvironmentENS0_4hipc6client18Hipc2ProxyKindBaseILNS9_6detail11MessageTypeE6EEENS0_30MemoryResourceAllocationPolicyENS5_19ProcessModifierImplINS4_21DefaultProxyFilterTagEEEvEESF_E6Object7ReleaseEv = __sdk_start + 0x000000000035e4c8;
_ZN2nn3hid6system6detail22SetButtonConfigEnabledEbRKNS_9bluetooth7AddressE = __sdk_start + 0x00000000004a5470;
_ZN2nn2fs6detail17DirectoryAccessorC1EONSt3__110unique_ptrINS0_3fsa10IDirectoryENS3_14default_deleteIS6_EEEERNS1_18FileSystemAccessorE = __sdk_start + 0x000000000009dcd0;
_ZN2nn2sf4cmif6client6detail13CmifProxyImplINS_6grcsrv17IGameMovieTrimmerENS2_19CmifDomainProxyKindINS0_4hipc6client38Hipc2ClientSessionManagedProxyKindBaseINS9_18Hipc2ProxyKindBaseILNS8_6detail11MessageTypeE6EEEEEEENS0_30MemoryResourceAllocationPolicyES6_NS3_19ProcessModifierImplINS2_21DefaultProxyFilterTagEEEE21_nn_sf_sync_BeginTrimERKNS5_11GameMovieIdEii = __sdk_start + 0x00000000001bfa88;
_ZNKSt3__16locale9use_facetERNS0_2idE = __sdk_start + 0x000000000053bdc4;
_ZN2nn6socket6detail26DestroyClientServiceByHipcEPNS_2sf13SharedPointerINS0_2sf10IClient_MCEEE = __sdk_start + 0x00000000001529b0;
_ZN2nn5codec9FDK_get32EPNS0_10FDK_BITBUFE = __sdk_start + 0x00000000002b04c0;
_ZTIN2nn2sf6detail38ObjectImplFactoryWithStatefulAllocatorINS0_4cmif6client6detail9CmifProxyINS_3ngc1t6detail8IServiceENS0_4hipc6client18Hipc2ProxyKindBaseILNSB_6detail11MessageTypeE6EEENS0_30MemoryResourceAllocationPolicyENS5_19ProcessModifierImplINS4_21DefaultProxyFilterTagEEEvEESH_E6ObjectE = __sdk_start + 0x0000000000d21228;
_ZN2nn2fs6detail18FileSystemAccessor10QueryEntryEPcmPKcmNS0_3fsa7QueryIdES5_ = __sdk_start + 0x00000000000a07cc;
_ZnamRKSt9nothrow_t = __sdk_start + 0x0000000000569340;
_ZN7android15BufferQueueCoreC1ERKNS_2spINS_19IGraphicBufferAllocEEE = __sdk_start + 0x0000000000176be0;
_ZN2nn5audio6server15BufferMixerInfo17UpdateResultStateEPNS0_17EffectResultStateERKS3_ = __sdk_start + 0x00000000002197e0;
_ZN2nn2sf4cmif6client6detail13CmifProxyImplINS_3hid16IHidSystemServerENS0_4hipc6client18Hipc2ProxyKindBaseILNS7_6detail11MessageTypeE6EEENS0_30MemoryResourceAllocationPolicyES6_NS3_19ProcessModifierImplINS2_21DefaultProxyFilterTagEEEE41_nn_sf_sync_AcquireSleepButtonEventHandleENS0_3OutINS0_12NativeHandleEvEENS_6applet20AppletResourceUserIdE = __sdk_start + 0x00000000004b58e4;
_ZN2nn5srepo6Struct3AddEPKcb = __sdk_start + 0x00000000003ab460;
_ZN2nn3hid6system30IsAnalogStickInReleasePositionENS1_11UniquePadIdENS1_19AnalogStickPositionE = __sdk_start + 0x00000000004a9d30;
_ZN2nn3hid6system24UnsetSystemKeyboardStateEv = __sdk_start + 0x00000000004aac40;
iswxdigit_l = __sdk_start + 0x000000000059fd50;
__isgraph_l = __sdk_start + 0x000000000059f450;
_ZN2nn2fs11FileStorageC2ENSt3__110shared_ptrINS0_3fsa5IFileEEE = __sdk_start + 0x00000000000ee1b0;
_ZN2nn2sf4cmif6client6detail13CmifProxyImplINS_3apm8ISessionENS0_4hipc6client18Hipc2ProxyKindBaseILNS7_6detail11MessageTypeE6EEENS0_30MemoryResourceAllocationPolicyES6_NS3_19ProcessModifierImplINS2_21DefaultProxyFilterTagEEEE39_nn_sf_sync_GetPerformanceConfigurationENS0_3OutINS5_24PerformanceConfigurationEvEENS5_15PerformanceModeE = __sdk_start + 0x00000000001c9b44;
_ZN2nn3hid6server25CreateHidDebugServerProxyEPNS_2sf13SharedPointerINS0_15IHidDebugServerEEE = __sdk_start + 0x00000000004b2850;
_ZNK2nn4diag6detail17MemoryBlockParser7GetInfoEv = __sdk_start + 0x0000000000097a70;
_ZTVN2nn2fs6detail24SaveDataImporterVersion2E = __sdk_start + 0x0000000000cea340;
nncodecLibopus_opus_decode = __sdk_start + 0x0000000000283860;
_ZN2nn5codec17adtsRead_CrcCheckEPNS0_11STRUCT_ADTSE = __sdk_start + 0x00000000002bcf10;
_ZN2nn2oe29SetDelayTimeToAbortOnGpuErrorENS_8TimeSpanE = __sdk_start + 0x0000000000399840;
_ZN2nn5srepo6Struct3AddEPKcd = __sdk_start + 0x00000000003ab3d8;
_ZN2nn2sf4cmif6client34CmifDomainProxyClientCoreProcessorINS0_4hipc6client38Hipc2ClientSessionManagedProxyKindBaseINS5_18Hipc2ProxyKindBaseILNS4_6detail11MessageTypeE6EEEEENS1_6detail14CoreMethodInfoINSt3__15tupleIJNSC_17InRawArgumentInfoILm4ELm4ELl0EEENSC_18BufferArgumentInfoILi0ELi6ELm0EEEEEELm4ELm0ELb0EEESK_E7ProcessEPNS2_23CmifDomainClientMessageISB_E15ProxyBaseObjectENS2_23InRawClientArgumentTypeILm4ELm4EvEENS2_24BufferClientArgumentTypeEj = __sdk_start + 0x00000000003c6824;
_ZNSt3__117declare_reachableEPv = __sdk_start + 0x00000000004f9ec0;
_ZNSt3__114collate_bynameIcEC1EPKcm = __sdk_start + 0x000000000053bfa8;
_ZN2nn2fs4save18ExclusiveDirectoryD2Ev = __sdk_start + 0x00000000000a90b0;
_ZN2nn7account6detail24SimpleOAuthProcedureBaseC2ERKNS0_3UidEPNS0_4http15IOAuthProcedureE = __sdk_start + 0x0000000000198d74;
_ZN2nn2sf4cmif6client6detail13CmifProxyImplINS_2am7service21IApplicationFunctionsENS2_19CmifDomainProxyKindINS0_4hipc6client38Hipc2ClientSessionManagedProxyKindBaseINSA_18Hipc2ProxyKindBaseILNS9_6detail11MessageTypeE6EEEEEEENS0_30MemoryResourceAllocationPolicyES7_NS3_19ProcessModifierImplINS2_21DefaultProxyFilterTagEEEE29_nn_sf_sync_RequestToShutdownEv = __sdk_start + 0x00000000001c1950;
_ZN2nn6capsrv28SaveScreenShotForApplicationEPNS0_21ApplicationAlbumEntryEPKvmjj = __sdk_start + 0x000000000024a1c0;
_ZN2nn2vi20GetDisplayVsyncEventEPNS_2os15SystemEventTypeEPNS0_7DisplayE = __sdk_start + 0x00000000003dd1a0;
_ZNSt3__16locale8monetaryE = __sdk_start + 0x0000000000b788b8;
_ZN2nn3err10AddContextINS0_18HashedTraceContextEEEvNS0_17ContextDescriptorENS_6ResultERKT_ = __sdk_start + 0x0000000000303aa0;
_ZNK2nn3mii27CharInfoVisualParamAccessor12GetBeardTypeEv = __sdk_start + 0x0000000000362f48;
_ZN2nn5srepo6Struct3AddEPKcf = __sdk_start + 0x00000000003ab394;
nnsslConnectionSetOption = __sdk_start + 0x00000000003c0ba0;
_ZNSt3__113basic_istreamIwNS_11char_traitsIwEEE4syncEv = __sdk_start + 0x0000000000512c94;
_ZN2nn2fs4save19ExclusiveFileSystem19CheckEntryExistenceERKNS0_4PathE = __sdk_start + 0x00000000000a87fc;
_ZNK2nn3mii27CharInfoVisualParamAccessor9GetGlassYEv = __sdk_start + 0x00000000003631b0;
_ZN2nn4npns7SuspendEv = __sdk_start + 0x0000000000391070;
_ZN2nn2sf4cmif6client6detail13CmifProxyImplINS_3hid16IHidSystemServerENS0_4hipc6client18Hipc2ProxyKindBaseILNS7_6detail11MessageTypeE6EEENS0_30MemoryResourceAllocationPolicyES6_NS3_19ProcessModifierImplINS2_21DefaultProxyFilterTagEEEE41_nn_sf_sync_IsUsbFullKeyControllerEnabledENS0_3OutIbvEE = __sdk_start + 0x00000000004b5ee8;
_ZNSt3__112basic_stringIwNS_11char_traitsIwEENS_9allocatorIwEEED1Ev = __sdk_start + 0x0000000000501800;
__gtsf2 = __sdk_start + 0x0000000000572b30;
clock_getcpuclockid = __sdk_start + 0x0000000000581630;
_ZN2nn2sf4cmif6client34CmifDomainProxyClientCoreProcessorINS0_4hipc6client38Hipc2ClientSessionManagedProxyKindBaseINS5_18Hipc2ProxyKindBaseILNS4_6detail11MessageTypeE6EEEEENS1_6detail14CoreMethodInfoINSt3__15tupleIJNSC_17InRawArgumentInfoILm16ELm8ELl0EEEEEELm16ELm0ELb0EEESI_E7ProcessEPNS2_23CmifDomainClientMessageISB_E15ProxyBaseObjectENS2_23InRawClientArgumentTypeILm16ELm8EvEEj = __sdk_start + 0x00000000000cc168;
_ZN7android7String8C2Ev = __sdk_start + 0x000000000019304c;
nncodecLibopus_silk_InitEncoder = __sdk_start + 0x0000000000273600;
_ZTSN10__cxxabiv120__si_class_type_infoE = __sdk_start + 0x0000000000b7ae33;
_ZTVN2nn2sf6detail38ObjectImplFactoryWithStatefulAllocatorINS0_4cmif6client6detail9CmifProxyINS_2am7service31ISystemAppletControllerForDebugENS4_19CmifDomainProxyKindINS0_4hipc6client38Hipc2ClientSessionManagedProxyKindBaseINSC_18Hipc2ProxyKindBaseILNSB_6detail11MessageTypeE6EEEEEEENS0_30MemoryResourceAllocationPolicyENS5_19ProcessModifierImplINS4_21DefaultProxyFilterTagEEEvEESK_E6ObjectE = __sdk_start + 0x0000000000d01fc8;
nvdcDisableCrc_v2 = __sdk_start + 0x00000000003e4cb0;
_ZN2nn4util6TinyMt10InitializeEPKji = __sdk_start + 0x0000000000081910;
_ZN2nn5audio6detail36FftInPlaceProcessRealFixedPointShortEPsPKsRNS1_13FftWorkBufferENS1_12FftDirectionE = __sdk_start + 0x00000000001f9c90;
_ZN2nn2sf4hipc6client24Hipc2ClientCoreProcessorILNS1_6detail11MessageTypeE6ENS0_4cmif6detail14CoreMethodInfoINSt3__15tupleIJNS7_18BufferArgumentInfoILi0ELi22ELm76784EEEEEELm0ELm0ELb0EEESD_E7ProcessEPNS2_26Hipc2ClientProxyBaseObjectENS6_6client24BufferClientArgumentTypeEj = __sdk_start + 0x0000000000396f34;
NvRmGpuCtxSwTraceSetMode = __sdk_start + 0x00000000004353f0;
_ZTVN2nn2sf6detail38ObjectImplFactoryWithStatefulAllocatorINS0_4cmif6client6detail9CmifProxyINS_3apm8IManagerENS0_4hipc6client18Hipc2ProxyKindBaseILNS9_6detail11MessageTypeE6EEENS0_30MemoryResourceAllocationPolicyENS5_19ProcessModifierImplINS4_21DefaultProxyFilterTagEEEvEESF_E6ObjectE = __sdk_start + 0x0000000000d030e0;
_ZN2nn5srepo6Struct3AddEPKcl = __sdk_start + 0x00000000003ab300;
NvRmMemQueryHeapSize = __sdk_start + 0x00000000003fa320;
_ZN2nn3hid6system18GetFirmwareVersionEPNS1_15FirmwareVersionENS1_11UniquePadIdE = __sdk_start + 0x00000000004a9fe0;
_ZTSN2nn2fs4save22SaveDataFileSystemCoreE = __sdk_start + 0x0000000000ac5d42;
_ZN2nn2fs18CreateCacheStorageENS_3ncm13ApplicationIdENS0_15SaveDataSpaceIdEmllj = __sdk_start + 0x00000000000ddb50;
_ZTI10BaseAspectIN2nn5audio6server16CommandGeneratorEE = __sdk_start + 0x0000000000d04d20;
_ZN2nn2sf13SharedPointerINS_4npns11INpnsSystemEED2Ev = __sdk_start + 0x0000000000392e38;
_ZNKSt3__18time_getIcNS_19istreambuf_iteratorIcNS_11char_traitsIcEEEEE12__get_minuteERiRS4_S4_RjRKNS_5ctypeIcEE = __sdk_start + 0x0000000000527a00;
_ZTSN2nn2fs25ISaveDataDivisionExporterE = __sdk_start + 0x0000000000acdf1c;
_ZN2nn2vi16InitializeMemoryEv = __sdk_start + 0x00000000003e0e80;
_ZN2nn2sf4cmif6client6detail13CmifProxyImplINS_3hid16IHidSystemServerENS0_4hipc6client18Hipc2ProxyKindBaseILNS7_6detail11MessageTypeE6EEENS0_30MemoryResourceAllocationPolicyES6_NS3_19ProcessModifierImplINS2_21DefaultProxyFilterTagEEEE35_nn_sf_sync_GetRegisteredDevicesOldENS0_3OutIlvEERKNS0_8OutArrayINS5_6system19RegisteredDeviceOldEEE = __sdk_start + 0x00000000004b5cc8;
_ZN2nn2sf4cmif6client6detail13CmifProxyImplINS_4bcat3ipc12IBcatServiceENS2_19CmifDomainProxyKindINS0_4hipc6client38Hipc2ClientSessionManagedProxyKindBaseINSA_18Hipc2ProxyKindBaseILNS9_6detail11MessageTypeE6EEEEEEENS0_30MemoryResourceAllocationPolicyES7_NS3_19ProcessModifierImplINS2_21DefaultProxyFilterTagEEEE47_nn_sf_sync_ClearDeliveryTaskSubscriptionStatusEv = __sdk_start + 0x0000000000237e30;
NvWsiNativeDisplayUnref = __sdk_start + 0x000000000043d4e0;
_ZN2nn2sf4hipc6client24Hipc2ClientCoreProcessorILNS1_6detail11MessageTypeE6ENS0_4cmif6detail14CoreMethodInfoINSt3__15tupleIJNS7_18OutRawArgumentInfoILm2ELm1ELl0EEENS7_17InRawArgumentInfoILm8ELm8ELl0EEEEEELm8ELm2ELb0EEESF_E7ProcessEPNS2_26Hipc2ClientProxyBaseObjectENS6_6client24OutRawClientArgumentTypeILm2ELm1EEENSK_23InRawClientArgumentTypeILm8ELm8EvEEj = __sdk_start + 0x00000000004b4624;
_ZN2nn2sf4hipc6client24Hipc2ClientCoreProcessorILNS1_6detail11MessageTypeE6ENS0_4cmif6detail14CoreMethodInfoINSt3__15tupleIJNS7_18OutRawArgumentInfoILm1ELm1ELl0EEENS7_17InRawArgumentInfoILm8ELm8ELl0EEENSD_ILm8ELm8ELl8EEEEEELm16ELm1ELb0EEESG_E7ProcessEPNS2_26Hipc2ClientProxyBaseObjectENS6_6client24OutRawClientArgumentTypeILm1ELm1EEENSL_23InRawClientArgumentTypeILm8ELm8EvEESP_j = __sdk_start + 0x00000000004b7218;
_ZN2nn2sf4cmif6client6detail13CmifProxyImplINS_3hid16IHidSystemServerENS0_4hipc6client18Hipc2ProxyKindBaseILNS7_6detail11MessageTypeE6EEENS0_30MemoryResourceAllocationPolicyES6_NS3_19ProcessModifierImplINS2_21DefaultProxyFilterTagEEEE40_nn_sf_sync_IsAnalogStickInCircumferenceENS0_3OutIbvEENS5_6system11UniquePadIdEl = __sdk_start + 0x00000000004b5eac;
_ZTIN2nn3ldn6detail19IUserServiceCreatorE = __sdk_start + 0x0000000000d20558;
_ZN2nn2sf4hipc6client24Hipc2ClientCoreProcessorILNS1_6detail11MessageTypeE6ENS0_4cmif6detail14CoreMethodInfoINSt3__15tupleIJNS7_18OutRawArgumentInfoILm4ELm4ELl68EEENS7_21OutObjectArgumentInfoILi0ELi0EEENSB_ILm66ELm2ELl0EEEEEELm0ELm72ELb0EEESG_E21ProcessWithOutObjectsEPNS2_26Hipc2ClientProxyBaseObjectENS6_6client24OutRawClientArgumentTypeILm4ELm4EEENSL_27OutObjectClientArgumentTypeENSM_ILm66ELm2EEEjPNS0_13SharedPointerINS0_14IServiceObjectEEE = __sdk_start + 0x0000000000353608;
_ZN2nn4pctl11PairingInfoD2Ev = __sdk_start + 0x000000000039e190;
nncodecLibopus_validate_layout = __sdk_start + 0x000000000028e3a0;
_ZN2nn2pl13GetSharedFontEPiPNS0_14SharedFontDataEiNS_8settings12LanguageCodeE = __sdk_start + 0x00000000003a2670;
_ZN2nn2sf4cmif6client6detail13CmifProxyImplINS_3hid10IHidServerENS0_4hipc6client18Hipc2ProxyKindBaseILNS7_6detail11MessageTypeE6EEENS0_30MemoryResourceAllocationPolicyES6_NS3_19ProcessModifierImplINS2_21DefaultProxyFilterTagEEEE49_nn_sf_sync_GetPalmaDataBaseIdentificationVersionENS5_21PalmaConnectionHandleE = __sdk_start + 0x00000000004af014;
nncryptoAes128CtrEncryptorSwitchMessage = __sdk_start + 0x0000000000002f70;
_ZN2nn2sf4cmif6client6detail13CmifProxyImplINS_4npns11INpnsSystemENS0_4hipc6client18Hipc2ProxyKindBaseILNS7_6detail11MessageTypeE6EEENS0_30MemoryResourceAllocationPolicyES6_NS3_19ProcessModifierImplINS2_21DefaultProxyFilterTagEEEE37_nn_sf_sync_GetPlayReportRequestEventENS0_3OutINS0_12NativeHandleEvEE = __sdk_start + 0x0000000000393200;
_ZN2nn8profiler27WaitForAddressInterceptExitENS_6ResultEmNS_3svc15ArbitrationTypeEil = __sdk_start + 0x00000000003ab650;
_ZN4nerd16VibrationEncoder15MinSamplingRateE = __sdk_start + 0x0000000000b44084;
recv = __sdk_start + 0x000000000008d950;
_ZN2nn2sf4cmif6client34CmifDomainProxyClientCoreProcessorINS0_4hipc6client38Hipc2ClientSessionManagedProxyKindBaseINS5_18Hipc2ProxyKindBaseILNS4_6detail11MessageTypeE6EEEEENS1_6detail14CoreMethodInfoINSt3__15tupleIJNSC_18OutRawArgumentInfoILm4ELm4ELl0EEENSG_ILm4ELm4ELl4EEENSC_18BufferArgumentInfoILi0ELi33ELm0EEENSJ_ILi1ELi34ELm0EEENSG_ILm4ELm4ELl8EEENSJ_ILi2ELi33ELm0EEEEEELm0ELm12ELb0EEESO_E7ProcessEPNS2_23CmifDomainClientMessageISB_E15ProxyBaseObjectENS2_24OutRawClientArgumentTypeILm4ELm4EEESW_NS2_24BufferClientArgumentTypeESX_SW_SX_j = __sdk_start + 0x0000000000157260;
_ZNK7android6Parcel4dataEv = __sdk_start + 0x0000000000167c88;
_ZN2nn2sf4cmif6client6detail13CmifProxyImplINS_2am7service22IAppletCommonFunctionsENS2_19CmifDomainProxyKindINS0_4hipc6client38Hipc2ClientSessionManagedProxyKindBaseINSA_18Hipc2ProxyKindBaseILNS9_6detail11MessageTypeE6EEEEEEENS0_30MemoryResourceAllocationPolicyES7_NS3_19ProcessModifierImplINS2_21DefaultProxyFilterTagEEEE35_nn_sf_sync_SetDisplayMagnificationEffff = __sdk_start + 0x00000000001bdde4;
_ZN2nn2sf4cmif6client6detail13CmifProxyImplINS_2am7service26ILibraryAppletSelfAccessorENS2_19CmifDomainProxyKindINS0_4hipc6client38Hipc2ClientSessionManagedProxyKindBaseINSA_18Hipc2ProxyKindBaseILNS9_6detail11MessageTypeE6EEEEEEENS0_30MemoryResourceAllocationPolicyES7_NS3_19ProcessModifierImplINS2_21DefaultProxyFilterTagEEEE43_nn_sf_sync_SetApplicationMemoryReservationEm = __sdk_start + 0x00000000001bf1e8;
_ZNK2nn5srepo5Array9GetBufferEv = __sdk_start + 0x00000000003ab2d8;
_ZN2nn3hid6system17GetUniquePadColorEPNS1_15ControllerColorENS1_11UniquePadIdE = __sdk_start + 0x00000000004abe60;
_ZNKSt3__120__time_get_c_storageIwE3__XEv = __sdk_start + 0x0000000000545858;
nndetailImagePng_png_write_start_row = __sdk_start + 0x000000000006dea0;
_ZN2nn7account40DebugEnableInterprogramOpenUserRetentionEv = __sdk_start + 0x000000000019bad0;
_ZN2nn5audio6server22PerformanceManagerImplINS1_33PerformanceManagerImplVersion1TagENS0_6common30PerformanceFrameHeaderVersion1ENS4_24PerformanceEntryVersion1ENS4_25PerformanceDetailVersion1ENS0_20PerformanceSysDetailEE9CopyFrameEPS5_PKS5_bil = __sdk_start + 0x00000000002184c4;
FsLttComponent_numAdjustments = __sdk_start + 0x0000000000330380;
_ZN2nn8settings6detail15SetLanguageCodeERKNS0_12LanguageCodeE = __sdk_start + 0x00000000003b7490;
_ZN2nn2fs8ReadFileENS0_10FileHandleElPvm = __sdk_start + 0x00000000000a2390;
_ZN2nn2sf4hipc6client24Hipc2ClientCoreProcessorILNS1_6detail11MessageTypeE6ENS0_4cmif6detail14CoreMethodInfoINSt3__15tupleIJNS7_18OutRawArgumentInfoILm4ELm4ELl0EEENSB_ILm4ELm4ELl4EEENS7_17InRawArgumentInfoILm8ELm8ELl8EEENSE_ILm4ELm4ELl0EEENS7_18BufferArgumentInfoILi0ELi34ELm0EEENSE_ILm4ELm4ELl4EEENSH_ILi1ELi33ELm0EEEEEELm16ELm8ELb1EEESL_E7ProcessEPNS2_26Hipc2ClientProxyBaseObjectENS6_6client24OutRawClientArgumentTypeILm4ELm4EEESS_NSQ_23InRawClientArgumentTypeILm8ELm8EvEENST_ILm4ELm4EvEENSQ_24BufferClientArgumentTypeESV_SW_j = __sdk_start + 0x000000000015548c;
_ZN7android6Region12subtractSelfERKS0_ = __sdk_start + 0x000000000018fbe4;
_ZN2nn2sf4cmif6client6detail13CmifProxyImplINS_2am7service18IAppletProxyCommonENS2_19CmifDomainProxyKindINS0_4hipc6client38Hipc2ClientSessionManagedProxyKindBaseINSA_18Hipc2ProxyKindBaseILNS9_6detail11MessageTypeE6EEEEEEENS0_30MemoryResourceAllocationPolicyENS6_19ILibraryAppletProxyENS3_19ProcessModifierImplINS2_21DefaultProxyFilterTagEEEE30_nn_sf_sync_GetAudioControllerENS0_3OutINS0_13SharedPointerINS6_16IAudioControllerEEEvEE = __sdk_start + 0x00000000001be66c;
_ZN2nn5codec27FinalizeHardwareOpusDecoderEPNS0_23HardwareOpusDecoderTypeE = __sdk_start + 0x00000000002997b0;
_ZN2nn3mii13AppletManager30SetResultSuccessCreateCharInfoERKNS0_8CharInfoE = __sdk_start + 0x000000000037c954;
NvRmGpuDeviceResumeFromPause = __sdk_start + 0x00000000004352a0;
_ZN2nn6crypto6detail10CbcMacImpl6UpdateINS0_12AesEncryptorILm16EEEEEvPKvm = __sdk_start + 0x000000000000e810;
_ZTIN2nn2sf4cmif6client6detail13CmifProxyImplINS_2am7service18IAppletProxyCommonENS2_19CmifDomainProxyKindINS0_4hipc6client38Hipc2ClientSessionManagedProxyKindBaseINSA_18Hipc2ProxyKindBaseILNS9_6detail11MessageTypeE6EEEEEEENS0_30MemoryResourceAllocationPolicyENS6_17IApplicationProxyENS3_19ProcessModifierImplINS2_21DefaultProxyFilterTagEEEEE = __sdk_start + 0x0000000000d01870;
_ZN2nn5codec34GetHardwareOpusDecoderChannelCountEPKNS0_23HardwareOpusDecoderTypeE = __sdk_start + 0x0000000000299800;
_ZN2nn2sf4cmif6client6detail13CmifProxyImplINS_3hid15IHidDebugServerENS0_4hipc6client18Hipc2ProxyKindBaseILNS7_6detail11MessageTypeE6EEENS0_30MemoryResourceAllocationPolicyES6_NS3_19ProcessModifierImplINS2_21DefaultProxyFilterTagEEEE39_nn_sf_sync_SetHomeButtonAutoPilotStateENS5_5debug24HomeButtonAutoPilotStateE = __sdk_start + 0x00000000004b2cbc;
__aarch64_cas4_rel = __sdk_start + 0x000000000057c530;
_ZN2nn6socket6detail11GAIStrErrorENS0_7AiErrnoE = __sdk_start + 0x0000000000151e40;
_ZN2nn2sf4cmif6client6detail13CmifProxyImplINS_2am7service18IDisplayControllerENS2_19CmifDomainProxyKindINS0_4hipc6client38Hipc2ClientSessionManagedProxyKindBaseINSA_18Hipc2ProxyKindBaseILNS9_6detail11MessageTypeE6EEEEEEENS0_30MemoryResourceAllocationPolicyES7_NS3_19ProcessModifierImplINS2_21DefaultProxyFilterTagEEEE47_nn_sf_sync_ReleaseLastApplicationCaptureBufferEv = __sdk_start + 0x00000000001b9abc;
_ZN2nn2sf6detail38ObjectImplFactoryWithStatefulAllocatorINS0_4cmif6client6detail9CmifProxyINS_3mii6detail16IDatabaseServiceENS4_19CmifDomainProxyKindINS0_4hipc6client38Hipc2ClientSessionManagedProxyKindBaseINSC_18Hipc2ProxyKindBaseILNSB_6detail11MessageTypeE6EEEEEEENS0_30MemoryResourceAllocationPolicyENS5_19ProcessModifierImplINS4_21DefaultProxyFilterTagEEEvEESK_E6Object12AddReferenceEv = __sdk_start + 0x0000000000379db4;
_ZN2nn2sf4hipc6client24Hipc2ClientCoreProcessorILNS1_6detail11MessageTypeE6ENS0_4cmif6detail14CoreMethodInfoINSt3__15tupleIJNS7_18OutRawArgumentInfoILm1ELm1ELl0EEENSB_ILm1ELm1ELl1EEENSB_ILm1ELm1ELl2EEENS7_17InRawArgumentInfoILm8ELm8ELl0EEEEEELm8ELm3ELb0EEESH_E7ProcessEPNS2_26Hipc2ClientProxyBaseObjectENS6_6client24OutRawClientArgumentTypeILm1ELm1EEESO_SO_NSM_23InRawClientArgumentTypeILm8ELm8EvEEj = __sdk_start + 0x00000000003da420;
_ZN2nn3web6detail24ShowOfflinePageArgDetail15SetDocumentKindEPhRKNS1_19OfflineDocumentKindE = __sdk_start + 0x00000000004e4970;
_ZN2nn2os24SdkConditionVariableType9TimedWaitERNS0_12SdkMutexTypeENS_8TimeSpanE = __sdk_start + 0x000000000012e630;
swap_ttc_header = __sdk_start + 0x000000000033fa90;
_ZN2nn3mii6detail13NoselineColorE = __sdk_start + 0x0000000000b20f40;
_ZN2nn3mii6detail12StoreDataRaw15SetFacelineTypeEi = __sdk_start + 0x000000000036c7cc;
_ZN2nn5srepo6detail14ArrayGenerator8AddValueEPmlPhmm = __sdk_start + 0x00000000003a38e8;
_ZN2nn5audio15AddBiquadFilterEPNS0_19AudioRendererConfigEPNS0_16BiquadFilterTypeEPNS0_12FinalMixTypeE = __sdk_start + 0x00000000001d1c70;
_ZN2nn3hid6detail25SetPalmaUniqueCodeInvalidERKNS0_21PalmaConnectionHandleE = __sdk_start + 0x0000000000494bd0;
_ZNSt3__17promiseIvE9set_valueEv = __sdk_start + 0x00000000004f91d4;
__ctype_toupper_loc = __sdk_start + 0x000000000059f320;
_ZN2nn2fs6detail24SaveDataImporterVersion216GetImportContextEPNS0_25ISaveDataDivisionImporter13ImportContextE = __sdk_start + 0x00000000000f5b08;
sfnt_UnfoldCurve = __sdk_start + 0x000000000032c670;
_ZN2nn7account16LoadProfileImageEPmPvmRKNS0_3UidE = __sdk_start + 0x0000000000199cb0;
_ZN2nn5audio8AudioOut9VolumeMinE = __sdk_start + 0x0000000000aea9c8;
_ZN2nn2fs15RomFsFileSystemC1Ev = __sdk_start + 0x00000000000e9d00;
_ZN2nn2ec28ConsumableServiceItemManager17GetRightDataCountEv = __sdk_start + 0x00000000002ecd04;
_ZN2nn4time18ToPosixTimeFromUtcERKNS0_12CalendarTimeE = __sdk_start + 0x00000000003cf8f0;
_ZNSt3__15stoulERKNS_12basic_stringIcNS_11char_traitsIcEENS_9allocatorIcEEEEPmi = __sdk_start + 0x0000000000503ea0;
_ZN2nn2sf4cmif6client34CmifDomainProxyClientCoreProcessorINS0_4hipc6client38Hipc2ClientSessionManagedProxyKindBaseINS5_18Hipc2ProxyKindBaseILNS4_6detail11MessageTypeE6EEEEENS1_6detail14CoreMethodInfoINSt3__15tupleIJNSC_17InRawArgumentInfoILm16ELm8ELl104EEENSG_ILm64ELm1ELl0EEENSG_ILm33ELm1ELl64EEENSC_18BufferArgumentInfoILi0ELi5ELm0EEEEEELm120ELm0ELb0EEESM_E7ProcessEPNS2_23CmifDomainClientMessageISB_E15ProxyBaseObjectENS2_23InRawClientArgumentTypeILm16ELm8EvEENST_ILm64ELm1EvEENST_ILm33ELm1EvEENS2_24BufferClientArgumentTypeEj = __sdk_start + 0x000000000034b100;
_ZTIN2nn2sf4cmif6client6detail9CmifProxyINS_6jitsrv11IJitServiceENS0_4hipc6client18Hipc2ProxyKindBaseILNS7_6detail11MessageTypeE6EEENS0_30MemoryResourceAllocationPolicyENS3_19ProcessModifierImplINS2_21DefaultProxyFilterTagEEEvEE = __sdk_start + 0x0000000000d0bf58;
_ZNK2nn3mii9StoreDataneERKS1_ = __sdk_start + 0x0000000000364a78;
_ZN2nn3hid20IsVibrationPermittedEv = __sdk_start + 0x000000000049edd0;
_ZN2nn3hid6system15SetButtonConfigERKNS1_20ButtonConfigEmbeddedE = __sdk_start + 0x00000000004a9f10;
_ZN2nn2sf4cmif6client6detail13CmifProxyImplINS_3hid15IHidDebugServerENS0_4hipc6client18Hipc2ProxyKindBaseILNS7_6detail11MessageTypeE6EEENS0_30MemoryResourceAllocationPolicyES6_NS3_19ProcessModifierImplINS2_21DefaultProxyFilterTagEEEE35_nn_sf_sync_DetachHdlsVirtualDeviceENS5_5debug10HdlsHandleE = __sdk_start + 0x00000000004b3120;
_ZN2nn7nlibsdk4heap11CentralHeap9MakeCacheEPNS1_10CachedHeapE = __sdk_start + 0x0000000000124b94;
_ZN2nn2sf4hipc6client24Hipc2ClientCoreProcessorILNS1_6detail11MessageTypeE6ENS0_4cmif6detail14CoreMethodInfoINSt3__15tupleIJNS7_17InRawArgumentInfoILm8ELm8ELl8EEENSB_ILm4ELm4ELl4EEENSB_ILm2ELm2ELl0EEEEEELm16ELm0ELb1EEESF_E7ProcessEPNS2_26Hipc2ClientProxyBaseObjectENS6_6client23InRawClientArgumentTypeILm8ELm8EvEENSL_ILm4ELm4EvEENSL_ILm2ELm2EvEEj = __sdk_start + 0x0000000000249b34;
_ZTSN2nn3nim6detail24IShopServiceAccessServerE = __sdk_start + 0x0000000000b10dab;
_ZN2nn2sf4cmif6client6detail13CmifProxyImplINS_4pctl6detail3ipc23IParentalControlServiceENS2_19CmifDomainProxyKindINS0_4hipc6client38Hipc2ClientSessionManagedProxyKindBaseINSB_18Hipc2ProxyKindBaseILNSA_6detail11MessageTypeE6EEEEEEENS0_30MemoryResourceAllocationPolicyES8_NS3_19ProcessModifierImplINS2_21DefaultProxyFilterTagEEEE41_nn_sf_sync_ConfirmStereoVisionPermissionEv = __sdk_start + 0x000000000039f3a4;
_ZTINSt3__115__codecvt_utf16IwLb1EEE = __sdk_start + 0x0000000000d23b70;
nnmem_nlib_swapendian_64_generic = __sdk_start + 0x00000000001081a0;
_ZN2nn3err21IsNetworkServiceErrorENS0_9ErrorCodeE = __sdk_start + 0x00000000002fc580;
_ZN2nn8settings6detail13SetColorSetIdEi = __sdk_start + 0x00000000003ba520;
_ZN2nn3hid27ReadPalmaApplicationSectionERKNS0_21PalmaConnectionHandleEim = __sdk_start + 0x000000000049d9b0;
_ZN2nn2am17GetSelfControllerEv = __sdk_start + 0x00000000001b1e90;
_ZN2nn2sf4cmif6client6detail13CmifProxyImplINS_3apm8ISessionENS0_4hipc6client18Hipc2ProxyKindBaseILNS7_6detail11MessageTypeE6EEENS0_30MemoryResourceAllocationPolicyES6_NS3_19ProcessModifierImplINS2_21DefaultProxyFilterTagEEEE12GetProxyInfoEv = __sdk_start + 0x00000000001c9b28;
_ZN2nn9bluetooth3hal20DisconnectGattServerEj = __sdk_start + 0x000000000023cc50;
_ZN2nn2sf4cmif6client34CmifDomainProxyClientCoreProcessorINS0_4hipc6client38Hipc2ClientSessionManagedProxyKindBaseINS5_18Hipc2ProxyKindBaseILNS4_6detail11MessageTypeE6EEEEENS1_6detail14CoreMethodInfoINSt3__15tupleIJNSC_17InRawArgumentInfoILm64ELm8ELl8EEENSG_ILm1ELm1ELl0EEENSG_ILm8ELm8ELl72EEEEEELm80ELm0ELb0EEESK_E7ProcessEPNS2_23CmifDomainClientMessageISB_E15ProxyBaseObjectENS2_23InRawClientArgumentTypeILm64ELm8EvEENSR_ILm1ELm1EvEENSR_ILm8ELm8EvEEj = __sdk_start + 0x00000000000c736c;
_ZN2nn2sf4hipc24AttachWaitHolderForReplyEPNS_2os19MultiWaitHolderTypeENS_3svc6HandleE = __sdk_start + 0x0000000000145ff0;
_ZN2nn2sf4cmif6client6detail13CmifProxyImplINS_2am7service21IStackableAppletProxyENS2_19CmifDomainProxyKindINS0_4hipc6client38Hipc2ClientSessionManagedProxyKindBaseINSA_18Hipc2ProxyKindBaseILNS9_6detail11MessageTypeE6EEEEEEENS0_30MemoryResourceAllocationPolicyENS6_18ISystemAppletProxyENS3_19ProcessModifierImplINS2_21DefaultProxyFilterTagEEEE35_nn_sf_sync_GetLibraryAppletCreatorENS0_3OutINS0_13SharedPointerINS6_21ILibraryAppletCreatorEEEvEE = __sdk_start + 0x00000000001b6784;
_ZN2nn5audio6server23SplitterDestinationData31MarkAsNeedToUpdateInternalStateEv = __sdk_start + 0x000000000021d290;
_ZN2nn5codec12invSqrtNorm2EiPi = __sdk_start + 0x00000000002b8a50;
_ZN2nn3nfc6client22IsCreatedUserInterfaceEv = __sdk_start + 0x000000000037e970;
_ZN2nn5codec21FDKhybridAnalysisOpenEPNS0_18FDK_ANA_HYB_FILTEREPijS3_j = __sdk_start + 0x00000000002b1be0;
_ZN2nn7friends28StartSendingFriendInvitationERKNS_7account3UidEPKNS1_23NetworkServiceAccountIdEiRKNS0_35FriendInvitationGameModeDescriptionEPKvm = __sdk_start + 0x000000000034cc80;
_ZTVN2nn4util10ExecutableE = __sdk_start + 0x0000000000cec3c8;
_ZN2nn2sf4cmif6client6detail13CmifProxyImplIN3nns9hosbinder16IHOSBinderDriverENS2_19CmifDomainProxyKindINS0_4hipc6client38Hipc2ClientSessionManagedProxyKindBaseINSA_18Hipc2ProxyKindBaseILNS9_6detail11MessageTypeE6EEEEEEENS0_30MemoryResourceAllocationPolicyES7_NS3_19ProcessModifierImplINS2_21DefaultProxyFilterTagEEEE30_nn_sf_sync_TransactParcelAutoEijRKNS0_8InBufferERKNS0_9OutBufferEj = __sdk_start + 0x00000000001c3b60;
_ZN2nn5audio6server24AudioRenderSystemManager6RemoveERNS1_17AudioRenderSystemE = __sdk_start + 0x000000000020dccc;
eMeans = __sdk_start + 0x0000000000afd38c;
_ZN2nn2sf4cmif6client6detail13CmifProxyImplINS_2am7service20IApplicationAccessorENS2_19CmifDomainProxyKindINS0_4hipc6client38Hipc2ClientSessionManagedProxyKindBaseINSA_18Hipc2ProxyKindBaseILNS9_6detail11MessageTypeE6EEEEEEENS0_30MemoryResourceAllocationPolicyES7_NS3_19ProcessModifierImplINS2_21DefaultProxyFilterTagEEEE36_nn_sf_sync_AreAnyLibraryAppletsLeftENS0_3OutIbvEE = __sdk_start + 0x00000000001bd2b8;
_ZZN2nn2sf40SimpleAllInOneHipcSubDomainClientManagerILm31EE27InitializeShimLibraryHolderINS_4bcat3ipc15IServiceCreatorENS0_4cmif6client6detail19ProcessModifierImplINS8_21DefaultProxyFilterTagEEEEENS_6ResultEPNS0_23ShimLibraryObjectHolderIT_EEPKcPNS_14MemoryResourceEENUlPvE_8__invokeESM_ = __sdk_start + 0x000000000023935c;
NvRmSyncGetFd = __sdk_start + 0x00000000003f8470;
_ZNK2nn4util17BinaryBlockHeader12GetNextBlockEv = __sdk_start + 0x000000000007ced8;
_ZN2nn7account6detail18OAuthProcedureBaseC2ERKNS0_3UidEPNS0_4http15IOAuthProcedureE = __sdk_start + 0x0000000000198a40;
_ZN2nn5audio23GetAuxReverbInputOutputEPaS1_PiPKNS0_13AuxReverbTypeEi = __sdk_start + 0x00000000001cf7e0;
multimedia_GetAllocator = __sdk_start + 0x00000000003f2610;
_ZN2nn5audio6server14EffectInfoBase7CleanUpEv = __sdk_start + 0x00000000002194c4;
_ZN2nn8settings6system21SetBlePairingSettingsEPKNS1_18BlePairingSettingsEi = __sdk_start + 0x00000000003ad520;
_ZN2nn9hidconfig15SetButtonConfigERKNS0_17ButtonConfigRightERKNS_3hid6system11UniquePadIdE = __sdk_start + 0x00000000004aa890;
_Unwind_FindEnclosingFunction = __sdk_start + 0x000000000056e990;
_ZN2nn5audio10MixManager7AcquireEPNS0_10SubMixTypeEi = __sdk_start + 0x00000000001d8150;
_ZN2nn2fs26GetApplicationSaveDataSizeEPlS1_NS_3ncm13ApplicationIdENS0_12SaveDataTypeERKNS_7account3UidE = __sdk_start + 0x000000000034ea90;
_ZN2nn2sf4cmif6client6detail13CmifProxyImplINS_3ngc6detail8IServiceENS0_4hipc6client18Hipc2ProxyKindBaseILNS8_6detail11MessageTypeE6EEENS0_30MemoryResourceAllocationPolicyES7_NS3_19ProcessModifierImplINS2_21DefaultProxyFilterTagEEEE18_nn_sf_sync_ReloadEv = __sdk_start + 0x0000000000386c98;
_ZN2nn2sf4cmif6client34CmifDomainProxyClientCoreProcessorINS0_4hipc6client38Hipc2ClientSessionManagedProxyKindBaseINS5_18Hipc2ProxyKindBaseILNS4_6detail11MessageTypeE6EEEEENS1_6detail14CoreMethodInfoINSt3__15tupleIJNSC_17InRawArgumentInfoILm36ELm1ELl0EEEEEELm36ELm0ELb0EEESI_E7ProcessEPNS2_23CmifDomainClientMessageISB_E15ProxyBaseObjectENS2_23InRawClientArgumentTypeILm36ELm1EvEEj = __sdk_start + 0x00000000003d23f4;
_ZN2nn2sf4cmif6client6detail13CmifProxyImplINS_8irsensor21IIrSensorSystemServerENS0_4hipc6client18Hipc2ProxyKindBaseILNS7_6detail11MessageTypeE6EEENS0_25StatelessAllocationPolicyINS0_22ExpHeapStaticAllocatorILm16384ENS5_6detail20IrSensorSystemServerEEEEES6_NS3_19ProcessModifierImplINS2_21DefaultProxyFilterTagEEEE34_nn_sf_sync_EnableAppletToGetInputENS_6applet20AppletResourceUserIdEb = __sdk_start + 0x00000000004c4a9c;
_ZN2nn7account36CheckNetworkServiceAvailabilityAsyncEPNS0_12AsyncContextERKNS0_27SystemProgramIdentificationE = __sdk_start + 0x000000000019ae60;
_ZNK2nn5audio17MemoryPoolManager12IsOverlappedEPvm = __sdk_start + 0x00000000001d7ef0;
_ZN2nn5audio24CloseFinalOutputRecorderEPNS0_19FinalOutputRecorderE = __sdk_start + 0x00000000001eb250;
_ZTSN2nn2sf4cmif6client6detail9CmifProxyINS_2am7service16IAudioControllerENS2_19CmifDomainProxyKindINS0_4hipc6client38Hipc2ClientSessionManagedProxyKindBaseINSA_18Hipc2ProxyKindBaseILNS9_6detail11MessageTypeE6EEEEEEENS0_30MemoryResourceAllocationPolicyENS3_19ProcessModifierImplINS2_21DefaultProxyFilterTagEEEvEE = __sdk_start + 0x0000000000ae0d4c;
_ZTSN2nn8settings22IFactorySettingsServerE = __sdk_start + 0x0000000000b34cd1;
_ZNSt3__18ios_base8internalE = __sdk_start + 0x0000000000b781c0;
_ZNKSt3__117moneypunct_bynameIwLb0EE16do_positive_signEv = __sdk_start + 0x000000000052b31c;
_ZN2nn6crypto6detail10CbcMacImpl13UpdateGenericEPKvm = __sdk_start + 0x000000000000e658;
_ZNK7android6Region8subtractERKS0_ = __sdk_start + 0x0000000000190010;
_ZN2nn3ssl10Connection15GetConnectionIdEPm = __sdk_start + 0x00000000003c2bc8;
_ZN2nn3ntc6detail4shim40EnsureNetworkClockAvailabilityClientImpl26GetFinishNotificationEventEv = __sdk_start + 0x00000000003d5120;
_ZN2nn3hid6system6detail32SendVibrationNotificationPatternERKNS0_21VibrationDeviceHandleEi = __sdk_start + 0x00000000004a9b60;
index = __sdk_start + 0x00000000005ad300;
_ZN2nn2sf4cmif6client6detail13CmifProxyImplINS_2am7service21IApplicationFunctionsENS2_19CmifDomainProxyKindINS0_4hipc6client38Hipc2ClientSessionManagedProxyKindBaseINSA_18Hipc2ProxyKindBaseILNS9_6detail11MessageTypeE6EEEEEEENS0_30MemoryResourceAllocationPolicyES7_NS3_19ProcessModifierImplINS2_21DefaultProxyFilterTagEEEE46_nn_sf_sync_GetNotificationStorageChannelEventENS0_3OutINS0_12NativeHandleEvEE = __sdk_start + 0x00000000001c1b9c;
_ZN2nn8settings6detail14SetAudioVolumeERKNS0_6system11AudioVolumeEi = __sdk_start + 0x00000000003b10a0;
_ZNKSt3__18messagesIwE8do_closeEl = __sdk_start + 0x0000000000531c44;
_ZN2nn7account59ShowLicenseRequirementsForNetworkServiceForUnspecifiedUsersERKNS_3err9ErrorCodeE = __sdk_start + 0x0000000000198720;
_ZN2nn2sf13SharedPointerINS_6capsrv2sf32IAlbumAccessorApplicationSessionEED2Ev = __sdk_start + 0x000000000024b0e8;
_ZN2nn5audio23SplitterDestinationData8SetInUseEb = __sdk_start + 0x00000000001da984;
_ZN2nn2sf4hipc6client24Hipc2ClientCoreProcessorILNS1_6detail11MessageTypeE6ENS0_4cmif6detail14CoreMethodInfoINSt3__15tupleIJNS7_18OutRawArgumentInfoILm58ELm2ELl0EEENS7_17InRawArgumentInfoILm4ELm4ELl0EEEEEELm4ELm58ELb0EEESF_E7ProcessEPNS2_26Hipc2ClientProxyBaseObjectENS6_6client24OutRawClientArgumentTypeILm58ELm2EEENSK_23InRawClientArgumentTypeILm4ELm4EvEEj = __sdk_start + 0x000000000037ba80;
_ZN2nn3ssl10ConnectionC2Ev = __sdk_start + 0x00000000003c0f24;
_ZN2nn4lmem6detail25GetExpHeapMemoryBlockSizeEPKv = __sdk_start + 0x0000000000102150;
sched_get_priority_max = __sdk_start + 0x0000000000139fc0;
_ZN2nn6crypto23DecryptAes192CtrPartialEPvmPKvmS3_mlS3_m = __sdk_start + 0x0000000000001660;
_ZN2nn2sf4cmif6client34CmifDomainProxyClientCoreProcessorINS0_4hipc6client38Hipc2ClientSessionManagedProxyKindBaseINS5_18Hipc2ProxyKindBaseILNS4_6detail11MessageTypeE6EEEEENS1_6detail14CoreMethodInfoINSt3__15tupleIJNSC_18OutRawArgumentInfoILm4ELm4ELl0EEENSC_18BufferArgumentInfoILi0ELi6ELm0EEENSC_17InRawArgumentInfoILm4ELm4ELl0EEEEEELm4ELm4ELb0EEESM_E7ProcessEPNS2_23CmifDomainClientMessageISB_E15ProxyBaseObjectENS2_24OutRawClientArgumentTypeILm4ELm4EEENS2_24BufferClientArgumentTypeENS2_23InRawClientArgumentTypeILm4ELm4EvEEj = __sdk_start + 0x000000000037a00c;
_ZTVN2nn2fs3dbm30BufferedAllocationTableStorageE = __sdk_start + 0x0000000000ce6698;
_ZNK7android14SurfaceControl10getSurfaceEv = __sdk_start + 0x00000000001888b8;
_ZN2nn4nifm6detail17ScanRequestClient6SubmitEv = __sdk_start + 0x0000000000387f68;
_ZNK2nn4util15RelocationTable7Section12GetPtrInFileEPv = __sdk_start + 0x000000000007cf20;
_ZN2nn2os6detail13ThreadManager26SetInitialThreadNameUnsafeEPNS0_10ThreadTypeE = __sdk_start + 0x0000000000130ee8;
_ZN2nn2os6detail26ThreadManagerImplByHorizon12CreateThreadEPNS0_10ThreadTypeEPFvS4_Ei = __sdk_start + 0x00000000001365a4;
_ZN2nn2sf4cmif6client6detail13CmifProxyImplINS_7friends6detail3ipc14IFriendServiceENS2_19CmifDomainProxyKindINS0_4hipc6client38Hipc2ClientSessionManagedProxyKindBaseINSB_18Hipc2ProxyKindBaseILNSA_6detail11MessageTypeE6EEEEEEENS0_30MemoryResourceAllocationPolicyES8_NS3_19ProcessModifierImplINS2_21DefaultProxyFilterTagEEEE26_nn_sf_sync_AddPlayHistoryERKNS_7account3UidERKNS5_26PlayHistoryRegistrationKeyERKNS5_15InAppScreenNameESX_m = __sdk_start + 0x0000000000346e54;
_ZN2nn8settings7factory27GetAmiiboEcqvBlsCertificateEPNS1_24AmiiboEcqvBlsCertificateE = __sdk_start + 0x00000000003acbc0;
_ZN2nn2sf4cmif6client6detail13CmifProxyImplINS_3ngc1t6detail8IServiceENS0_4hipc6client18Hipc2ProxyKindBaseILNS9_6detail11MessageTypeE6EEENS0_30MemoryResourceAllocationPolicyES8_NS3_19ProcessModifierImplINS2_21DefaultProxyFilterTagEEEE12GetProxyInfoEv = __sdk_start + 0x00000000004dee8c;
_ZNSt3__112basic_stringIwNS_11char_traitsIwEENS_9allocatorIwEEE9__grow_byEmmmmmm = __sdk_start + 0x0000000000501b1c;
_ZNSt3__111regex_errorD2Ev = __sdk_start + 0x000000000054eaf4;
_ZN2nn7friends14FriendPresenceC1Ev = __sdk_start + 0x0000000000344e40;
NvRmMemGetAddress = __sdk_start + 0x00000000003fa300;
_ZNSt3__17collateIcE2idE = __sdk_start + 0x0000000000e01418;
_ZN2nn2os24FinalizeReaderWriterLockEPNS0_20ReaderWriterLockTypeE = __sdk_start + 0x000000000012e510;
_ZN2nn2os19InitializeBusyMutexEPNS0_13BusyMutexTypeE = __sdk_start + 0x000000000012a6f0;
_ZN2nn2os6detail27MultiWaitHolderOfTimerEvent15AddToObjectListEv = __sdk_start + 0x0000000000131c08;
_ZNK7android10FrameStats16getFlattenedSizeEv = __sdk_start + 0x000000000018d13c;
_ZN2nn3btm4user22GetGattCharacteristicsEPNS1_18GattCharacteristicEhjt = __sdk_start + 0x0000000000247b70;
_ZN2nn2sf4cmif6client6detail13CmifProxyImplINS_2lm10ILogGetterENS2_19CmifDomainProxyKindINS0_4hipc6client38Hipc2ClientSessionManagedProxyKindBaseINS9_18Hipc2ProxyKindBaseILNS8_6detail11MessageTypeE6EEEEEEENS0_30MemoryResourceAllocationPolicyES6_NS3_19ProcessModifierImplINS2_21DefaultProxyFilterTagEEEE12GetProxyInfoEv = __sdk_start + 0x00000000003616a8;
_ZN2nn2sf4cmif6client6detail13CmifProxyImplINS_7timesrv6detail7service14IStaticServiceENS2_19CmifDomainProxyKindINS0_4hipc6client38Hipc2ClientSessionManagedProxyKindBaseINSB_18Hipc2ProxyKindBaseILNSA_6detail11MessageTypeE6EEEEEEENS0_30MemoryResourceAllocationPolicyES8_NS3_19ProcessModifierImplINS2_21DefaultProxyFilterTagEEEE49_nn_sf_sync_GetStandardUserSystemClockInitialYearENS0_3OutIivEE = __sdk_start + 0x00000000003d1aa4;
log10f = __sdk_start + 0x00000000005c09e0;
_ZN2nn2sf4cmif6client6detail13CmifProxyImplINS_7friends6detail3ipc14IFriendServiceENS2_19CmifDomainProxyKindINS0_4hipc6client38Hipc2ClientSessionManagedProxyKindBaseINSB_18Hipc2ProxyKindBaseILNSA_6detail11MessageTypeE6EEEEEEENS0_30MemoryResourceAllocationPolicyES8_NS3_19ProcessModifierImplINS2_21DefaultProxyFilterTagEEEE36_nn_sf_sync_ResendFacedFriendRequestERKNS_7account3UidENSO_23NetworkServiceAccountIdE = __sdk_start + 0x0000000000347278;
_ZN2nn3hid6system24GetXcdDeviceHandleForNfcEPNS_3xcd12DeviceHandleE = __sdk_start + 0x00000000004ae260;
_ZN7android10MemoryBaseC2ERKNS_2spINS_11IMemoryHeapEEElm = __sdk_start + 0x0000000000166804;
_ZN2nn2am28IsInitializedAsLibraryAppletEv = __sdk_start + 0x00000000001b20c0;
_ZNK2nn3mii6detail11CoreDataRaw12GetHairColorEv = __sdk_start + 0x0000000000368f88;
_ZN2nn2sf4cmif6client6detail13CmifProxyImplINS_2am7service15IDebugFunctionsENS2_19CmifDomainProxyKindINS0_4hipc6client38Hipc2ClientSessionManagedProxyKindBaseINSA_18Hipc2ProxyKindBaseILNS9_6detail11MessageTypeE6EEEEEEENS0_30MemoryResourceAllocationPolicyES7_NS3_19ProcessModifierImplINS2_21DefaultProxyFilterTagEEEE44_nn_sf_sync_GetGrcProcessLaunchedSystemEventENS0_3OutINS0_12NativeHandleEvEE = __sdk_start + 0x00000000001ba8cc;
_ZN2nn6applet23SetInputDetectionPolicyENS0_20InputDetectionPolicyE = __sdk_start + 0x00000000001cb9d0;
_ZN2nn2sf4cmif6client34CmifDomainProxyClientCoreProcessorINS0_4hipc6client38Hipc2ClientSessionManagedProxyKindBaseINS5_18Hipc2ProxyKindBaseILNS4_6detail11MessageTypeE6EEEEENS1_6detail14CoreMethodInfoINSt3__15tupleIJNSC_18OutRawArgumentInfoILm88ELm4ELl0EEENSC_17InRawArgumentInfoILm48ELm4ELl0EEEEEELm48ELm88ELb0EEESK_E7ProcessEPNS2_23CmifDomainClientMessageISB_E15ProxyBaseObjectENS2_24OutRawClientArgumentTypeILm88ELm4EEENS2_23InRawClientArgumentTypeILm48ELm4EvEEj = __sdk_start + 0x000000000037af60;
_ZTVNSt3__113basic_ostreamIwNS_11char_traitsIwEEEE = __sdk_start + 0x0000000000d22410;
_ZNK2nn2fs3dbm22AllocationTableStorage6SeekToEPjS3_Pll = __sdk_start + 0x000000000009b2c0;
nncodecLibopus_silk_insertion_sort_increasing_all_values_int16 = __sdk_start + 0x00000000002785d0;
_ZN2nn2sf4cmif6client6detail13CmifProxyImplINS_5codec6detail27IHardwareOpusDecoderManagerENS2_19CmifDomainProxyKindINS0_4hipc6client38Hipc2ClientSessionManagedProxyKindBaseINSA_18Hipc2ProxyKindBaseILNS9_6detail11MessageTypeE6EEEEEEENS0_30MemoryResourceAllocationPolicyES7_NS3_19ProcessModifierImplINS2_21DefaultProxyFilterTagEEEE35_nn_sf_sync_OpenHardwareOpusDecoderENS0_3OutINS0_13SharedPointerINS6_20IHardwareOpusDecoderEEEvEENS6_36HardwareOpusDecoderParameterInternalEONS0_12NativeHandleEi = __sdk_start + 0x00000000002976d0;
_ZN2nn2la32NifmToWifiWebAuthArgumentsWriterC1EPKcS3_RKNS_4util4UuidEj = __sdk_start + 0x000000000035fd20;
_ZN2nn3hid6detail44IsUnintendedHomeButtonInputProtectionEnabledEPbRKj = __sdk_start + 0x00000000004942e0;
_ZTSN2nn5audio6server15BufferMixerInfoE = __sdk_start + 0x0000000000af1403;
_ZNK2nn7friends7Profile18GetProfileImageUrlEPNS0_3UrlENS0_9ImageSizeE = __sdk_start + 0x0000000000344f5c;
_ZN2nn2sf4cmif6client6detail13CmifProxyImplINS_8settings21ISystemSettingsServerENS0_4hipc6client18Hipc2ProxyKindBaseILNS7_6detail11MessageTypeE6EEENS0_30MemoryResourceAllocationPolicyES6_NS3_19ProcessModifierImplINS2_21DefaultProxyFilterTagEEEE43_nn_sf_sync_GetConsoleInformationUploadFlagENS0_3OutIbvEE = __sdk_start + 0x00000000003bb4e8;
_ZN2nn6hidbus27EnableJoyPollingReceiveModeERKNS0_9BusHandleEPKvmPvmNS0_14JoyPollingModeE = __sdk_start + 0x00000000004ba430;
_ZNK2nn8irsensor6detail8RingLifoINS0_24ClusteringProcessorStateELi5EE4ReadEPS3_ij = __sdk_start + 0x00000000004be6a0;
_ZNSt3__110__time_getD2Ev = __sdk_start + 0x0000000000545cc0;
__aarch64_swp2_acq = __sdk_start + 0x000000000057c840;
_ZN2nn2sf4cmif6server23CmifServerDomainManager6Domain7ReleaseEv = __sdk_start + 0x000000000013f00c;
_ZN2nn2sf4cmif6client6detail13CmifProxyImplINS_2am7service26ILibraryAppletSelfAccessorENS2_19CmifDomainProxyKindINS0_4hipc6client38Hipc2ClientSessionManagedProxyKindBaseINSA_18Hipc2ProxyKindBaseILNS9_6detail11MessageTypeE6EEEEEEENS0_30MemoryResourceAllocationPolicyES7_NS3_19ProcessModifierImplINS2_21DefaultProxyFilterTagEEEE42_nn_sf_sync_GetIndirectLayerProducerHandleENS0_3OutImvEE = __sdk_start + 0x00000000001bf05c;
_ZN2nn2sf13InterfaceInfoINS_5audio6detail21IAudioRendererManagerEE4_tABINS5_5_tO2NINS2_6server24AudioRendererManagerImplEE4typeES4_E4type49_nn_sf_sync_GetAudioDeviceServiceWithRevisionInfoENS0_3OutINS0_13SharedPointerINS3_12IAudioDeviceEEEvEENS_6applet20AppletResourceUserIdEj = __sdk_start + 0x0000000000220ba0;
_ZTSN2nn7dp2hdmi6detail18IDp2hdmiControllerE = __sdk_start + 0x0000000000b39cfb;
_ZN2nn3hid6system6detail29DeleteButtonConfigStorageLeftEi = __sdk_start + 0x00000000004a68d0;
_ZN2nn3hid6system24GetUniquePadSerialNumberEPNS1_21UniquePadSerialNumberENS1_11UniquePadIdE = __sdk_start + 0x00000000004abc00;
log10l = __sdk_start + 0x00000000005c0b50;
_ZTIN2nn2fs21WritableRomFileSystem15WritableRomFileE = __sdk_start + 0x0000000000ce72b8;
_ZZN2nn2sf40SimpleAllInOneHipcSubDomainClientManagerILm1EE27InitializeShimLibraryHolderINS_12notification6server35INotificationServicesForApplicationENS0_4cmif6client6detail19ProcessModifierImplINS8_21DefaultProxyFilterTagEEEEENS_6ResultEPNS0_23ShimLibraryObjectHolderIT_EEPKcPNS_14MemoryResourceEENUlPNS0_13SharedPointerIS6_EEE_clESO_ = __sdk_start + 0x000000000038f55c;
_ZTVN2nn2sf6detail38ObjectImplFactoryWithStatefulAllocatorINS0_4cmif6client6detail9CmifProxyINS_3ssl2sf11ISslContextENS4_19CmifDomainProxyKindINS0_4hipc6client38Hipc2ClientSessionManagedProxyKindBaseINSC_18Hipc2ProxyKindBaseILNSB_6detail11MessageTypeE6EEEEEEENS0_24StatefulAllocationPolicyINS0_16ExpHeapAllocatorEEENS5_19ProcessModifierImplINS4_21DefaultProxyFilterTagEEEvEESM_E6ObjectE = __sdk_start + 0x0000000000d137a0;
_ZN2nn2sf4cmif6client6detail13CmifProxyImplINS_7dp2hdmi6detail18IDp2hdmiControllerENS0_4hipc6client18Hipc2ProxyKindBaseILNS8_6detail11MessageTypeE6EEENS0_30MemoryResourceAllocationPolicyES7_NS3_19ProcessModifierImplINS2_21DefaultProxyFilterTagEEEE53_nn_sf_sync_StartBootFirmwareUpdateWithSpecifiedImageEONS0_12NativeHandleEj = __sdk_start + 0x00000000003d931c;
NvOsDrvClose = __sdk_start + 0x00000000003f6940;
decimating1Ch32TapFilter = __sdk_start + 0x0000000000209ec0;
_ZN2nn2sf4cmif6client34CmifDomainProxyClientCoreProcessorINS0_4hipc6client38Hipc2ClientSessionManagedProxyKindBaseINS5_18Hipc2ProxyKindBaseILNS4_6detail11MessageTypeE6EEEEENS1_6detail14CoreMethodInfoINSt3__15tupleIJNSC_18OutRawArgumentInfoILm8ELm4ELl0EEENSC_21OutHandleArgumentInfoILi0ELi1EEENSC_18BufferArgumentInfoILi0ELi9ELm0EEEEEELm0ELm8ELb0EEESM_E7ProcessEPNS2_23CmifDomainClientMessageISB_E15ProxyBaseObjectENS2_24OutRawClientArgumentTypeILm8ELm4EEENS2_27OutHandleClientArgumentTypeENS2_24BufferClientArgumentTypeEj = __sdk_start + 0x00000000003a05d8;
_ZN2nn6crypto6detail11XtsModeImpl12ProcessBlockEPhPKh = __sdk_start + 0x000000000000cf1c;
_ZN2nn5audio3dsp12ApplyMixRampEPiPKiiiii = __sdk_start + 0x000000000022f8d0;
_ZN2nn2sf4cmif6client6detail13CmifProxyImplINS_3nim6detail20IShopServiceAccessorENS0_4hipc6client18Hipc2ProxyKindBaseILNS8_6detail11MessageTypeE6EEENS0_30MemoryResourceAllocationPolicyES7_NS3_19ProcessModifierImplINS2_21DefaultProxyFilterTagEEEE17GetCmifBaseObjectEv = __sdk_start + 0x00000000002f8d1c;
nncryptoDecryptAes256CtrPartial = __sdk_start + 0x00000000000028c0;
_ZTIN2nn2sf4cmif6client6detail13CmifProxyImplINS_2am7service19IOverlayAppletProxyENS2_19CmifDomainProxyKindINS0_4hipc6client38Hipc2ClientSessionManagedProxyKindBaseINSA_18Hipc2ProxyKindBaseILNS9_6detail11MessageTypeE6EEEEEEENS0_30MemoryResourceAllocationPolicyES7_NS3_19ProcessModifierImplINS2_21DefaultProxyFilterTagEEEEE = __sdk_start + 0x0000000000d015e0;
_ZN2nn5audio16VoiceInfoManager22UpdateVoiceInParameterEPNS0_9VoiceInfo11InParameterE = __sdk_start + 0x00000000001dc580;
_ZN2nn5audio6server38CommandProcessingTimeEstimatorVersion58EstimateERKNS0_17VolumeRampCommandE = __sdk_start + 0x0000000000215d28;
_ZN2nn3mii6detail11CoreDataRaw12SetBeardTypeEi = __sdk_start + 0x00000000003689d0;
_ZN2nn2sf4cmif6client6detail13CmifProxyImplINS_5visrv2sf22IManagerDisplayServiceENS0_4hipc6client18Hipc2ProxyKindBaseILNS8_6detail11MessageTypeE6EEENS0_30MemoryResourceAllocationPolicyES7_NS3_19ProcessModifierImplINS2_21DefaultProxyFilterTagEEEE46_nn_sf_sync_FillDetachedSharedFrameBufferColorENS_2vi7fbshare18SharedBufferHandleEljRKNSK_19SharedTextureOptionE = __sdk_start + 0x00000000003d99c0;
_ZN2nn2vi12DestroyLayerEPNS0_5LayerE = __sdk_start + 0x00000000003e0710;
__atomic_fetch_add_1 = __sdk_start + 0x000000000057aa40;
_ZTSN2nn2am7service17IOverlayFunctionsE = __sdk_start + 0x0000000000ae6237;
__atomic_fetch_add_2 = __sdk_start + 0x000000000057aaf0;
_ZN2nn2os21SendLightMessageQueueEPNS0_21LightMessageQueueTypeEm = __sdk_start + 0x000000000012c810;
_ZN2nn7account31NintendoAccountLinkageProcedure4SwapERS1_ = __sdk_start + 0x00000000001a066c;
_ZN2nn2sf4cmif6client34CmifDomainProxyClientCoreProcessorINS0_4hipc6client38Hipc2ClientSessionManagedProxyKindBaseINS5_18Hipc2ProxyKindBaseILNS4_6detail11MessageTypeE6EEEEENS1_6detail14CoreMethodInfoINSt3__15tupleIJNSC_18BufferArgumentInfoILi0ELi6ELm0EEENSC_17InRawArgumentInfoILm16ELm8ELl0EEENSG_ILi1ELi9ELm0EEEEEELm16ELm0ELb0EEESL_E7ProcessEPNS2_23CmifDomainClientMessageISB_E15ProxyBaseObjectENS2_24BufferClientArgumentTypeENS2_23InRawClientArgumentTypeILm16ELm8EvEESS_j = __sdk_start + 0x0000000000348354;
_ZN2nn4htcs6detail25virtual_socket_collectionD2Ev = __sdk_start + 0x000000000035b290;
_ZNK2nn3mii12AppletOutput17GetAppendMiiIndexEv = __sdk_start + 0x000000000037c760;
_ZN2nn4nifm28GetAcceptableNetworkTypeFlagEPj = __sdk_start + 0x000000000038cca0;
_ZN2nn8settings6system20SetPtmBatteryVersionEh = __sdk_start + 0x00000000003af570;
_ZN2nn2sf4cmif6client6detail13CmifProxyImplINS_3hid10IHidServerENS0_4hipc6client18Hipc2ProxyKindBaseILNS7_6detail11MessageTypeE6EEENS0_30MemoryResourceAllocationPolicyES6_NS3_19ProcessModifierImplINS2_21DefaultProxyFilterTagEEEE17GetCmifBaseObjectEv = __sdk_start + 0x00000000004af1d4;
nndetailImagePng_png_set_mem_fn = __sdk_start + 0x0000000000054310;
_ZN2nn2sf6detail38ObjectImplFactoryWithStatefulAllocatorINS0_4cmif6client6detail9CmifProxyINS_2am7service18ICommonStateGetterENS4_19CmifDomainProxyKindINS0_4hipc6client38Hipc2ClientSessionManagedProxyKindBaseINSC_18Hipc2ProxyKindBaseILNSB_6detail11MessageTypeE6EEEEEEENS0_30MemoryResourceAllocationPolicyENS5_19ProcessModifierImplINS4_21DefaultProxyFilterTagEEEvEESK_E6Object7ReleaseEv = __sdk_start + 0x00000000001b6b2c;
silk_Lag_range_stage3_10_ms = __sdk_start + 0x0000000000afd72a;
FS_streq = __sdk_start + 0x000000000030abd0;
_ZN2nn2sf4cmif6client6detail13CmifProxyImplINS_7timesrv6detail7service12ISteadyClockENS2_19CmifDomainProxyKindINS0_4hipc6client38Hipc2ClientSessionManagedProxyKindBaseINSB_18Hipc2ProxyKindBaseILNSA_6detail11MessageTypeE6EEEEEEENS0_30MemoryResourceAllocationPolicyES8_NS3_19ProcessModifierImplINS2_21DefaultProxyFilterTagEEEE12GetProxyInfoEv = __sdk_start + 0x00000000003d1ee8;
NvOsFcloseEx = __sdk_start + 0x00000000003e9d70;
nvgr_decompress_prepare = __sdk_start + 0x0000000000422e20;
__atomic_fetch_add_4 = __sdk_start + 0x000000000057aba0;
_ZN2nn2sf4cmif6server23CmifServerDomainManager12CreateDomainEv = __sdk_start + 0x000000000013efc4;
_ZN2nn5audio24SetI3dl2ReverbRoomHfGainEPNS0_15I3dl2ReverbTypeEf = __sdk_start + 0x00000000001d47b0;
nncodecLibopus_silk_noise_shape_analysis_FIX = __sdk_start + 0x000000000027d210;
_ZTVN2nn2sf6detail39ObjectImplFactoryWithStatelessAllocatorINS0_4cmif6client6detail9CmifProxyINS_8irsensor15IIrSensorServerENS0_4hipc6client18Hipc2ProxyKindBaseILNS9_6detail11MessageTypeE6EEENS0_25StatelessAllocationPolicyINS0_22ExpHeapStaticAllocatorILm16384ENS7_6detail14IrSensorServerEEEEENS5_19ProcessModifierImplINS4_21DefaultProxyFilterTagEEEvEESK_E6ObjectE = __sdk_start + 0x0000000000d20230;
_ZN2nn2os20CreateTransferMemoryEPNS0_18TransferMemoryTypeEPvmNS0_16MemoryPermissionE = __sdk_start + 0x0000000000132b00;
_ZN2nn3err6detail22ContextRegistrarClient10InitializeEONS_2sf13SharedPointerINS0_7context17IContextRegistrarEEEPNS1_18ContextSeriesArrayEPNS_14MemoryResourceE = __sdk_start + 0x00000000003024c8;
_ZTIN2nn5async6detail12IWaitHandlerE = __sdk_start + 0x0000000000ce47d0;
_ZTSN2nn9bluetooth16IBluetoothDriverE = __sdk_start + 0x0000000000af8f1d;
_ZN2nn3hid6system21IsJoyConRailSupportedEv = __sdk_start + 0x00000000004aab00;
nndetailImagePng_png_colorspace_set_endpoints = __sdk_start + 0x000000000004e190;
_ZN2nn2os21SdkRecursiveMutexType4LockEv = __sdk_start + 0x000000000012e8d0;
_ZN2nn2sf4hipc6client24Hipc2ClientCoreProcessorILNS1_6detail11MessageTypeE6ENS0_4cmif6detail14CoreMethodInfoINSt3__15tupleIJNS7_18OutRawArgumentInfoILm16ELm1ELl0EEENS7_17InRawArgumentInfoILm4ELm4ELl0EEENSD_ILm4ELm4ELl4EEEEEELm8ELm16ELb0EEESG_E7ProcessEPNS2_26Hipc2ClientProxyBaseObjectENS6_6client24OutRawClientArgumentTypeILm16ELm1EEENSL_23InRawClientArgumentTypeILm4ELm4EvEESP_j = __sdk_start + 0x00000000004b3ab0;
__atomic_fetch_add_8 = __sdk_start + 0x000000000057ac50;
_ZN2nn5album25GetMovieMakerNativeWindowEPPv = __sdk_start + 0x00000000001af940;
_ZN2nn2sf6detail38ObjectImplFactoryWithStatefulAllocatorINS0_13InterfaceInfoINS_5audio6detail14IAudioRendererEE4_tABINS7_5_tO2NINS4_6server24AudioRendererManagerImpl17AudioRendererImplEE4typeES6_E4typeENS0_24StatefulAllocationPolicyINS0_16ExpHeapAllocatorEEEE6Object12AddReferenceEv = __sdk_start + 0x000000000020d418;
_ZN2nn3nfp6SetAllERKNS0_12DeviceHandleERKNS0_7NfpDataE = __sdk_start + 0x00000000003833b0;
_ZNSt3__16chrono12system_clock9to_time_tERKNS0_10time_pointIS1_NS0_8durationIxNS_5ratioILl1ELl1000000EEEEEEE = __sdk_start + 0x00000000004f81fc;
_ZnwmSt11align_val_t = __sdk_start + 0x00000000005693d0;
_ZNK7android6Region5mergeERKS0_ = __sdk_start + 0x000000000018fedc;
_ZThn32_N2nn2sf4cmif6client6detail13CmifProxyImplINS_6grcsrv17IGameMovieTrimmerENS2_19CmifDomainProxyKindINS0_4hipc6client38Hipc2ClientSessionManagedProxyKindBaseINS9_18Hipc2ProxyKindBaseILNS8_6detail11MessageTypeE6EEEEEEENS0_30MemoryResourceAllocationPolicyES6_NS3_19ProcessModifierImplINS2_21DefaultProxyFilterTagEEEE17GetCmifBaseObjectEv = __sdk_start + 0x00000000001bfae0;
_ZN2nn3hid6system38GetNpadCaptureButtonAssignmentOfCallerEPNS1_31NpadCaptureButtonAssignmentTypeEi = __sdk_start + 0x00000000004aac70;
_ZN2nn2sf4cmif6client6detail13CmifProxyImplINS_8irsensor15IIrSensorServerENS0_4hipc6client18Hipc2ProxyKindBaseILNS7_6detail11MessageTypeE6EEENS0_25StatelessAllocationPolicyINS0_22ExpHeapStaticAllocatorILm16384ENS5_6detail14IrSensorServerEEEEES6_NS3_19ProcessModifierImplINS2_21DefaultProxyFilterTagEEEE30_nn_sf_sync_RunMomentProcessorENS_6applet20AppletResourceUserIdENS5_14IrCameraHandleERKNS5_27PackedMomentProcessorConfigE = __sdk_start + 0x00000000004c3ac0;
_ZN2nn2fs3dbm30BufferedAllocationTableStorage13CacheWayCountE = __sdk_start + 0x0000000000ac5b68;
_ZN2nn5prepo12AsyncContextC2Ev = __sdk_start + 0x00000000003a720c;
NvRmGpuChannelClose = __sdk_start + 0x0000000000436e80;
_ZN2nn2sf4cmif6client34CmifDomainProxyClientCoreProcessorINS0_4hipc6client38Hipc2ClientSessionManagedProxyKindBaseINS5_18Hipc2ProxyKindBaseILNS4_6detail11MessageTypeE6EEEEENS1_6detail14CoreMethodInfoINSt3__15tupleIJNSC_17InRawArgumentInfoILm8ELm8ELl0EEENSG_ILm8ELm8ELl8EEEEEELm16ELm0ELb0EEESJ_E7ProcessEPNS2_23CmifDomainClientMessageISB_E15ProxyBaseObjectENS2_23InRawClientArgumentTypeILm8ELm8EvEESR_j = __sdk_start + 0x00000000000cc848;
_ZTVN2nn2fs6detail21SaveDataChunkIteratorE = __sdk_start + 0x0000000000cea248;
_ZN2nn5srepo6detail14ArrayGenerator8AddValueEPmPKcPhmm = __sdk_start + 0x00000000003a3dcc;
nndetailImageJpeg_jpeg_read_header = __sdk_start + 0x00000000000246b0;
_ZTVSt12length_error = __sdk_start + 0x0000000000d28b38;
_ZNKSt3__120__codecvt_utf8_utf16IDiE10do_unshiftER11__mbstate_tPcS4_RS4_ = __sdk_start + 0x0000000000542600;
_ZN2nn5async6detail13ThreadCounter8GetCountEv = __sdk_start + 0x000000000008ab6c;
_ZN2nn2sf4cmif6client6detail13CmifProxyImplINS_3hid15IHidDebugServerENS0_4hipc6client18Hipc2ProxyKindBaseILNS7_6detail11MessageTypeE6EEENS0_30MemoryResourceAllocationPolicyES6_NS3_19ProcessModifierImplINS2_21DefaultProxyFilterTagEEEE25_nn_sf_sync_SetFactoryIntEbNS5_6system11UniquePadIdE = __sdk_start + 0x00000000004b3194;
_ZThn8_N7android12BnMemoryHeapD1Ev = __sdk_start + 0x0000000000163f38;
_ZN2nn5codec8fixp_cosEii = __sdk_start + 0x00000000002b3b70;
_ZN2nn3err14MessageContext4MakeEPKcm = __sdk_start + 0x000000000030035c;
_ZN2nn8settings6system31GetInitialSystemAppletProgramIdEv = __sdk_start + 0x00000000003ad5b0;
_ZN2nn3hid6detail19GetTouchScreenStateILm14EEENS_6ResultEPNS0_16TouchScreenStateIXT_EEE = __sdk_start + 0x0000000000497dd0;
_ZN2nn3hid6system22SetSystemKeyboardStateERKNS1_19SystemKeyboardStateERKNS_6applet20AppletResourceUserIdE = __sdk_start + 0x00000000004aac10;
_ZThn32_N2nn2sf4cmif6client6detail13CmifProxyImplINS_4olsc3srv26IOlscServiceForApplicationENS2_19CmifDomainProxyKindINS0_4hipc6client38Hipc2ClientSessionManagedProxyKindBaseINSA_18Hipc2ProxyKindBaseILNS9_6detail11MessageTypeE6EEEEEEENS0_25StatelessAllocationPolicyINS0_22ExpHeapStaticAllocatorILm2048ENS5_6detail12ObjectHolder24ObjectHolderAllocatorTagEEEEES7_NS3_19ProcessModifierImplINS2_21DefaultProxyFilterTagEEEE17GetCmifBaseObjectEv = __sdk_start + 0x000000000039aa18;
_ZN2nn2sf4cmif6client6detail13CmifProxyImplINS_3ssl2sf14ISslConnectionENS2_19CmifDomainProxyKindINS0_4hipc6client38Hipc2ClientSessionManagedProxyKindBaseINSA_18Hipc2ProxyKindBaseILNS9_6detail11MessageTypeE6EEEEEEENS0_24StatefulAllocationPolicyINS0_16ExpHeapAllocatorEEES7_NS3_19ProcessModifierImplINS2_21DefaultProxyFilterTagEEEE25_nn_sf_sync_GetSrtpCipherENS0_3OutItvEE = __sdk_start + 0x00000000003c5f50;
_ZN2nn2sf4cmif6client34CmifDomainProxyClientCoreProcessorINS0_4hipc6client38Hipc2ClientSessionManagedProxyKindBaseINS5_18Hipc2ProxyKindBaseILNS4_6detail11MessageTypeE6EEEEENS1_6detail14CoreMethodInfoINSt3__15tupleIJNSC_17InRawArgumentInfoILm4ELm4ELl0EEEEEELm4ELm0ELb0EEESI_E7ProcessEPNS2_23CmifDomainClientMessageISB_E15ProxyBaseObjectENS2_23InRawClientArgumentTypeILm4ELm4EvEEj = __sdk_start + 0x00000000000c5430;
_ZNK7android4Rect9intersectERKS0_PS0_ = __sdk_start + 0x000000000018ef64;
_ZN2nn4bcat17DeliveryCacheFile4OpenEPKc = __sdk_start + 0x0000000000235e20;
_ZN2nn2sf4cmif6client6detail13CmifProxyImplINS_8settings21ISystemSettingsServerENS0_4hipc6client18Hipc2ProxyKindBaseILNS7_6detail11MessageTypeE6EEENS0_30MemoryResourceAllocationPolicyES6_NS3_19ProcessModifierImplINS2_21DefaultProxyFilterTagEEEE19_nn_sf_sync_GetEdidENS0_3OutINS5_6system4EdidEvEE = __sdk_start + 0x00000000003bb5fc;
_ZN2nn5audio6server38CommandProcessingTimeEstimatorVersion18EstimateERKNS0_20CopyMixBufferCommandE = __sdk_start + 0x0000000000212cb8;
_ZN2nn2sf4cmif6client6detail13CmifProxyImplINS_8settings21ISystemSettingsServerENS0_4hipc6client18Hipc2ProxyKindBaseILNS7_6detail11MessageTypeE6EEENS0_30MemoryResourceAllocationPolicyES6_NS3_19ProcessModifierImplINS2_21DefaultProxyFilterTagEEEE39_nn_sf_sync_SetBluetoothDevicesSettingsERKNS0_7InArrayINS5_6system24BluetoothDevicesSettingsEEE = __sdk_start + 0x00000000003bb3f8;
_ZNSt9exceptionD0Ev = __sdk_start + 0x0000000000567088;
_ZN2nn5image6detail18PngMemoryAllocator10InitializeEPFPvmS3_ES3_PFvS3_S3_ES3_ = __sdk_start + 0x000000000006ff3c;
_ZTSN2nn2sf6detail38ObjectImplFactoryWithStatefulAllocatorINS0_4cmif6client6detail9CmifProxyINS_2am7service15IStorageChannelENS4_19CmifDomainProxyKindINS0_4hipc6client38Hipc2ClientSessionManagedProxyKindBaseINSC_18Hipc2ProxyKindBaseILNSB_6detail11MessageTypeE6EEEEEEENS0_30MemoryResourceAllocationPolicyENS5_19ProcessModifierImplINS4_21DefaultProxyFilterTagEEEvEESK_E6ObjectE = __sdk_start + 0x0000000000adf394;
_ZNKSt3__114__codecvt_utf8IDiE5do_inER11__mbstate_tPKcS5_RS5_PDiS7_RS7_ = __sdk_start + 0x0000000000540bd8;
_ZTSN2nn4bcat3ipc16INotifierServiceE = __sdk_start + 0x0000000000af7535;
_ZNK2nn4time13ClockSnapshot51GetStandardNetworkSystemClockCalendarAdditionalInfoEv = __sdk_start + 0x00000000003ce644;
_ZN2nn3hid10GetKeyCodeEPtiNS_4util10BitFlagSetILi32ENS0_16KeyboardModifierEEENS2_7BitPackIjNS0_14KeyboardLayoutEEE = __sdk_start + 0x00000000004a3b10;
_ZN2nn2fs6detail30WriteViaPathBasedFileDataCacheEPNS0_3fsa5IFileEiPNS1_18FileSystemAccessorERKNS1_12FilePathHashEilPKvmRKNS0_11WriteOptionE = __sdk_start + 0x00000000000fd190;
_ZN2nn2fs26FileStorageBasedFileSystemD0Ev = __sdk_start + 0x00000000000eee20;
_ZN2nn3err6detail23ContextReaderClientImpl11PullContextINS0_7context16IReaderForSystemEEENS_6ResultEPmS7_PvmRT_NS0_17ContextDescriptorES6_ = __sdk_start + 0x0000000000302af0;
_ZN2nn2fs24GetFileTimeStampForDebugEPNS0_13FileTimeStampEPKc = __sdk_start + 0x0000000000350fb0;
_ZN7android13bytesPerPixelEi = __sdk_start + 0x000000000018ee20;
_ZN2nn5audio6server14EffectInfoBaseC1Ev = __sdk_start + 0x000000000021942c;
_ZN2nn3hid15KeyCodeComposer15EnqueueKeyCodesEPKti = __sdk_start + 0x00000000004a40f0;
_ZN2nn2sf4cmif6client6detail13CmifProxyImplINS_3hid10IHidServerENS0_4hipc6client18Hipc2ProxyKindBaseILNS7_6detail11MessageTypeE6EEENS0_30MemoryResourceAllocationPolicyES6_NS3_19ProcessModifierImplINS2_21DefaultProxyFilterTagEEEE41_nn_sf_sync_IsUsbFullKeyControllerEnabledENS0_3OutIbvEE = __sdk_start + 0x00000000004aee9c;
strxfrm_l = __sdk_start + 0x00000000005a35f0;
_ZN2nn4util6TinyMt23GenerateInitialValueXorEPji = __sdk_start + 0x0000000000081b98;
_ZN2nn2fs17RamDiskFileSystem28DoDeleteDirectoryRecursivelyERKNS0_4PathE = __sdk_start + 0x00000000000d61c0;
pthread_cond_timedwait = __sdk_start + 0x00000000001397f0;
_ZN2nn3mii6detail16Ver3StoreDataRaw13SetMouthColorEi = __sdk_start + 0x0000000000374adc;
_ZN2nn2sf4cmif6client6detail13CmifProxyImplINS_4pctl6detail3ipc30IParentalControlServiceFactoryENS2_19CmifDomainProxyKindINS0_4hipc6client38Hipc2ClientSessionManagedProxyKindBaseINSB_18Hipc2ProxyKindBaseILNSA_6detail11MessageTypeE6EEEEEEENS0_30MemoryResourceAllocationPolicyES8_NS3_19ProcessModifierImplINS2_21DefaultProxyFilterTagEEEE42_nn_sf_sync_CreateServiceWithoutInitializeENS0_3OutINS0_13SharedPointerINS7_23IParentalControlServiceEEEvEEm = __sdk_start + 0x000000000039f120;
NvRmSurfaceDump = __sdk_start + 0x00000000003ff510;
_ZTINSt12experimental15fundamentals_v112bad_any_castE = __sdk_start + 0x0000000000d214f8;
_ZN2nn9bluetooth3hal5debug25EnableTxPowerBoostSettingEb = __sdk_start + 0x000000000023d850;
_ZTSN2nn2sf6detail38ObjectImplFactoryWithStatefulAllocatorINS0_4cmif6client6detail9CmifProxyINS_5prepo6detail3ipc13IPrepoServiceENS4_19CmifDomainProxyKindINS0_4hipc6client38Hipc2ClientSessionManagedProxyKindBaseINSD_18Hipc2ProxyKindBaseILNSC_6detail11MessageTypeE6EEEEEEENS0_30MemoryResourceAllocationPolicyENS5_19ProcessModifierImplINS4_21DefaultProxyFilterTagEEEvEESL_E6ObjectE = __sdk_start + 0x0000000000b34071;
_ZN2nn4util15RelocationTable7Section6SetPtrEPv = __sdk_start + 0x000000000007cf10;
nnmem_nlib_physical_free = __sdk_start + 0x0000000000118590;
_ZN2nn2sf4cmif6client6detail13CmifProxyImplINS_2am7service18ICommonStateGetterENS2_19CmifDomainProxyKindINS0_4hipc6client38Hipc2ClientSessionManagedProxyKindBaseINSA_18Hipc2ProxyKindBaseILNS9_6detail11MessageTypeE6EEEEEEENS0_30MemoryResourceAllocationPolicyES7_NS3_19ProcessModifierImplINS2_21DefaultProxyFilterTagEEEE26_nn_sf_sync_GetEventHandleENS0_3OutINS0_12NativeHandleEvEE = __sdk_start + 0x00000000001b6b8c;
get_ttf_table = __sdk_start + 0x000000000033e800;
_ZN2nn2sf4cmif6client6detail13CmifProxyImplINS_7account6detail13IAsyncContextENS2_19CmifDomainProxyKindINS0_4hipc6client38Hipc2ClientSessionManagedProxyKindBaseINSA_18Hipc2ProxyKindBaseILNS9_6detail11MessageTypeE6EEEEEEENS0_30MemoryResourceAllocationPolicyES7_NS3_19ProcessModifierImplINS2_21DefaultProxyFilterTagEEEE21_nn_sf_sync_GetResultEv = __sdk_start + 0x000000000019cc24;
_ZN2nn6applet25SetStartLibraryAppletHookEPFbNS_2sf13SharedPointerINS_2am7service22ILibraryAppletAccessorEEENS0_8AppletIdENS0_17LibraryAppletModeEPvE = __sdk_start + 0x00000000001cca90;
_ZN2nn2sf4hipc6client24Hipc2ClientCoreProcessorILNS1_6detail11MessageTypeE6ENS0_4cmif6detail14CoreMethodInfoINSt3__15tupleIJNS7_21OutObjectArgumentInfoILi0ELi0EEENS7_17InRawArgumentInfoILm48ELm8ELl0EEENSD_ILm8ELm8ELl48EEEEEELm56ELm0ELb1EEESG_E21ProcessWithOutObjectsEPNS2_26Hipc2ClientProxyBaseObjectENS6_6client27OutObjectClientArgumentTypeENSL_23InRawClientArgumentTypeILm48ELm8EvEENSN_ILm8ELm8EvEEjPNS0_13SharedPointerINS0_14IServiceObjectEEE = __sdk_start + 0x000000000024d3e0;
_ZN2nn7friends28DeclareOpenOnlinePlaySessionEv = __sdk_start + 0x00000000003433c0;
_ZN2nn3mii6detail15BufferAllocatorC1EPvm = __sdk_start + 0x0000000000364da4;
getcwd = __sdk_start + 0x000000000008daf0;
_ZTIN2nn2am7service19IApplicationCreatorE = __sdk_start + 0x0000000000d00aa0;
_ZN2nn5codec14destroyLimiterEPNS0_9TDLimiterE = __sdk_start + 0x00000000002c6530;
_ZN2nn3mii13ImageDatabase10ExportFileEPvm = __sdk_start + 0x0000000000379194;
_ZNK2nn4nifm6detail13RequestClient14GetRequirementEPNS0_11RequirementE = __sdk_start + 0x0000000000387ac0;
_ZTVN2nn5audio6server10EffectInfoILNS0_10EffectTypeE2ENS0_12AuxParameterEEE = __sdk_start + 0x0000000000d054c8;
_ZN2nn5codec21aLargestAbsoluteValueE = __sdk_start + 0x0000000000b05478;
_ZN2nn4edid9CloseEdidEPNS0_4EdidE = __sdk_start + 0x0000000000012730;
nnmem_nlib_realloc = __sdk_start + 0x0000000000119da0;
_ZN2nn5codec52BidirectionalEstimation_UseScfOfPrevFrameAsReferenceEPNS0_22CAacDecoderChannelInfoEPNS0_28CAacDecoderStaticChannelInfoE = __sdk_start + 0x00000000002af230;
_ZNK2nn3mii6detail12StoreDataRaw9GetGenderEv = __sdk_start + 0x000000000036c1a8;
_ZTIN2nn2sf4cmif6client6detail13CmifProxyImplINS_4nifm6detail15INetworkProfileENS2_19CmifDomainProxyKindINS0_4hipc6client38Hipc2ClientSessionManagedProxyKindBaseINSA_18Hipc2ProxyKindBaseILNS9_6detail11MessageTypeE6EEEEEEENS0_30MemoryResourceAllocationPolicyES7_NS3_19ProcessModifierImplINS2_21DefaultProxyFilterTagEEEEE = __sdk_start + 0x0000000000d0ee20;
_ZN2nn8settings6detail39SetConsoleSixAxisSensorAccelerationGainERKNS0_6system36ConsoleSixAxisSensorAccelerationGainE = __sdk_start + 0x00000000003b9da0;
_ZN2nn2sf4cmif6client6detail13CmifProxyImplINS_8settings28IFirmwareDebugSettingsServerENS0_4hipc6client18Hipc2ProxyKindBaseILNS7_6detail11MessageTypeE6EEENS0_30MemoryResourceAllocationPolicyES6_NS3_19ProcessModifierImplINS2_21DefaultProxyFilterTagEEEE30_nn_sf_sync_SetAllowedSslHostsERKNS0_7InArrayINS5_6system14AllowedSslHostEEE = __sdk_start + 0x00000000003b5ab8;
__fe_getround = __sdk_start + 0x000000000057c300;
qsort = __sdk_start + 0x00000000005ac950;
__unordsf2 = __sdk_start + 0x0000000000572ba0;
_ZN2nn2sf4cmif6client6detail13CmifProxyImplINS_2am7service21IApplicationFunctionsENS2_19CmifDomainProxyKindINS0_4hipc6client38Hipc2ClientSessionManagedProxyKindBaseINSA_18Hipc2ProxyKindBaseILNS9_6detail11MessageTypeE6EEEEEEENS0_30MemoryResourceAllocationPolicyES7_NS3_19ProcessModifierImplINS2_21DefaultProxyFilterTagEEEE41_nn_sf_sync_SetDelayTimeToAbortOnGpuErrorEl = __sdk_start + 0x00000000001c1af0;
NvRmGpuRegOpsSessionSetPcSamplingMode = __sdk_start + 0x00000000004359e0;
_ZN2nn2sf22UnitHeapMemoryResource11do_allocateEmm = __sdk_start + 0x0000000000146a2c;
_ZN2nn4nifm6detail21ServiceProviderClientD2Ev = __sdk_start + 0x0000000000388244;
nndetailImagePng_png_set_write_user_transform_fn = __sdk_start + 0x00000000000690a0;
_ZN7android8String16C1Ev = __sdk_start + 0x000000000019211c;
_ZN7android10VectorImpl4pushEv = __sdk_start + 0x0000000000196eb0;
_ZN2nn2sf4cmif6client6detail13CmifProxyImplINS_2am7service17IOverlayFunctionsENS2_19CmifDomainProxyKindINS0_4hipc6client38Hipc2ClientSessionManagedProxyKindBaseINSA_18Hipc2ProxyKindBaseILNS9_6detail11MessageTypeE6EEEEEEENS0_30MemoryResourceAllocationPolicyES7_NS3_19ProcessModifierImplINS2_21DefaultProxyFilterTagEEEE32_nn_sf_sync_SetGpuTimeSliceBoostEm = __sdk_start + 0x00000000001c0e2c;
_ZN2nn2fs3fsa24ISaveDataAttributeGetterD2Ev = __sdk_start + 0x00000000000b96f8;
nncodecLibopus_silk_bwexpander_32 = __sdk_start + 0x000000000026fc70;
_ZN2nn2sf4cmif6client6detail13CmifProxyImplINS_8settings21ISystemSettingsServerENS0_4hipc6client18Hipc2ProxyKindBaseILNS7_6detail11MessageTypeE6EEENS0_30MemoryResourceAllocationPolicyES6_NS3_19ProcessModifierImplINS2_21DefaultProxyFilterTagEEEE33_nn_sf_sync_GetBlePairingSettingsENS0_3OutIivEERKNS0_8OutArrayINS5_6system18BlePairingSettingsEEE = __sdk_start + 0x00000000003bbb88;
nnmem_nlib_utf32nlen_ = __sdk_start + 0x0000000000108450;
nnaudiodetail_ne10_fft_init_c2c_float32_neon = __sdk_start + 0x00000000001ecf50;
_ZTSNSt3__19time_baseE = __sdk_start + 0x0000000000b79127;
pthread_cond_wait = __sdk_start + 0x0000000000139780;
nncodecLibopus_silk_decode_frame = __sdk_start + 0x00000000002726e0;
_ZN2nn2ec37ShowShopApplicationInformationForMenuENS_13ApplicationIdERKNS_7account3UidENS0_8SourceIdE = __sdk_start + 0x00000000002f3ba0;
glslc_Alloc = __sdk_start + 0x00000000003f2520;
_ZN2nn2sf4cmif6client6detail13CmifProxyImplINS_3hid10IHidServerENS0_4hipc6client18Hipc2ProxyKindBaseILNS7_6detail11MessageTypeE6EEENS0_30MemoryResourceAllocationPolicyES6_NS3_19ProcessModifierImplINS2_21DefaultProxyFilterTagEEEE29_nn_sf_sync_PlayPalmaActivityENS5_21PalmaConnectionHandleEm = __sdk_start + 0x00000000004aef64;
_ZNK2nn2sf13SharedPointerINS_3apm8ISessionEE19FunctionForBoolTypeEv = __sdk_start + 0x00000000001c9da4;
silk_lsb_iCDF = __sdk_start + 0x0000000000afea7f;
_ZN2nn8irsensor6detail19CheckInternalStatusERKNS0_14IrCameraHandleE = __sdk_start + 0x00000000004bd910;
_ZN2nn3mii6detail12IsValidCrc16EPKvit = __sdk_start + 0x000000000036aa50;
_ZNSt3__113basic_istreamIwNS_11char_traitsIwEEErsEPFRNS_9basic_iosIwS2_EES6_E = __sdk_start + 0x0000000000510b20;
_ZTINSt3__114codecvt_bynameIDiDu11__mbstate_tEE = __sdk_start + 0x0000000000d25528;
__ctype_b_loc = __sdk_start + 0x000000000059f2f0;
_ZTINSt3__19money_getIcNS_19istreambuf_iteratorIcNS_11char_traitsIcEEEEEE = __sdk_start + 0x0000000000d24f08;
_ZN2nn2os6detail22MultiWaitHolderOfEvent15AddToObjectListEv = __sdk_start + 0x0000000000131afc;
_ZN2nn2ec19ShopServiceAccessor13AsyncResponse3GetEPvm = __sdk_start + 0x00000000002f49e4;
_ZN2nn4htcs18GetDefaultHostNameEv = __sdk_start + 0x000000000035b0f0;
_ZN2nn5prepo5Array3AddEPKc = __sdk_start + 0x00000000003a8054;
_ZN2nn5swkbd24ReadCloseResultAndStringENS_6applet19LibraryAppletHandleEPNS0_11CloseResultEPNS0_6StringE = __sdk_start + 0x00000000003c8e10;
_ZTSN2nn2sf6detail38ObjectImplFactoryWithStatefulAllocatorINS0_4cmif6client6detail9CmifProxyIN3nns9hosbinder16IHOSBinderDriverENS0_4hipc6client18Hipc2ProxyKindBaseILNSA_6detail11MessageTypeE6EEENS0_30MemoryResourceAllocationPolicyENS5_19ProcessModifierImplINS4_21DefaultProxyFilterTagEEEvEESG_E6ObjectE = __sdk_start + 0x0000000000b392ff;
_ZTSN2nn2fs4save18ExclusiveDirectoryE = __sdk_start + 0x0000000000ac5c73;
_ZN2nn2sf4hipc6server34HipcServerSessionManagerWithDomain15HipcManagerImpl22CloneCurrentObjectImplENS0_3OutINS0_12NativeHandleEvEEPNS2_24HipcServerSessionManagerE = __sdk_start + 0x0000000000145910;
_ZN2nn2sf4cmif6client6detail13CmifProxyImplINS_3hid15IHidDebugServerENS0_4hipc6client18Hipc2ProxyKindBaseILNS7_6detail11MessageTypeE6EEENS0_30MemoryResourceAllocationPolicyES6_NS3_19ProcessModifierImplINS2_21DefaultProxyFilterTagEEEE42_nn_sf_sync_DeactivateConsoleSixAxisSensorEv = __sdk_start + 0x00000000004b2d84;
_ZN2nn6crypto6detail11CtrModeImplINS0_12AesEncryptorILm16EEEE6UpdateEPvmPKvm = __sdk_start + 0x0000000000000b80;
_ZN7android14SurfaceControl7setCropERKNS_4RectE = __sdk_start + 0x0000000000188740;
_ZNK2nn7account38ExternalNetworkServiceAccountRegistrar26GetNetworkServiceAccountIdEPNS0_23NetworkServiceAccountIdE = __sdk_start + 0x000000000019d7cc;
_ZTIN2nn2sf4cmif6client6detail13CmifProxyImplINS_4bcat3ipc30IDeliveryCacheDirectoryServiceENS2_19CmifDomainProxyKindINS0_4hipc6client38Hipc2ClientSessionManagedProxyKindBaseINSA_18Hipc2ProxyKindBaseILNS9_6detail11MessageTypeE6EEEEEEENS0_30MemoryResourceAllocationPolicyES7_NS3_19ProcessModifierImplINS2_21DefaultProxyFilterTagEEEEE = __sdk_start + 0x0000000000d065e0;
_ZTVN2nn2sf6detail38ObjectImplFactoryWithStatefulAllocatorINS0_4cmif6client6detail9CmifProxyINS_3nim6detail20IShopServiceAccessorENS0_4hipc6client18Hipc2ProxyKindBaseILNSA_6detail11MessageTypeE6EEENS0_30MemoryResourceAllocationPolicyENS5_19ProcessModifierImplINS4_21DefaultProxyFilterTagEEEvEESG_E6ObjectE = __sdk_start + 0x0000000000d09670;
_ZN2nn2sf4cmif6client6detail13CmifProxyImplINS_3hid16IHidSystemServerENS0_4hipc6client18Hipc2ProxyKindBaseILNS7_6detail11MessageTypeE6EEENS0_30MemoryResourceAllocationPolicyES6_NS3_19ProcessModifierImplINS2_21DefaultProxyFilterTagEEEE23_nn_sf_sync_ActivateNfcEjbNS_6applet20AppletResourceUserIdE = __sdk_start + 0x00000000004b5954;
_ZNSt3__17promiseIvE28set_exception_at_thread_exitESt13exception_ptr = __sdk_start + 0x00000000004f92e0;
_ZNKSt3__112ctype_bynameIwE9do_narrowEwc = __sdk_start + 0x000000000053e388;
_ZTSN2nn2am7service8IStorageE = __sdk_start + 0x0000000000adfb64;
_ZN2nn5codec20aBookPsIccFreqDecodeE = __sdk_start + 0x0000000000b0ec8c;
_ZN2nn2ec6detail34ShowShopApplicationInformationImplENS1_10LaunchModeENS_4util8optionalINS_13ApplicationIdEEERKNS_7account3UidENS4_INS0_15AdditionalParamEEENS0_8SourceIdEPKc = __sdk_start + 0x00000000002f5720;
_ZN2nn2oe20SetFocusHandlingModeENS0_17FocusHandlingModeE = __sdk_start + 0x0000000000397d20;
_ZN2nn8settings6detail46GetConsoleSixAxisSensorAngularVelocityTimeBiasEPNS0_6system43ConsoleSixAxisSensorAngularVelocityTimeBiasE = __sdk_start + 0x00000000003b9f20;
_ZN2nn3hid6system6detail47IsSixAxisSensorAccurateUserCalibrationSupportedEPbRKNS1_25UniqueSixAxisSensorHandleE = __sdk_start + 0x00000000004a9460;
_ZN2nn6crypto6detail6BigNum10RightShiftEPjPKjii = __sdk_start + 0x0000000000005430;
_ZN2nn2fs4Path17SetReadOnlyBufferEPKc = __sdk_start + 0x00000000000ef058;
_ZNK2nn3mem17StandardAllocator4DumpEv = __sdk_start + 0x0000000000126a4c;
fileno_unlocked = __sdk_start + 0x00000000005a8650;
__setjmp = __sdk_start + 0x00000000005c4270;
_ZN2nn2sf4cmif6client34CmifDomainProxyClientCoreProcessorINS0_4hipc6client38Hipc2ClientSessionManagedProxyKindBaseINS5_18Hipc2ProxyKindBaseILNS4_6detail11MessageTypeE6EEEEENS1_6detail14CoreMethodInfoINSt3__15tupleIJNSC_17InRawArgumentInfoILm2ELm2ELl0EEEEEELm2ELm0ELb0EEESI_E7ProcessEPNS2_23CmifDomainClientMessageISB_E15ProxyBaseObjectENS2_23InRawClientArgumentTypeILm2ELm2EvEEj = __sdk_start + 0x00000000000c1b8c;
_ZN2nn7nlibsdk4heap10CachedHeap10CheckCacheEv = __sdk_start + 0x0000000000126098;
_ZN2nn3ssl6detail14ServiceSession8FinalizeEv = __sdk_start + 0x00000000003c4aec;
_ZNSt3__14wcinE = __sdk_start + 0x0000000000e00d18;
_ZN2nn2fs23GetAndClearMmcErrorInfoEPNS0_16StorageErrorInfoEPmPcm = __sdk_start + 0x00000000000d3d50;
nnmem_nlib_vdprintf = __sdk_start + 0x0000000000104cf0;
_ZTIN2nn2sf4cmif6client6detail13CmifProxyImplINS_2am7service24ITransferStorageAccessorENS2_19CmifDomainProxyKindINS0_4hipc6client38Hipc2ClientSessionManagedProxyKindBaseINSA_18Hipc2ProxyKindBaseILNS9_6detail11MessageTypeE6EEEEEEENS0_30MemoryResourceAllocationPolicyES7_NS3_19ProcessModifierImplINS2_21DefaultProxyFilterTagEEEEE = __sdk_start + 0x0000000000cff950;
_ZTSN2nn2sf4cmif6client6detail13CmifProxyImplINS_2am7service20IApplicationAccessorENS2_19CmifDomainProxyKindINS0_4hipc6client38Hipc2ClientSessionManagedProxyKindBaseINSA_18Hipc2ProxyKindBaseILNS9_6detail11MessageTypeE6EEEEEEENS0_30MemoryResourceAllocationPolicyES7_NS3_19ProcessModifierImplINS2_21DefaultProxyFilterTagEEEEE = __sdk_start + 0x0000000000ae3d6c;
__aarch64_ldadd8_acq = __sdk_start + 0x000000000057ccc0;
nnmem_nlib_thread_priority_max = __sdk_start + 0x0000000000119000;
nnmem_nlib_memchr_gt = __sdk_start + 0x000000000011aa30;
_ZTIN2nn2sf4cmif6client6detail9CmifProxyINS_2am7service15ISelfControllerENS2_19CmifDomainProxyKindINS0_4hipc6client38Hipc2ClientSessionManagedProxyKindBaseINSA_18Hipc2ProxyKindBaseILNS9_6detail11MessageTypeE6EEEEEEENS0_30MemoryResourceAllocationPolicyENS3_19ProcessModifierImplINS2_21DefaultProxyFilterTagEEEvEE = __sdk_start + 0x0000000000cff530;
_ZN2nn5audio6server11SinkContextC1Ev = __sdk_start + 0x000000000021d014;
_ZTIN10__cxxabiv123__fundamental_type_infoE = __sdk_start + 0x0000000000d28e40;
_ZN2nn2fs4save16SaveDataFileImpl14DoOperateRangeEPvmNS0_11OperationIdEllPKvm = __sdk_start + 0x00000000000acfa4;
_ZN7android7BBinder10onTransactEjRKNS_6ParcelEPS1_j = __sdk_start + 0x0000000000161310;
setenv = __sdk_start + 0x00000000005a06c0;
_ZN2nn7account13ListOpenUsersEPiPNS0_3UidEi = __sdk_start + 0x0000000000199830;
nncodecLibopus_opus_decoder_create = __sdk_start + 0x00000000002826b0;
_ZN2nn3hid6system22GetLastActiveUniquePadEPNS1_11UniquePadIdE = __sdk_start + 0x00000000004abe10;
__memcpy_fast = __sdk_start + 0x0000000000594790;
nncryptoEncryptAes128Ctr = __sdk_start + 0x0000000000002810;
_ZN2nn2sf4cmif6client6detail13CmifProxyImplINS_2am7service8IStorageENS2_19CmifDomainProxyKindINS0_4hipc6client38Hipc2ClientSessionManagedProxyKindBaseINSA_18Hipc2ProxyKindBaseILNS9_6detail11MessageTypeE6EEEEEEENS0_30MemoryResourceAllocationPolicyES7_NS3_19ProcessModifierImplINS2_21DefaultProxyFilterTagEEEE28_nn_sf_sync_GetAndInvalidateENS0_3OutINS0_13SharedPointerIS7_EEvEE = __sdk_start + 0x00000000001b8b30;
_ZNK2nn3mii13AppletManager13IsInitializedEv = __sdk_start + 0x000000000037c8bc;
NvRmFencePutToFile = __sdk_start + 0x0000000000404fc0;
nndetailImageJpeg_jpeg_write_tables = __sdk_start + 0x0000000000014160;
_ZN2nn5codec30FinalizeOpusMultiStreamDecoderEPNS0_26OpusMultiStreamDecoderTypeE = __sdk_start + 0x0000000000296840;
_ZTCNSt3__114basic_ofstreamIcNS_11char_traitsIcEEEE0_NS_13basic_ostreamIcS2_EE = __sdk_start + 0x0000000000d22c80;
pthread_barrier_wait = __sdk_start + 0x0000000000139660;
nnmem_nlib_int16_from_chars = __sdk_start + 0x0000000000112e20;
_ZN2nn5audio32GetOscMessageNextArgumentAsInt32EPNS0_14OscMessageTypeE = __sdk_start + 0x00000000001d85d0;
nncodecLibopus_check_control_input = __sdk_start + 0x000000000026fce0;
_ZN4nerd16VibrationDecoder15DoGenerateChunkEjjjjPs = __sdk_start + 0x00000000004a3310;
_ZN2nn3web6common9CommonApi26SetBootFooterButtonVisibleEPhNS1_14FooterButtonIdEb = __sdk_start + 0x00000000004e1ae0;
_ZTSN2nn2sf4cmif6client6detail9CmifProxyINS_3err7context21IWriterForApplicationENS2_19CmifDomainProxyKindINS0_4hipc6client38Hipc2ClientSessionManagedProxyKindBaseINSA_18Hipc2ProxyKindBaseILNS9_6detail11MessageTypeE6EEEEEEENS0_30MemoryResourceAllocationPolicyENS3_19ProcessModifierImplINS2_21DefaultProxyFilterTagEEEvEE = __sdk_start + 0x0000000000b11b1b;
fs_NewSfnt = __sdk_start + 0x0000000000328680;
_ZN2nn2sf4cmif6client6detail13CmifProxyImplINS_7timesrv6detail7service12ISteadyClockENS2_19CmifDomainProxyKindINS0_4hipc6client38Hipc2ClientSessionManagedProxyKindBaseINSB_18Hipc2ProxyKindBaseILNSA_6detail11MessageTypeE6EEEEEEENS0_30MemoryResourceAllocationPolicyES8_NS3_19ProcessModifierImplINS2_21DefaultProxyFilterTagEEEE31_nn_sf_sync_GetSetupResultValueENS0_3OutIjvEE = __sdk_start + 0x00000000003d1f2c;
_ZN22nerd_gillette_internal5otete7jaimev127DecodeFullSilhouetteImplROKINS_15NumericalVectorIfLm2EEEPFS4_NS3_IsLm2EEEEEEbRNS_30ContiguousStorageContainerBaseIT_Lb1EEERNS0_14InputBitStreamERKNS1_23FullSilhouetteCodecDataET0_ = __sdk_start + 0x00000000004d2f90;
_ZNK2nn5image13ExifExtractor16ExtractMakerNoteEPm = __sdk_start + 0x000000000004b8d0;
_ZTIN2nn2fs4save26SaveDataFileSystemCoreImplE = __sdk_start + 0x0000000000ce6de8;
_ZNK2nn2ec30ConsumableServiceItemRightData26IsServiceProvidableOnLocalEv = __sdk_start + 0x00000000002f2158;
_ZN2nn3mii21ParamCharInfoAccessorC2ERKNS0_8CharInfoE = __sdk_start + 0x00000000003644f8;
_ZN2nn3mii6detail26RandomMiiFacelineTypeTableE = __sdk_start + 0x0000000000b21c80;
_ZN2nn2sf4cmif6client6detail13CmifProxyImplINS_5visrv2sf22IManagerDisplayServiceENS0_4hipc6client18Hipc2ProxyKindBaseILNS8_6detail11MessageTypeE6EEENS0_30MemoryResourceAllocationPolicyES7_NS3_19ProcessModifierImplINS2_21DefaultProxyFilterTagEEEE29_nn_sf_sync_SetConductorLayerEmb = __sdk_start + 0x00000000003d9870;
_ZN2nn3hid6detail13GetNpadStatesEPiPNS0_6system15NpadSystemStateEiRKj = __sdk_start + 0x0000000000493100;
_ZN2nn3hid6system34CancelAnalogStickManualCalibrationENS1_11UniquePadIdENS1_19AnalogStickPositionE = __sdk_start + 0x00000000004a9cd0;
_ZN2nn3hid6system11ActivateNfcEjNS_6applet20AppletResourceUserIdE = __sdk_start + 0x00000000004ae160;
_ZN2nn5async6detail24FiberTaskCoordinatorBase9YieldTaskEv = __sdk_start + 0x0000000000089744;
_ZN2nn6socket8resolver11GetNameInfoEPKNS0_8SockAddrEjPcmS5_mNS0_12NameInfoFlagEPKNS0_14ResolverOptionEm = __sdk_start + 0x000000000015c360;
telldir = __sdk_start + 0x000000000008d560;
_ZNSt3__112strstreambufC1EPclS1_ = __sdk_start + 0x000000000054ee74;
_ZN2nn5srepo6detail14ArrayGenerator19IsSameExtensionTypeENS1_20MsgpackExtensionTypeEPhm = __sdk_start + 0x00000000003a3b4c;
_ZN2nn5codec39FDK_sbrDecoder_sbr_huffBook_EnvLevel10FE = __sdk_start + 0x0000000000b0e848;
_ZN2nn2sf4cmif6client6detail13CmifProxyImplINS_8settings21ISystemSettingsServerENS0_4hipc6client18Hipc2ProxyKindBaseILNS7_6detail11MessageTypeE6EEENS0_30MemoryResourceAllocationPolicyES6_NS3_19ProcessModifierImplINS2_21DefaultProxyFilterTagEEEE27_nn_sf_sync_GetEulaVersionsENS0_3OutIivEERKNS0_8OutArrayINS5_6system11EulaVersionEEE = __sdk_start + 0x00000000003bb494;
nndetailImagePng_png_get_image_width = __sdk_start + 0x0000000000052c00;
_ZN2nn3mii6detail29CharacterRangeListTaiwanCountE = __sdk_start + 0x0000000000b1bb0c;
NvRmGpuDeviceListCurrentSensors = __sdk_start + 0x00000000004361a0;
_ZN2nn7account28NetworkServiceAccountManager37LoadNetworkServiceAccountIdTokenCacheEPmPcm = __sdk_start + 0x000000000019e5d4;
_ZN2nn2sf4cmif6client6detail13CmifProxyImplINS_4bcat3ipc15IServiceCreatorENS2_19CmifDomainProxyKindINS0_4hipc6client38Hipc2ClientSessionManagedProxyKindBaseINSA_18Hipc2ProxyKindBaseILNS9_6detail11MessageTypeE6EEEEEEENS0_30MemoryResourceAllocationPolicyES7_NS3_19ProcessModifierImplINS2_21DefaultProxyFilterTagEEEE45_nn_sf_sync_CreateDeliveryCacheStorageServiceENS0_3OutINS0_13SharedPointerINS6_28IDeliveryCacheStorageServiceEEEvEEm = __sdk_start + 0x00000000002376d8;
_ZN2nn3mii6detail11CoreDataRaw10SetDefaultEv = __sdk_start + 0x0000000000367370;
NvRmGpuDeviceZbcAddDepth = __sdk_start + 0x0000000000435220;
_ZN2nn8settings29GetAvailableLanguageCodeCountEv = __sdk_start + 0x00000000003ae980;
_ZN2nn2sf4cmif6client6detail13CmifProxyImplINS_3hid16IHidSystemServerENS0_4hipc6client18Hipc2ProxyKindBaseILNS7_6detail11MessageTypeE6EEENS0_30MemoryResourceAllocationPolicyES6_NS3_19ProcessModifierImplINS2_21DefaultProxyFilterTagEEEE42_nn_sf_sync_UnregisterAppletResourceUserIdENS_6applet20AppletResourceUserIdE = __sdk_start + 0x00000000004b5ba4;
_ZNSt3__115basic_streambufIwNS_11char_traitsIwEEEC2Ev = __sdk_start + 0x0000000000510250;
_ZN2nn2sf4cmif6server23CmifServerDomainManager14EntryAllocatorD1Ev = __sdk_start + 0x000000000013e600;
_ZN2nn5codec5adpcm23GetAdpcmLoopContextImplEPNS0_12AdpcmContextEPKNS0_14AdpcmParameterEPKvmi = __sdk_start + 0x000000000024dfa0;
_ZN2nn4time26StandardNetworkSystemClock21GetSystemClockContextEPNS0_18SystemClockContextE = __sdk_start + 0x00000000003cee08;
_ZTSN10__cxxabiv123__fundamental_type_infoE = __sdk_start + 0x0000000000b7acd8;
_ZN2nn8settings6detail18GetAccountSettingsEPNS0_6system15AccountSettingsE = __sdk_start + 0x00000000003b0920;
_ZN2nn2fs3fsa10UnregisterEPKc = __sdk_start + 0x00000000000a1c50;
_ZN2nn7account35EnableInterProgramOpenUserRetentionERKNS_3arp21ApplicationInstanceIdE = __sdk_start + 0x000000000019b050;
_ZN2nn5audio6server38CommandProcessingTimeEstimatorVersion210InitializeEii = __sdk_start + 0x0000000000212ce8;
_ZN2nn5audio6server38CommandProcessingTimeEstimatorVersion48EstimateERKNS0_26TDataSourceCommandVersion2ILNS0_9CommandIdE6EEE = __sdk_start + 0x0000000000214a18;
_ZN2nn5codec20InitHybridFilterBankEPNS0_6HYBRIDEaaPKh = __sdk_start + 0x00000000002e1e90;
_ZTIN2nn2sf4cmif6client6detail9CmifProxyINS_4npns11INpnsSystemENS0_4hipc6client18Hipc2ProxyKindBaseILNS7_6detail11MessageTypeE6EEENS0_30MemoryResourceAllocationPolicyENS3_19ProcessModifierImplINS2_21DefaultProxyFilterTagEEEvEE = __sdk_start + 0x0000000000d0fd08;
_ZN2nn5swkbd6detail18InlineKeyboardImpl9SetVolumeEf = __sdk_start + 0x00000000003cac1c;
nnosGetCurrentProcessorNumber = __sdk_start + 0x000000000012fdb0;
_ZN2nn5codec15drmRead_CrcInitEPNS0_10STRUCT_DRME = __sdk_start + 0x00000000002c2c40;
_ZN2nn4nifm26GetCurrentPrimaryIpAddressEPNS_6socket6InAddrE = __sdk_start + 0x000000000038d630;
_ZN2nn2sf4cmif6client6detail13CmifProxyImplINS_8settings21ISystemSettingsServerENS0_4hipc6client18Hipc2ProxyKindBaseILNS7_6detail11MessageTypeE6EEENS0_30MemoryResourceAllocationPolicyES6_NS3_19ProcessModifierImplINS2_21DefaultProxyFilterTagEEEE35_nn_sf_sync_SetNxControllerSettingsERKNS0_7InArrayINS5_6system26NxControllerLegacySettingsEEE = __sdk_start + 0x00000000003bb908;
FsLtt_getGroupType = __sdk_start + 0x00000000003306d0;
_ZN2nn2sf4hipc6client16DuplicateSessionEPNS_3svc6HandleES4_ = __sdk_start + 0x000000000013f1b0;
NvRmStreamPushWait = __sdk_start + 0x0000000000402e80;
NvTegraSysGetFuseVP9Disable = __sdk_start + 0x0000000000405710;
_ZN2nn2sf4hipc6client24Hipc2ClientCoreProcessorILNS1_6detail11MessageTypeE6ENS0_4cmif6detail14CoreMethodInfoINSt3__15tupleIJNS7_18BufferArgumentInfoILi0ELi26ELm80EEEEEELm0ELm0ELb0EEESD_E7ProcessEPNS2_26Hipc2ClientProxyBaseObjectENS6_6client24BufferClientArgumentTypeEj = __sdk_start + 0x00000000004b1cac;
_ZNSt3__120__shared_ptr_emplaceIN2nn5async6detail20ImmediateFutureStateIvEENS1_4util3pmr20PolymorphicAllocatorIS5_EEED0Ev = __sdk_start + 0x000000000008b5d4;
_ZN2nn7nlibsdk4heap14TlsHeapCentral5Dump_E15NMallocDumpModeib = __sdk_start + 0x0000000000124070;
_ZN2nn6capsrv46ReadDataFromAlbumMovieReadStreamForApplicationEPmPvmNS0_26AlbumMovieReadStreamHandleEl = __sdk_start + 0x000000000024c030;
_ZN2nn3btm4user21StartBleScanForPairedERKNS_9bluetooth27BleAdvertisePacketParameterE = __sdk_start + 0x0000000000247540;
_ZN2nn3err11NplnContext7SizeMaxE = __sdk_start + 0x0000000000b11990;
_ZN2nn8settings6detail31SetRequiresRunRepairTimeReviserEb = __sdk_start + 0x00000000003b2400;
_ZN2nn3hid6system6detail23GetAppletDetailedUiTypeEPNS1_20AppletDetailedUiTypeERKNS1_11UniquePadIdE = __sdk_start + 0x00000000004a98c0;
_ZN22nerd_gillette_internal5otete7jaimev123EncodeFullSilhouetteROKERNS0_17MaxSizedBitStreamILm300EEENS_20ContiguousMemoryViewIKNS_15NumericalVectorIsLm2EEELb0EEERKNS1_23FullSilhouetteCodecDataE = __sdk_start + 0x00000000004d17a0;
_ZNK2nn3kpr15KeyCodeComposer14GetCompositionEPti = __sdk_start + 0x00000000004d8d48;
_ZN2nn2sf4cmif6client6detail13CmifProxyImplINS_2am7service22IAppletCommonFunctionsENS2_19CmifDomainProxyKindINS0_4hipc6client38Hipc2ClientSessionManagedProxyKindBaseINSA_18Hipc2ProxyKindBaseILNS9_6detail11MessageTypeE6EEEEEEENS0_30MemoryResourceAllocationPolicyES7_NS3_19ProcessModifierImplINS2_21DefaultProxyFilterTagEEEE17GetCmifBaseObjectEv = __sdk_start + 0x00000000001bdfd4;
_ZN2nn2sf4cmif6client6detail13CmifProxyImplINS_8settings21ISystemSettingsServerENS0_4hipc6client18Hipc2ProxyKindBaseILNS7_6detail11MessageTypeE6EEENS0_30MemoryResourceAllocationPolicyES6_NS3_19ProcessModifierImplINS2_21DefaultProxyFilterTagEEEE35_nn_sf_sync_SetUsbFullKeyEnableFlagEb = __sdk_start + 0x00000000003bb968;
_ZN2nn2sf4cmif6client6detail13CmifProxyImplINS_6capsrv2sf24IAlbumApplicationServiceENS0_4hipc6client18Hipc2ProxyKindBaseILNS8_6detail11MessageTypeE6EEENS0_30MemoryResourceAllocationPolicyES7_NS3_19ProcessModifierImplINS2_21DefaultProxyFilterTagEEEE17GetCmifBaseObjectEv = __sdk_start + 0x000000000024c7f4;
nncodecLibopus_opus_multistream_surround_encoder_create = __sdk_start + 0x00000000002910f0;
_ZN2nn2fs32SaveDataTransferManagerForRepairC2Ev = __sdk_start + 0x00000000000f4610;
_ZTSN2nn2sf4hipc6server24HipcServerSessionManagerE = __sdk_start + 0x0000000000ad0e26;
fract_arg = __sdk_start + 0x0000000000315360;
_ZTIN2nn2fs6detail24FileServiceObjectAdapterE = __sdk_start + 0x0000000000ce9898;
_ZN2nn5audio15AcquireFinalMixEPNS0_19AudioRendererConfigEPNS0_12FinalMixTypeEi = __sdk_start + 0x00000000001d7430;
_ZN2nn8settings6system19GetFieldTestingFlagEv = __sdk_start + 0x00000000003afef0;
hdcp_set_thread_priority = __sdk_start + 0x00000000003e8380;
_ZN2nn3nfc6client20DestroyUserInterfaceEv = __sdk_start + 0x000000000037e910;
_ZTSN2nn2sf6detail38ObjectImplFactoryWithStatefulAllocatorINS0_4cmif6client6detail9CmifProxyINS_4npns24ICreateTokenAsyncContextENS0_4hipc6client18Hipc2ProxyKindBaseILNS9_6detail11MessageTypeE6EEENS0_30MemoryResourceAllocationPolicyENS5_19ProcessModifierImplINS4_21DefaultProxyFilterTagEEEvEESF_E6ObjectE = __sdk_start + 0x0000000000b30b0d;
_ZN2nn2os18GetThreadStackInfoEPmS1_PKNS0_10ThreadTypeE = __sdk_start + 0x0000000000132f40;
_ZTIN2nn2fs6detail18FileSystemAccessorE = __sdk_start + 0x0000000000ce6728;
_ZNK2nn5audio15PerformanceInfo10GetEntriesEPi = __sdk_start + 0x00000000001d8a8c;
_ZN2nn5audio6server16UpsamplerManager8AllocateEv = __sdk_start + 0x00000000001e0040;
_ZN2nn5audio6server38CommandProcessingTimeEstimatorVersion28EstimateERKNS0_22DownMix6chTo2chCommandE = __sdk_start + 0x0000000000213808;
_ZN2nn9bluetooth18StopBleScanGeneralEv = __sdk_start + 0x00000000002452d0;
_ZN2nn3err6detail12NopAllocator13do_deallocateEPvmm = __sdk_start + 0x00000000002fe21c;
_ZNK2nn3mii27CharInfoVisualParamAccessor16GetEyebrowAspectEv = __sdk_start + 0x0000000000362ad0;
dcgettext = __sdk_start + 0x000000000057de60;
nndetailImageJpeg_jpeg_finish_output = __sdk_start + 0x0000000000025220;
_ZN2nn2sf4cmif6client34CmifDomainProxyClientCoreProcessorINS0_4hipc6client38Hipc2ClientSessionManagedProxyKindBaseINS5_18Hipc2ProxyKindBaseILNS4_6detail11MessageTypeE6EEEEENS1_6detail14CoreMethodInfoINSt3__15tupleIJNSC_18OutRawArgumentInfoILm1ELm1ELl0EEENSC_17InRawArgumentInfoILm8ELm8ELl0EEEEEELm8ELm1ELb0EEESK_E7ProcessEPNS2_23CmifDomainClientMessageISB_E15ProxyBaseObjectENS2_24OutRawClientArgumentTypeILm1ELm1EEENS2_23InRawClientArgumentTypeILm8ELm8EvEEj = __sdk_start + 0x00000000000cc3c0;
_ZN2nn3hid13VibrationNodeC2Ev = __sdk_start + 0x000000000049f6f4;
nndetailImageJpeg_jpeg_write_m_byte = __sdk_start + 0x0000000000014150;
_ZN7android22ISurfaceComposerClient11asInterfaceERKNS_2spINS_7IBinderEEE = __sdk_start + 0x00000000001834c0;
_ZN2nn3mii6detail23RandomMiiGlassTypeTableE = __sdk_start + 0x0000000000b29d44;
_ZThn32_N2nn2sf4cmif6client6detail13CmifProxyImplINS_2am7service15IAppletAccessorENS2_19CmifDomainProxyKindINS0_4hipc6client38Hipc2ClientSessionManagedProxyKindBaseINSA_18Hipc2ProxyKindBaseILNS9_6detail11MessageTypeE6EEEEEEENS0_30MemoryResourceAllocationPolicyES7_NS3_19ProcessModifierImplINS2_21DefaultProxyFilterTagEEEE17GetCmifBaseObjectEv = __sdk_start + 0x00000000001bd68c;
_ZN2nn5audio6common19WorkBufferAllocatorC1EPvm = __sdk_start + 0x00000000001dd0d4;
nncodecLibopus_opus_multistream_encode_native = __sdk_start + 0x00000000002911f0;
_ZN2nn3hid6system6detail15SetButtonConfigERKNS1_16ButtonConfigFullERKNS_9bluetooth7AddressE = __sdk_start + 0x00000000004a5670;
_ZN2nn2sf4cmif6client6detail13CmifProxyImplINS_3hid10IHidServerENS0_4hipc6client18Hipc2ProxyKindBaseILNS7_6detail11MessageTypeE6EEENS0_30MemoryResourceAllocationPolicyES6_NS3_19ProcessModifierImplINS2_21DefaultProxyFilterTagEEEE31_nn_sf_sync_SendVibrationValuesENS_6applet20AppletResourceUserIdERKNS0_7InArrayINS5_21VibrationDeviceHandleEEERKNSK_INS5_14VibrationValueEEE = __sdk_start + 0x00000000004aed8c;
_ZN2nn2sf4cmif6client6detail13CmifProxyImplINS_3hid10IHidServerENS0_4hipc6client18Hipc2ProxyKindBaseILNS7_6detail11MessageTypeE6EEENS0_30MemoryResourceAllocationPolicyES6_NS3_19ProcessModifierImplINS2_21DefaultProxyFilterTagEEEE39_nn_sf_sync_ReadPalmaApplicationSectionENS5_21PalmaConnectionHandleEmm = __sdk_start + 0x00000000004aefa4;
_ZN2nn2sf4cmif6client6detail13CmifProxyImplINS_4npns21INotificationReceiverENS0_4hipc6client18Hipc2ProxyKindBaseILNS7_6detail11MessageTypeE6EEENS0_30MemoryResourceAllocationPolicyES6_NS3_19ProcessModifierImplINS2_21DefaultProxyFilterTagEEEE20_nn_sf_sync_ListenToENS_13ApplicationIdE = __sdk_start + 0x000000000039279c;
_ZNSt3__115basic_streambufIwNS_11char_traitsIwEEE6sbumpcEv = __sdk_start + 0x0000000000510154;
_ZNKSt3__117moneypunct_bynameIcLb0EE16do_decimal_pointEv = __sdk_start + 0x000000000052ac4c;
_ZN2nn7nlibsdk4heap14TlsHeapCentral19UncacheSmallMemory_EPv = __sdk_start + 0x00000000001230ac;
_ZThn32_N2nn2sf4cmif6client6detail13CmifProxyImplINS_2am7service18IAppletProxyCommonENS2_19CmifDomainProxyKindINS0_4hipc6client38Hipc2ClientSessionManagedProxyKindBaseINSA_18Hipc2ProxyKindBaseILNS9_6detail11MessageTypeE6EEEEEEENS0_30MemoryResourceAllocationPolicyENS6_19IOverlayAppletProxyENS3_19ProcessModifierImplINS2_21DefaultProxyFilterTagEEEE17GetCmifBaseObjectEv = __sdk_start + 0x00000000001c0cec;
_ZN2nn2ec6detail33ShowShopPreinstallInformationImplENS1_10LaunchModeERKNS_7account3UidENS0_8SourceIdE = __sdk_start + 0x00000000002f7070;
_ZNK2nn3mii8CreateId7IsValidEv = __sdk_start + 0x00000000003646ec;
_ZN2nn2sf4cmif6client34CmifDomainProxyClientCoreProcessorINS0_4hipc6client38Hipc2ClientSessionManagedProxyKindBaseINS5_18Hipc2ProxyKindBaseILNS4_6detail11MessageTypeE6EEEEENS1_6detail14CoreMethodInfoINSt3__15tupleIJNSC_17InRawArgumentInfoILm1ELm1ELl0EEENSG_ILm1ELm1ELl1EEEEEELm2ELm0ELb0EEESJ_E7ProcessEPNS2_23CmifDomainClientMessageISB_E15ProxyBaseObjectENS2_23InRawClientArgumentTypeILm1ELm1EvEESR_j = __sdk_start + 0x0000000000389bc8;
_ZNK2nn3ssl6detail15BuiltinDataInfo9GetStatusEv = __sdk_start + 0x00000000003c4fa0;
_ZN2nn2sf4cmif6client6detail13CmifProxyImplINS_8irsensor21IIrSensorSystemServerENS0_4hipc6client18Hipc2ProxyKindBaseILNS7_6detail11MessageTypeE6EEENS0_25StatelessAllocationPolicyINS0_22ExpHeapStaticAllocatorILm16384ENS5_6detail20IrSensorSystemServerEEEEES6_NS3_19ProcessModifierImplINS2_21DefaultProxyFilterTagEEEE40_nn_sf_sync_RegisterAppletResourceUserIdENS_6applet20AppletResourceUserIdEb = __sdk_start + 0x00000000004c4a80;
_ZN2nn2fs26ClearSdCardSimulationEventEv = __sdk_start + 0x00000000000e5bd0;
_ZNKSt3__18messagesIwE7do_openERKNS_12basic_stringIcNS_11char_traitsIcEENS_9allocatorIcEEEERKNS_6localeE = __sdk_start + 0x0000000000531b94;
_IO_ferror_unlocked = __sdk_start + 0x00000000005a7de0;
nnaudiodetail_ne10_fft_r2c_1d_int32_neon = __sdk_start + 0x0000000000208060;
_ZN2nn2sf4cmif6client6detail13CmifProxyImplINS_4nifm6detail15INetworkProfileENS2_19CmifDomainProxyKindINS0_4hipc6client38Hipc2ClientSessionManagedProxyKindBaseINSA_18Hipc2ProxyKindBaseILNS9_6detail11MessageTypeE6EEEEEEENS0_30MemoryResourceAllocationPolicyES7_NS3_19ProcessModifierImplINS2_21DefaultProxyFilterTagEEEE19_nn_sf_sync_PersistENS0_3OutINS_4util4UuidEvEE = __sdk_start + 0x000000000038b190;
_ZTINSt3__18messagesIcEE = __sdk_start + 0x0000000000d25110;
_ZN2nn4diag6detail17GetSymbolSizeImplEm = __sdk_start + 0x00000000000981e0;
_ZN2nn2os21PeekLightMessageQueueEPmPKNS0_21LightMessageQueueTypeE = __sdk_start + 0x000000000012db30;
_ZN2nn2os12CreateThreadEPNS0_10ThreadTypeEPFvPvES3_S3_mii = __sdk_start + 0x000000000012f690;
_ZN2nn4lmem6detail19SetExpHeapAllocModeEPNS1_8HeapHeadEt = __sdk_start + 0x00000000001020e0;
_ZN2nn5codec9fMultNormEiiPi = __sdk_start + 0x00000000002b8be0;
_ZTSNSt3__18messagesIcEE = __sdk_start + 0x0000000000b79678;
_ZNK2nn5audio15PerformanceInfo12GetStartTimeEv = __sdk_start + 0x00000000001d8a74;
nnaudiodetail_ne10_fft_c2r_1d_int32_c = __sdk_start + 0x00000000001f7e70;
_ZTVN2nn2sf6detail38ObjectImplFactoryWithStatefulAllocatorINS0_4cmif6client6detail9CmifProxyINS_5prepo6detail3ipc13IPrepoServiceENS4_19CmifDomainProxyKindINS0_4hipc6client38Hipc2ClientSessionManagedProxyKindBaseINSD_18Hipc2ProxyKindBaseILNSC_6detail11MessageTypeE6EEEEEEENS0_30MemoryResourceAllocationPolicyENS5_19ProcessModifierImplINS4_21DefaultProxyFilterTagEEEvEESL_E6ObjectE = __sdk_start + 0x0000000000d11160;
_ZN2nn5image11ExifBuilderC2EPvm = __sdk_start + 0x000000000004adf4;
_ZN2nn2ec19ShopServiceAccessorC2Ev = __sdk_start + 0x00000000002f3fb0;
